; ModuleID = 'hpccg-O3.ll'
target datalayout = "e-m:e-i64:64-f80:128-n8:16:32:64-S128"
target triple = "x86_64-unknown-linux-gnu"

%"class.std::ios_base::Init" = type { i8 }
%"class.std::basic_ostream" = type { i32 (...)**, %"class.std::basic_ios" }
%"class.std::basic_ios" = type { %"class.std::ios_base", %"class.std::basic_ostream"*, i8, i8, %"class.std::basic_streambuf"*, %"class.std::ctype"*, %"class.std::num_put"*, %"class.std::num_put"* }
%"class.std::ios_base" = type { i32 (...)**, i64, i64, i32, i32, i32, %"struct.std::ios_base::_Callback_list"*, %"struct.std::ios_base::_Words", [8 x %"struct.std::ios_base::_Words"], i32, %"struct.std::ios_base::_Words"*, %"class.std::locale" }
%"struct.std::ios_base::_Callback_list" = type { %"struct.std::ios_base::_Callback_list"*, void (i32, %"class.std::ios_base"*, i32)*, i32, i32 }
%"struct.std::ios_base::_Words" = type { i8*, i64 }
%"class.std::locale" = type { %"class.std::locale::_Impl"* }
%"class.std::locale::_Impl" = type { i32, %"class.std::locale::facet"**, i64, %"class.std::locale::facet"**, i8** }
%"class.std::locale::facet" = type <{ i32 (...)**, i32, [4 x i8] }>
%"class.std::basic_streambuf" = type { i32 (...)**, i8*, i8*, i8*, i8*, i8*, i8*, %"class.std::locale" }
%"class.std::ctype" = type <{ %"class.std::locale::facet.base", [4 x i8], %struct.__locale_struct*, i8, [7 x i8], i32*, i32*, i16*, i8, [256 x i8], [256 x i8], i8, [6 x i8] }>
%"class.std::locale::facet.base" = type <{ i32 (...)**, i32 }>
%struct.__locale_struct = type { [13 x %struct.__locale_data*], i16*, i32*, i32*, [13 x i8*] }
%struct.__locale_data = type opaque
%"class.std::num_put" = type { %"class.std::locale::facet.base", [4 x i8] }
%class.YAML_Element = type { %"class.std::__cxx11::basic_string", %"class.std::__cxx11::basic_string", %"class.std::vector" }
%"class.std::__cxx11::basic_string" = type { %"struct.std::__cxx11::basic_string<char, std::char_traits<char>, std::allocator<char> >::_Alloc_hider", i64, %union.anon }
%"struct.std::__cxx11::basic_string<char, std::char_traits<char>, std::allocator<char> >::_Alloc_hider" = type { i8* }
%union.anon = type { i64, [8 x i8] }
%"class.std::vector" = type { %"struct.std::_Vector_base" }
%"struct.std::_Vector_base" = type { %"struct.std::_Vector_base<YAML_Element *, std::allocator<YAML_Element *> >::_Vector_impl" }
%"struct.std::_Vector_base<YAML_Element *, std::allocator<YAML_Element *> >::_Vector_impl" = type { %class.YAML_Element**, %class.YAML_Element**, %class.YAML_Element** }
%class.YAML_Doc = type { %class.YAML_Element, %"class.std::__cxx11::basic_string", %"class.std::__cxx11::basic_string", %"class.std::__cxx11::basic_string", %"class.std::__cxx11::basic_string" }
%struct.HPC_Sparse_Matrix_STRUCT = type { i8*, i32, i32, i32, i64, i32, i32, i32, i32*, double**, i32**, double**, double*, i32* }
%struct._IO_FILE = type { i32, i8*, i8*, i8*, i8*, i8*, i8*, i8*, i8*, i8*, i8*, i8*, %struct._IO_marker*, %struct._IO_FILE*, i32, i32, i64, i16, i8, [1 x i8], i8*, i64, i8*, i8*, i8*, i8*, i64, i32, [20 x i8] }
%struct._IO_marker = type { %struct._IO_marker*, %struct._IO_FILE*, i32 }
%struct.rusage = type { %struct.timeval, %struct.timeval, %union.anon.4, %union.anon.4, %union.anon.4, %union.anon.4, %union.anon.4, %union.anon.4, %union.anon.4, %union.anon.4, %union.anon.4, %union.anon.4, %union.anon.4, %union.anon.4, %union.anon.4, %union.anon.4 }
%struct.timeval = type { i64, i64 }
%union.anon.4 = type { i64 }
%"class.std::__cxx11::basic_stringstream" = type { %"class.std::basic_iostream.base", %"class.std::__cxx11::basic_stringbuf", %"class.std::basic_ios" }
%"class.std::basic_iostream.base" = type { %"class.std::basic_istream.base", %"class.std::basic_ostream.base" }
%"class.std::basic_istream.base" = type { i32 (...)**, i64 }
%"class.std::basic_ostream.base" = type { i32 (...)** }
%"class.std::__cxx11::basic_stringbuf" = type { %"class.std::basic_streambuf", i32, %"class.std::__cxx11::basic_string" }
%"class.std::basic_ofstream" = type { %"class.std::basic_ostream.base", %"class.std::basic_filebuf", %"class.std::basic_ios" }
%"class.std::basic_filebuf" = type { %"class.std::basic_streambuf", %union.pthread_mutex_t, %"class.std::__basic_file", i32, %struct.__mbstate_t, %struct.__mbstate_t, %struct.__mbstate_t, i8*, i64, i8, i8, i8, i8, i8*, i8*, i8, %"class.std::codecvt"*, i8*, i64, i8*, i8* }
%union.pthread_mutex_t = type { %struct.__pthread_mutex_s }
%struct.__pthread_mutex_s = type { i32, i32, i32, i32, i32, i16, i16, %struct.__pthread_internal_list }
%struct.__pthread_internal_list = type { %struct.__pthread_internal_list*, %struct.__pthread_internal_list* }
%"class.std::__basic_file" = type <{ %struct._IO_FILE*, i8, [7 x i8] }>
%struct.__mbstate_t = type { i32, %union.anon.3 }
%union.anon.3 = type { i32 }
%"class.std::codecvt" = type { %"class.std::__codecvt_abstract_base.base", %struct.__locale_struct* }
%"class.std::__codecvt_abstract_base.base" = type { %"class.std::locale::facet.base" }
%struct.tm = type { i32, i32, i32, i32, i32, i32, i32, i32, i32, i64, i8* }

$__clang_call_terminate = comdat any

$_ZNSt6vectorIP12YAML_ElementSaIS1_EE17_M_realloc_insertEN9__gnu_cxx17__normal_iteratorIPS1_S3_EERKS1_ = comdat any

$_ZStplIcSt11char_traitsIcESaIcEENSt7__cxx1112basic_stringIT_T0_T1_EERKS8_SA_ = comdat any

$_ZStplIcSt11char_traitsIcESaIcEENSt7__cxx1112basic_stringIT_T0_T1_EERKS8_PKS5_ = comdat any

$_ZN12YAML_ElementC2Ev = comdat any

$_ZStplIcSt11char_traitsIcESaIcEENSt7__cxx1112basic_stringIT_T0_T1_EEPKS5_RKS8_ = comdat any

@llvm.global_ctors = appending global [7 x { i32, void ()*, i8* }] [{ i32, void ()*, i8* } { i32 65535, void ()* @_GLOBAL__sub_I_main.cpp, i8* null }, { i32, void ()*, i8* } { i32 65535, void ()* @_GLOBAL__sub_I_generate_matrix.cpp, i8* null }, { i32, void ()*, i8* } { i32 65535, void ()* @_GLOBAL__sub_I_read_HPC_row.cpp, i8* null }, { i32, void ()*, i8* } { i32 65535, void ()* @_GLOBAL__sub_I_HPC_sparsemv.cpp, i8* null }, { i32, void ()*, i8* } { i32 65535, void ()* @_GLOBAL__sub_I_HPCCG.cpp, i8* null }, { i32, void ()*, i8* } { i32 65535, void ()* @_GLOBAL__sub_I_YAML_Element.cpp, i8* null }, { i32, void ()*, i8* } { i32 65535, void ()* @_GLOBAL__sub_I_YAML_Doc.cpp, i8* null }]
@_ZStL8__ioinit = internal global %"class.std::ios_base::Init" zeroinitializer, align 1
@__dso_handle = external global i8
@_ZSt4cerr = external global %"class.std::basic_ostream", align 8
@.str = private unnamed_addr constant [7 x i8] c"Usage:\00", align 1
@.str.1 = private unnamed_addr constant [9 x i8] c"Mode 1: \00", align 1
@.str.2 = private unnamed_addr constant [10 x i8] c" nx ny nz\00", align 1
@.str.3 = private unnamed_addr constant [64 x i8] c"     where nx, ny and nz are the local sub-block dimensions, or\00", align 1
@.str.4 = private unnamed_addr constant [9 x i8] c"Mode 2: \00", align 1
@.str.5 = private unnamed_addr constant [16 x i8] c" HPC_data_file \00", align 1
@.str.6 = private unnamed_addr constant [79 x i8] c"     where HPC_data_file is a globally accessible file containing matrix data.\00", align 1
@.str.7 = private unnamed_addr constant [22 x i8] c"Error in call to CG: \00", align 1
@.str.8 = private unnamed_addr constant [3 x i8] c".\0A\00", align 1
@.str.9 = private unnamed_addr constant [6 x i8] c"hpccg\00", align 1
@.str.10 = private unnamed_addr constant [4 x i8] c"1.0\00", align 1
@.str.12 = private unnamed_addr constant [12 x i8] c"Parallelism\00", align 1
@.str.13 = private unnamed_addr constant [16 x i8] c"MPI not enabled\00", align 1
@.str.14 = private unnamed_addr constant [19 x i8] c"OpenMP not enabled\00", align 1
@.str.15 = private unnamed_addr constant [11 x i8] c"Dimensions\00", align 1
@.str.19 = private unnamed_addr constant [21 x i8] c"Number of iterations\00", align 1
@.str.20 = private unnamed_addr constant [15 x i8] c"Final residual\00", align 1
@.str.21 = private unnamed_addr constant [59 x i8] c"#********** Performance Summary (times in sec) ***********\00", align 1
@.str.22 = private unnamed_addr constant [13 x i8] c"Time Summary\00", align 1
@.str.27 = private unnamed_addr constant [14 x i8] c"FLOPS Summary\00", align 1
@.str.28 = private unnamed_addr constant [15 x i8] c"MFLOPS Summary\00", align 1
@_ZSt4cout = external global %"class.std::basic_ostream", align 8
@_ZStL8__ioinit.2 = internal global %"class.std::ios_base::Init" zeroinitializer, align 1
@.str.11 = private unnamed_addr constant [15 x i8] c"local_nrow > 0\00", align 1
@.str.1.12 = private unnamed_addr constant [20 x i8] c"generate_matrix.cpp\00", align 1
@__PRETTY_FUNCTION__._Z15generate_matrixiiiPP24HPC_Sparse_Matrix_STRUCTPPdS3_S3_ = private unnamed_addr constant [91 x i8] c"void generate_matrix(int, int, int, HPC_Sparse_Matrix **, double **, double **, double **)\00", align 1
@_ZStL8__ioinit.14 = internal global %"class.std::ios_base::Init" zeroinitializer, align 1
@.str.17 = private unnamed_addr constant [32 x i8] c"Reading matrix info from %s...\0A\00", align 1
@.str.1.18 = private unnamed_addr constant [2 x i8] c"r\00", align 1
@.str.2.19 = private unnamed_addr constant [29 x i8] c"Error: Cannot open file: %s\0A\00", align 1
@.str.3.20 = private unnamed_addr constant [3 x i8] c"%d\00", align 1
@.str.4.21 = private unnamed_addr constant [5 x i8] c"%lld\00", align 1
@.str.5.22 = private unnamed_addr constant [26 x i8] c"cur_local_row==local_nrow\00", align 1
@.str.6.23 = private unnamed_addr constant [17 x i8] c"read_HPC_row.cpp\00", align 1
@__PRETTY_FUNCTION__._Z12read_HPC_rowPcPP24HPC_Sparse_Matrix_STRUCTPPdS4_S4_ = private unnamed_addr constant [81 x i8] c"void read_HPC_row(char *, HPC_Sparse_Matrix **, double **, double **, double **)\00", align 1
@.str.10.24 = private unnamed_addr constant [7 x i8] c"%lf %d\00", align 1
@.str.12.25 = private unnamed_addr constant [12 x i8] c"%lf %lf %lf\00", align 1
@.str.29 = private unnamed_addr constant [9 x i8] c"mat0.dat\00", align 1
@.str.1.30 = private unnamed_addr constant [2 x i8] c"w\00", align 1
@.str.2.31 = private unnamed_addr constant [9 x i8] c"mat1.dat\00", align 1
@.str.3.32 = private unnamed_addr constant [9 x i8] c"mat2.dat\00", align 1
@.str.4.33 = private unnamed_addr constant [9 x i8] c"mat3.dat\00", align 1
@.str.5.34 = private unnamed_addr constant [16 x i8] c" %d %d %22.16e\0A\00", align 1
@_ZStL8__ioinit.36 = internal global %"class.std::ios_base::Init" zeroinitializer, align 1
@_ZStL8__ioinit.38 = internal global %"class.std::ios_base::Init" zeroinitializer, align 1
@.str.41 = private unnamed_addr constant [20 x i8] c"Initial Residual = \00", align 1
@.str.1.42 = private unnamed_addr constant [13 x i8] c"Iteration = \00", align 1
@.str.2.43 = private unnamed_addr constant [15 x i8] c"   Residual = \00", align 1
@_ZStL8__ioinit.49 = internal global %"class.std::ios_base::Init" zeroinitializer, align 1
@.str.52 = private unnamed_addr constant [1 x i8] zeroinitializer, align 1
@_ZTTNSt7__cxx1118basic_stringstreamIcSt11char_traitsIcESaIcEEE = external unnamed_addr constant [10 x i8*]
@_ZTVNSt7__cxx1115basic_stringbufIcSt11char_traitsIcESaIcEEE = external unnamed_addr constant [16 x i8*]
@_ZTVSt15basic_streambufIcSt11char_traitsIcEE = external unnamed_addr constant [16 x i8*]
@.str.4.59 = private unnamed_addr constant [42 x i8] c"basic_string::_M_construct null not valid\00", align 1
@.str.1.60 = private unnamed_addr constant [3 x i8] c": \00", align 1
@.str.6.61 = private unnamed_addr constant [21 x i8] c"basic_string::append\00", align 1
@.str.2.62 = private unnamed_addr constant [2 x i8] c"\0A\00", align 1
@.str.3.63 = private unnamed_addr constant [2 x i8] c" \00", align 1
@_ZStL8__ioinit.65 = internal global %"class.std::ios_base::Init" zeroinitializer, align 1
@.str.3.66 = private unnamed_addr constant [1 x i8] zeroinitializer, align 1
@.str.69 = private unnamed_addr constant [24 x i8] c"Mini-Application Name: \00", align 1
@.str.1.70 = private unnamed_addr constant [2 x i8] c"\0A\00", align 1
@.str.2.71 = private unnamed_addr constant [27 x i8] c"Mini-Application Version: \00", align 1
@.str.4.72 = private unnamed_addr constant [31 x i8] c"%04d_%02d_%02d__%02d_%02d_%02d\00", align 1
@.str.5.73 = private unnamed_addr constant [2 x i8] c"-\00", align 1
@.str.6.74 = private unnamed_addr constant [2 x i8] c"_\00", align 1
@.str.7.75 = private unnamed_addr constant [6 x i8] c".yaml\00", align 1
@.str.8.76 = private unnamed_addr constant [2 x i8] c".\00", align 1
@.str.9.77 = private unnamed_addr constant [7 x i8] c"mkdir \00", align 1
@.str.13.78 = private unnamed_addr constant [21 x i8] c"basic_string::append\00", align 1
@.str.10.79 = private unnamed_addr constant [2 x i8] c"/\00", align 1
@.str.11.80 = private unnamed_addr constant [3 x i8] c"./\00", align 1
@_ZTTSt14basic_ofstreamIcSt11char_traitsIcEE = external unnamed_addr constant [4 x i8*]

@_ZN12YAML_ElementC1ERKNSt7__cxx1112basic_stringIcSt11char_traitsIcESaIcEEES7_ = alias void (%class.YAML_Element*, %"class.std::__cxx11::basic_string"*, %"class.std::__cxx11::basic_string"*), void (%class.YAML_Element*, %"class.std::__cxx11::basic_string"*, %"class.std::__cxx11::basic_string"*)* @_ZN12YAML_ElementC2ERKNSt7__cxx1112basic_stringIcSt11char_traitsIcESaIcEEES7_
@_ZN12YAML_ElementD1Ev = alias void (%class.YAML_Element*), void (%class.YAML_Element*)* @_ZN12YAML_ElementD2Ev
@_ZN8YAML_DocC1ERKNSt7__cxx1112basic_stringIcSt11char_traitsIcESaIcEEES7_S7_S7_ = alias void (%class.YAML_Doc*, %"class.std::__cxx11::basic_string"*, %"class.std::__cxx11::basic_string"*, %"class.std::__cxx11::basic_string"*, %"class.std::__cxx11::basic_string"*), void (%class.YAML_Doc*, %"class.std::__cxx11::basic_string"*, %"class.std::__cxx11::basic_string"*, %"class.std::__cxx11::basic_string"*, %"class.std::__cxx11::basic_string"*)* @_ZN8YAML_DocC2ERKNSt7__cxx1112basic_stringIcSt11char_traitsIcESaIcEEES7_S7_S7_
@_ZN8YAML_DocD1Ev = alias void (%class.YAML_Doc*), void (%class.YAML_Doc*)* @_ZN8YAML_DocD2Ev

; Function Attrs: uwtable
define internal void @_GLOBAL__sub_I_main.cpp() #0 section ".text.startup" {
  tail call void @_ZNSt8ios_base4InitC1Ev(%"class.std::ios_base::Init"* nonnull @_ZStL8__ioinit)
  %1 = tail call i32 @__cxa_atexit(void (i8*)* bitcast (void (%"class.std::ios_base::Init"*)* @_ZNSt8ios_base4InitD1Ev to void (i8*)*), i8* getelementptr inbounds (%"class.std::ios_base::Init", %"class.std::ios_base::Init"* @_ZStL8__ioinit, i64 0, i32 0), i8* nonnull @__dso_handle) #2
  ret void
}

declare void @_ZNSt8ios_base4InitC1Ev(%"class.std::ios_base::Init"*) #1

declare void @_ZNSt8ios_base4InitD1Ev(%"class.std::ios_base::Init"*) #1

; Function Attrs: nounwind
declare i32 @__cxa_atexit(void (i8*)*, i8*, i8*) #2

; Function Attrs: norecurse uwtable
define i32 @main(i32 %argc, i8** nocapture readonly %argv) #3 personality i8* bitcast (i32 (...)* @__gxx_personality_v0 to i8*) {
  %__dnew.i.i.i.i260 = alloca i64, align 8
  %__dnew.i.i.i.i243 = alloca i64, align 8
  %__dnew.i.i.i.i157 = alloca i64, align 8
  %A = alloca %struct.HPC_Sparse_Matrix_STRUCT*, align 8
  %x = alloca double*, align 8
  %b = alloca double*, align 8
  %xexact = alloca double*, align 8
  %times = alloca [7 x double], align 16
  %niters = alloca i32, align 4
  %normr = alloca double, align 8
  %doc = alloca %class.YAML_Doc, align 8
  %1 = alloca %"class.std::__cxx11::basic_string", align 8
  %2 = alloca %"class.std::__cxx11::basic_string", align 8
  %3 = alloca %"class.std::__cxx11::basic_string", align 8
  %4 = alloca %"class.std::__cxx11::basic_string", align 8
  %5 = alloca %"class.std::__cxx11::basic_string", align 8
  %6 = alloca %"class.std::__cxx11::basic_string", align 8
  %7 = alloca %"class.std::__cxx11::basic_string", align 8
  %8 = alloca %"class.std::__cxx11::basic_string", align 8
  %9 = alloca %"class.std::__cxx11::basic_string", align 8
  %10 = alloca %"class.std::__cxx11::basic_string", align 8
  %11 = alloca %"class.std::__cxx11::basic_string", align 8
  %12 = alloca %"class.std::__cxx11::basic_string", align 8
  %13 = alloca %"class.std::__cxx11::basic_string", align 8
  %14 = alloca %"class.std::__cxx11::basic_string", align 8
  %15 = alloca %"class.std::__cxx11::basic_string", align 8
  %16 = alloca %"class.std::__cxx11::basic_string", align 8
  %17 = alloca %"class.std::__cxx11::basic_string", align 8
  %18 = alloca %"class.std::__cxx11::basic_string", align 8
  %19 = alloca %"class.std::__cxx11::basic_string", align 8
  %20 = alloca %"class.std::__cxx11::basic_string", align 8
  %21 = alloca %"class.std::__cxx11::basic_string", align 8
  %22 = alloca %"class.std::__cxx11::basic_string", align 8
  %23 = alloca %"class.std::__cxx11::basic_string", align 8
  %24 = alloca %"class.std::__cxx11::basic_string", align 8
  %25 = alloca %"class.std::__cxx11::basic_string", align 8
  %26 = alloca %"class.std::__cxx11::basic_string", align 8
  %27 = alloca %"class.std::__cxx11::basic_string", align 8
  %28 = alloca %"class.std::__cxx11::basic_string", align 8
  %29 = alloca %"class.std::__cxx11::basic_string", align 8
  %30 = alloca %"class.std::__cxx11::basic_string", align 8
  %31 = alloca %"class.std::__cxx11::basic_string", align 8
  %32 = alloca %"class.std::__cxx11::basic_string", align 8
  %33 = alloca %"class.std::__cxx11::basic_string", align 8
  %34 = alloca %"class.std::__cxx11::basic_string", align 8
  %35 = alloca %"class.std::__cxx11::basic_string", align 8
  %36 = alloca %"class.std::__cxx11::basic_string", align 8
  %37 = alloca %"class.std::__cxx11::basic_string", align 8
  %38 = alloca %"class.std::__cxx11::basic_string", align 8
  %39 = alloca %"class.std::__cxx11::basic_string", align 8
  %40 = alloca %"class.std::__cxx11::basic_string", align 8
  %41 = alloca %"class.std::__cxx11::basic_string", align 8
  %42 = alloca %"class.std::__cxx11::basic_string", align 8
  %43 = alloca %"class.std::__cxx11::basic_string", align 8
  %44 = alloca %"class.std::__cxx11::basic_string", align 8
  %45 = alloca %"class.std::__cxx11::basic_string", align 8
  %46 = alloca %"class.std::__cxx11::basic_string", align 8
  %47 = alloca %"class.std::__cxx11::basic_string", align 8
  %48 = alloca %"class.std::__cxx11::basic_string", align 8
  %49 = alloca %"class.std::__cxx11::basic_string", align 8
  %50 = alloca %"class.std::__cxx11::basic_string", align 8
  %51 = alloca %"class.std::__cxx11::basic_string", align 8
  %52 = alloca %"class.std::__cxx11::basic_string", align 8
  %53 = alloca %"class.std::__cxx11::basic_string", align 8
  %54 = alloca %"class.std::__cxx11::basic_string", align 8
  %yaml = alloca %"class.std::__cxx11::basic_string", align 8
  %55 = bitcast %struct.HPC_Sparse_Matrix_STRUCT** %A to i8*
  call void @llvm.lifetime.start(i64 8, i8* %55) #2
  %56 = bitcast double** %x to i8*
  call void @llvm.lifetime.start(i64 8, i8* %56) #2
  %57 = bitcast double** %b to i8*
  call void @llvm.lifetime.start(i64 8, i8* %57) #2
  %58 = bitcast double** %xexact to i8*
  call void @llvm.lifetime.start(i64 8, i8* %58) #2
  %59 = bitcast [7 x double]* %times to i8*
  call void @llvm.lifetime.start(i64 56, i8* %59) #2
  switch i32 %argc, label %60 [
    i32 4, label %228
    i32 2, label %228
  ]

; <label>:60                                      ; preds = %0
  %61 = tail call dereferenceable(272) %"class.std::basic_ostream"* @_ZSt16__ostream_insertIcSt11char_traitsIcEERSt13basic_ostreamIT_T0_ES6_PKS3_l(%"class.std::basic_ostream"* nonnull dereferenceable(272) @_ZSt4cerr, i8* nonnull getelementptr inbounds ([7 x i8], [7 x i8]* @.str, i64 0, i64 0), i64 6)
  %62 = load i8*, i8** bitcast (%"class.std::basic_ostream"* @_ZSt4cerr to i8**), align 8, !tbaa !1
  %63 = getelementptr i8, i8* %62, i64 -24
  %64 = bitcast i8* %63 to i64*
  %65 = load i64, i64* %64, align 8
  %66 = getelementptr inbounds i8, i8* bitcast (%"class.std::basic_ostream"* @_ZSt4cerr to i8*), i64 %65
  %67 = getelementptr inbounds i8, i8* %66, i64 240
  %68 = bitcast i8* %67 to %"class.std::ctype"**
  %69 = load %"class.std::ctype"*, %"class.std::ctype"** %68, align 8, !tbaa !4
  %70 = icmp eq %"class.std::ctype"* %69, null
  br i1 %70, label %71, label %_ZSt13__check_facetISt5ctypeIcEERKT_PS3_.exit377

; <label>:71                                      ; preds = %60
  tail call void @_ZSt16__throw_bad_castv() #17
  unreachable

_ZSt13__check_facetISt5ctypeIcEERKT_PS3_.exit377: ; preds = %60
  %72 = getelementptr inbounds %"class.std::ctype", %"class.std::ctype"* %69, i64 0, i32 8
  %73 = load i8, i8* %72, align 8, !tbaa !9
  %74 = icmp eq i8 %73, 0
  br i1 %74, label %78, label %75

; <label>:75                                      ; preds = %_ZSt13__check_facetISt5ctypeIcEERKT_PS3_.exit377
  %76 = getelementptr inbounds %"class.std::ctype", %"class.std::ctype"* %69, i64 0, i32 9, i64 10
  %77 = load i8, i8* %76, align 1, !tbaa !11
  br label %_ZNKSt5ctypeIcE5widenEc.exit360

; <label>:78                                      ; preds = %_ZSt13__check_facetISt5ctypeIcEERKT_PS3_.exit377
  tail call void @_ZNKSt5ctypeIcE13_M_widen_initEv(%"class.std::ctype"* nonnull %69)
  %79 = bitcast %"class.std::ctype"* %69 to i8 (%"class.std::ctype"*, i8)***
  %80 = load i8 (%"class.std::ctype"*, i8)**, i8 (%"class.std::ctype"*, i8)*** %79, align 8, !tbaa !1
  %81 = getelementptr inbounds i8 (%"class.std::ctype"*, i8)*, i8 (%"class.std::ctype"*, i8)** %80, i64 6
  %82 = load i8 (%"class.std::ctype"*, i8)*, i8 (%"class.std::ctype"*, i8)** %81, align 8
  %83 = tail call signext i8 %82(%"class.std::ctype"* nonnull %69, i8 signext 10)
  br label %_ZNKSt5ctypeIcE5widenEc.exit360

_ZNKSt5ctypeIcE5widenEc.exit360:                  ; preds = %78, %75
  %.0.i359 = phi i8 [ %77, %75 ], [ %83, %78 ]
  %84 = tail call dereferenceable(272) %"class.std::basic_ostream"* @_ZNSo3putEc(%"class.std::basic_ostream"* nonnull @_ZSt4cerr, i8 signext %.0.i359)
  %85 = tail call dereferenceable(272) %"class.std::basic_ostream"* @_ZNSo5flushEv(%"class.std::basic_ostream"* nonnull %84)
  %86 = tail call dereferenceable(272) %"class.std::basic_ostream"* @_ZSt16__ostream_insertIcSt11char_traitsIcEERSt13basic_ostreamIT_T0_ES6_PKS3_l(%"class.std::basic_ostream"* nonnull dereferenceable(272) %85, i8* nonnull getelementptr inbounds ([9 x i8], [9 x i8]* @.str.1, i64 0, i64 0), i64 8)
  %87 = load i8*, i8** %argv, align 8, !tbaa !12
  %88 = icmp eq i8* %87, null
  br i1 %88, label %89, label %102

; <label>:89                                      ; preds = %_ZNKSt5ctypeIcE5widenEc.exit360
  %90 = bitcast %"class.std::basic_ostream"* %85 to i8**
  %91 = load i8*, i8** %90, align 8, !tbaa !1
  %92 = getelementptr i8, i8* %91, i64 -24
  %93 = bitcast i8* %92 to i64*
  %94 = load i64, i64* %93, align 8
  %95 = bitcast %"class.std::basic_ostream"* %85 to i8*
  %96 = getelementptr inbounds i8, i8* %95, i64 %94
  %97 = bitcast i8* %96 to %"class.std::basic_ios"*
  %98 = getelementptr inbounds i8, i8* %96, i64 32
  %99 = bitcast i8* %98 to i32*
  %100 = load i32, i32* %99, align 8, !tbaa !13
  %101 = or i32 %100, 1
  tail call void @_ZNSt9basic_iosIcSt11char_traitsIcEE5clearESt12_Ios_Iostate(%"class.std::basic_ios"* %97, i32 %101)
  br label %_ZStlsISt11char_traitsIcEERSt13basic_ostreamIcT_ES5_PKc.exit

; <label>:102                                     ; preds = %_ZNKSt5ctypeIcE5widenEc.exit360
  %103 = tail call i64 @strlen(i8* nonnull %87) #2
  %104 = tail call dereferenceable(272) %"class.std::basic_ostream"* @_ZSt16__ostream_insertIcSt11char_traitsIcEERSt13basic_ostreamIT_T0_ES6_PKS3_l(%"class.std::basic_ostream"* nonnull dereferenceable(272) %85, i8* nonnull %87, i64 %103)
  %.pre = bitcast %"class.std::basic_ostream"* %85 to i8**
  %.pre614 = bitcast %"class.std::basic_ostream"* %85 to i8*
  br label %_ZStlsISt11char_traitsIcEERSt13basic_ostreamIcT_ES5_PKc.exit

_ZStlsISt11char_traitsIcEERSt13basic_ostreamIcT_ES5_PKc.exit: ; preds = %102, %89
  %.pre-phi615 = phi i8* [ %95, %89 ], [ %.pre614, %102 ]
  %.pre-phi = phi i8** [ %90, %89 ], [ %.pre, %102 ]
  %105 = tail call dereferenceable(272) %"class.std::basic_ostream"* @_ZSt16__ostream_insertIcSt11char_traitsIcEERSt13basic_ostreamIT_T0_ES6_PKS3_l(%"class.std::basic_ostream"* nonnull dereferenceable(272) %85, i8* nonnull getelementptr inbounds ([10 x i8], [10 x i8]* @.str.2, i64 0, i64 0), i64 9)
  %106 = load i8*, i8** %.pre-phi, align 8, !tbaa !1
  %107 = getelementptr i8, i8* %106, i64 -24
  %108 = bitcast i8* %107 to i64*
  %109 = load i64, i64* %108, align 8
  %110 = getelementptr inbounds i8, i8* %.pre-phi615, i64 %109
  %111 = getelementptr inbounds i8, i8* %110, i64 240
  %112 = bitcast i8* %111 to %"class.std::ctype"**
  %113 = load %"class.std::ctype"*, %"class.std::ctype"** %112, align 8, !tbaa !4
  %114 = icmp eq %"class.std::ctype"* %113, null
  br i1 %114, label %115, label %_ZSt13__check_facetISt5ctypeIcEERKT_PS3_.exit310

; <label>:115                                     ; preds = %_ZStlsISt11char_traitsIcEERSt13basic_ostreamIcT_ES5_PKc.exit
  tail call void @_ZSt16__throw_bad_castv() #17
  unreachable

_ZSt13__check_facetISt5ctypeIcEERKT_PS3_.exit310: ; preds = %_ZStlsISt11char_traitsIcEERSt13basic_ostreamIcT_ES5_PKc.exit
  %116 = getelementptr inbounds %"class.std::ctype", %"class.std::ctype"* %113, i64 0, i32 8
  %117 = load i8, i8* %116, align 8, !tbaa !9
  %118 = icmp eq i8 %117, 0
  br i1 %118, label %122, label %119

; <label>:119                                     ; preds = %_ZSt13__check_facetISt5ctypeIcEERKT_PS3_.exit310
  %120 = getelementptr inbounds %"class.std::ctype", %"class.std::ctype"* %113, i64 0, i32 9, i64 10
  %121 = load i8, i8* %120, align 1, !tbaa !11
  br label %_ZNKSt5ctypeIcE5widenEc.exit293

; <label>:122                                     ; preds = %_ZSt13__check_facetISt5ctypeIcEERKT_PS3_.exit310
  tail call void @_ZNKSt5ctypeIcE13_M_widen_initEv(%"class.std::ctype"* nonnull %113)
  %123 = bitcast %"class.std::ctype"* %113 to i8 (%"class.std::ctype"*, i8)***
  %124 = load i8 (%"class.std::ctype"*, i8)**, i8 (%"class.std::ctype"*, i8)*** %123, align 8, !tbaa !1
  %125 = getelementptr inbounds i8 (%"class.std::ctype"*, i8)*, i8 (%"class.std::ctype"*, i8)** %124, i64 6
  %126 = load i8 (%"class.std::ctype"*, i8)*, i8 (%"class.std::ctype"*, i8)** %125, align 8
  %127 = tail call signext i8 %126(%"class.std::ctype"* nonnull %113, i8 signext 10)
  br label %_ZNKSt5ctypeIcE5widenEc.exit293

_ZNKSt5ctypeIcE5widenEc.exit293:                  ; preds = %122, %119
  %.0.i292 = phi i8 [ %121, %119 ], [ %127, %122 ]
  %128 = tail call dereferenceable(272) %"class.std::basic_ostream"* @_ZNSo3putEc(%"class.std::basic_ostream"* nonnull %85, i8 signext %.0.i292)
  %129 = tail call dereferenceable(272) %"class.std::basic_ostream"* @_ZNSo5flushEv(%"class.std::basic_ostream"* nonnull %128)
  %130 = tail call dereferenceable(272) %"class.std::basic_ostream"* @_ZSt16__ostream_insertIcSt11char_traitsIcEERSt13basic_ostreamIT_T0_ES6_PKS3_l(%"class.std::basic_ostream"* nonnull dereferenceable(272) %129, i8* nonnull getelementptr inbounds ([64 x i8], [64 x i8]* @.str.3, i64 0, i64 0), i64 63)
  %131 = bitcast %"class.std::basic_ostream"* %129 to i8**
  %132 = load i8*, i8** %131, align 8, !tbaa !1
  %133 = getelementptr i8, i8* %132, i64 -24
  %134 = bitcast i8* %133 to i64*
  %135 = load i64, i64* %134, align 8
  %136 = bitcast %"class.std::basic_ostream"* %129 to i8*
  %137 = getelementptr inbounds i8, i8* %136, i64 %135
  %138 = getelementptr inbounds i8, i8* %137, i64 240
  %139 = bitcast i8* %138 to %"class.std::ctype"**
  %140 = load %"class.std::ctype"*, %"class.std::ctype"** %139, align 8, !tbaa !4
  %141 = icmp eq %"class.std::ctype"* %140, null
  br i1 %141, label %142, label %_ZSt13__check_facetISt5ctypeIcEERKT_PS3_.exit259

; <label>:142                                     ; preds = %_ZNKSt5ctypeIcE5widenEc.exit293
  tail call void @_ZSt16__throw_bad_castv() #17
  unreachable

_ZSt13__check_facetISt5ctypeIcEERKT_PS3_.exit259: ; preds = %_ZNKSt5ctypeIcE5widenEc.exit293
  %143 = getelementptr inbounds %"class.std::ctype", %"class.std::ctype"* %140, i64 0, i32 8
  %144 = load i8, i8* %143, align 8, !tbaa !9
  %145 = icmp eq i8 %144, 0
  br i1 %145, label %149, label %146

; <label>:146                                     ; preds = %_ZSt13__check_facetISt5ctypeIcEERKT_PS3_.exit259
  %147 = getelementptr inbounds %"class.std::ctype", %"class.std::ctype"* %140, i64 0, i32 9, i64 10
  %148 = load i8, i8* %147, align 1, !tbaa !11
  br label %_ZNKSt5ctypeIcE5widenEc.exit242

; <label>:149                                     ; preds = %_ZSt13__check_facetISt5ctypeIcEERKT_PS3_.exit259
  tail call void @_ZNKSt5ctypeIcE13_M_widen_initEv(%"class.std::ctype"* nonnull %140)
  %150 = bitcast %"class.std::ctype"* %140 to i8 (%"class.std::ctype"*, i8)***
  %151 = load i8 (%"class.std::ctype"*, i8)**, i8 (%"class.std::ctype"*, i8)*** %150, align 8, !tbaa !1
  %152 = getelementptr inbounds i8 (%"class.std::ctype"*, i8)*, i8 (%"class.std::ctype"*, i8)** %151, i64 6
  %153 = load i8 (%"class.std::ctype"*, i8)*, i8 (%"class.std::ctype"*, i8)** %152, align 8
  %154 = tail call signext i8 %153(%"class.std::ctype"* nonnull %140, i8 signext 10)
  br label %_ZNKSt5ctypeIcE5widenEc.exit242

_ZNKSt5ctypeIcE5widenEc.exit242:                  ; preds = %149, %146
  %.0.i241 = phi i8 [ %148, %146 ], [ %154, %149 ]
  %155 = tail call dereferenceable(272) %"class.std::basic_ostream"* @_ZNSo3putEc(%"class.std::basic_ostream"* nonnull %129, i8 signext %.0.i241)
  %156 = tail call dereferenceable(272) %"class.std::basic_ostream"* @_ZNSo5flushEv(%"class.std::basic_ostream"* nonnull %155)
  %157 = tail call dereferenceable(272) %"class.std::basic_ostream"* @_ZSt16__ostream_insertIcSt11char_traitsIcEERSt13basic_ostreamIT_T0_ES6_PKS3_l(%"class.std::basic_ostream"* nonnull dereferenceable(272) %156, i8* nonnull getelementptr inbounds ([9 x i8], [9 x i8]* @.str.4, i64 0, i64 0), i64 8)
  %158 = load i8*, i8** %argv, align 8, !tbaa !12
  %159 = icmp eq i8* %158, null
  br i1 %159, label %160, label %173

; <label>:160                                     ; preds = %_ZNKSt5ctypeIcE5widenEc.exit242
  %161 = bitcast %"class.std::basic_ostream"* %156 to i8**
  %162 = load i8*, i8** %161, align 8, !tbaa !1
  %163 = getelementptr i8, i8* %162, i64 -24
  %164 = bitcast i8* %163 to i64*
  %165 = load i64, i64* %164, align 8
  %166 = bitcast %"class.std::basic_ostream"* %156 to i8*
  %167 = getelementptr inbounds i8, i8* %166, i64 %165
  %168 = bitcast i8* %167 to %"class.std::basic_ios"*
  %169 = getelementptr inbounds i8, i8* %167, i64 32
  %170 = bitcast i8* %169 to i32*
  %171 = load i32, i32* %170, align 8, !tbaa !13
  %172 = or i32 %171, 1
  tail call void @_ZNSt9basic_iosIcSt11char_traitsIcEE5clearESt12_Ios_Iostate(%"class.std::basic_ios"* %168, i32 %172)
  br label %_ZStlsISt11char_traitsIcEERSt13basic_ostreamIcT_ES5_PKc.exit82

; <label>:173                                     ; preds = %_ZNKSt5ctypeIcE5widenEc.exit242
  %174 = tail call i64 @strlen(i8* nonnull %158) #2
  %175 = tail call dereferenceable(272) %"class.std::basic_ostream"* @_ZSt16__ostream_insertIcSt11char_traitsIcEERSt13basic_ostreamIT_T0_ES6_PKS3_l(%"class.std::basic_ostream"* nonnull dereferenceable(272) %156, i8* nonnull %158, i64 %174)
  %.pre616 = bitcast %"class.std::basic_ostream"* %156 to i8**
  %.pre618 = bitcast %"class.std::basic_ostream"* %156 to i8*
  br label %_ZStlsISt11char_traitsIcEERSt13basic_ostreamIcT_ES5_PKc.exit82

_ZStlsISt11char_traitsIcEERSt13basic_ostreamIcT_ES5_PKc.exit82: ; preds = %173, %160
  %.pre-phi619 = phi i8* [ %166, %160 ], [ %.pre618, %173 ]
  %.pre-phi617 = phi i8** [ %161, %160 ], [ %.pre616, %173 ]
  %176 = tail call dereferenceable(272) %"class.std::basic_ostream"* @_ZSt16__ostream_insertIcSt11char_traitsIcEERSt13basic_ostreamIT_T0_ES6_PKS3_l(%"class.std::basic_ostream"* nonnull dereferenceable(272) %156, i8* nonnull getelementptr inbounds ([16 x i8], [16 x i8]* @.str.5, i64 0, i64 0), i64 15)
  %177 = load i8*, i8** %.pre-phi617, align 8, !tbaa !1
  %178 = getelementptr i8, i8* %177, i64 -24
  %179 = bitcast i8* %178 to i64*
  %180 = load i64, i64* %179, align 8
  %181 = getelementptr inbounds i8, i8* %.pre-phi619, i64 %180
  %182 = getelementptr inbounds i8, i8* %181, i64 240
  %183 = bitcast i8* %182 to %"class.std::ctype"**
  %184 = load %"class.std::ctype"*, %"class.std::ctype"** %183, align 8, !tbaa !4
  %185 = icmp eq %"class.std::ctype"* %184, null
  br i1 %185, label %186, label %_ZSt13__check_facetISt5ctypeIcEERKT_PS3_.exit192

; <label>:186                                     ; preds = %_ZStlsISt11char_traitsIcEERSt13basic_ostreamIcT_ES5_PKc.exit82
  tail call void @_ZSt16__throw_bad_castv() #17
  unreachable

_ZSt13__check_facetISt5ctypeIcEERKT_PS3_.exit192: ; preds = %_ZStlsISt11char_traitsIcEERSt13basic_ostreamIcT_ES5_PKc.exit82
  %187 = getelementptr inbounds %"class.std::ctype", %"class.std::ctype"* %184, i64 0, i32 8
  %188 = load i8, i8* %187, align 8, !tbaa !9
  %189 = icmp eq i8 %188, 0
  br i1 %189, label %193, label %190

; <label>:190                                     ; preds = %_ZSt13__check_facetISt5ctypeIcEERKT_PS3_.exit192
  %191 = getelementptr inbounds %"class.std::ctype", %"class.std::ctype"* %184, i64 0, i32 9, i64 10
  %192 = load i8, i8* %191, align 1, !tbaa !11
  br label %_ZNKSt5ctypeIcE5widenEc.exit175

; <label>:193                                     ; preds = %_ZSt13__check_facetISt5ctypeIcEERKT_PS3_.exit192
  tail call void @_ZNKSt5ctypeIcE13_M_widen_initEv(%"class.std::ctype"* nonnull %184)
  %194 = bitcast %"class.std::ctype"* %184 to i8 (%"class.std::ctype"*, i8)***
  %195 = load i8 (%"class.std::ctype"*, i8)**, i8 (%"class.std::ctype"*, i8)*** %194, align 8, !tbaa !1
  %196 = getelementptr inbounds i8 (%"class.std::ctype"*, i8)*, i8 (%"class.std::ctype"*, i8)** %195, i64 6
  %197 = load i8 (%"class.std::ctype"*, i8)*, i8 (%"class.std::ctype"*, i8)** %196, align 8
  %198 = tail call signext i8 %197(%"class.std::ctype"* nonnull %184, i8 signext 10)
  br label %_ZNKSt5ctypeIcE5widenEc.exit175

_ZNKSt5ctypeIcE5widenEc.exit175:                  ; preds = %193, %190
  %.0.i174 = phi i8 [ %192, %190 ], [ %198, %193 ]
  %199 = tail call dereferenceable(272) %"class.std::basic_ostream"* @_ZNSo3putEc(%"class.std::basic_ostream"* nonnull %156, i8 signext %.0.i174)
  %200 = tail call dereferenceable(272) %"class.std::basic_ostream"* @_ZNSo5flushEv(%"class.std::basic_ostream"* nonnull %199)
  %201 = tail call dereferenceable(272) %"class.std::basic_ostream"* @_ZSt16__ostream_insertIcSt11char_traitsIcEERSt13basic_ostreamIT_T0_ES6_PKS3_l(%"class.std::basic_ostream"* nonnull dereferenceable(272) %200, i8* nonnull getelementptr inbounds ([79 x i8], [79 x i8]* @.str.6, i64 0, i64 0), i64 78)
  %202 = bitcast %"class.std::basic_ostream"* %200 to i8**
  %203 = load i8*, i8** %202, align 8, !tbaa !1
  %204 = getelementptr i8, i8* %203, i64 -24
  %205 = bitcast i8* %204 to i64*
  %206 = load i64, i64* %205, align 8
  %207 = bitcast %"class.std::basic_ostream"* %200 to i8*
  %208 = getelementptr inbounds i8, i8* %207, i64 %206
  %209 = getelementptr inbounds i8, i8* %208, i64 240
  %210 = bitcast i8* %209 to %"class.std::ctype"**
  %211 = load %"class.std::ctype"*, %"class.std::ctype"** %210, align 8, !tbaa !4
  %212 = icmp eq %"class.std::ctype"* %211, null
  br i1 %212, label %213, label %_ZSt13__check_facetISt5ctypeIcEERKT_PS3_.exit149

; <label>:213                                     ; preds = %_ZNKSt5ctypeIcE5widenEc.exit175
  tail call void @_ZSt16__throw_bad_castv() #17
  unreachable

_ZSt13__check_facetISt5ctypeIcEERKT_PS3_.exit149: ; preds = %_ZNKSt5ctypeIcE5widenEc.exit175
  %214 = getelementptr inbounds %"class.std::ctype", %"class.std::ctype"* %211, i64 0, i32 8
  %215 = load i8, i8* %214, align 8, !tbaa !9
  %216 = icmp eq i8 %215, 0
  br i1 %216, label %220, label %217

; <label>:217                                     ; preds = %_ZSt13__check_facetISt5ctypeIcEERKT_PS3_.exit149
  %218 = getelementptr inbounds %"class.std::ctype", %"class.std::ctype"* %211, i64 0, i32 9, i64 10
  %219 = load i8, i8* %218, align 1, !tbaa !11
  br label %_ZNKSt5ctypeIcE5widenEc.exit147

; <label>:220                                     ; preds = %_ZSt13__check_facetISt5ctypeIcEERKT_PS3_.exit149
  tail call void @_ZNKSt5ctypeIcE13_M_widen_initEv(%"class.std::ctype"* nonnull %211)
  %221 = bitcast %"class.std::ctype"* %211 to i8 (%"class.std::ctype"*, i8)***
  %222 = load i8 (%"class.std::ctype"*, i8)**, i8 (%"class.std::ctype"*, i8)*** %221, align 8, !tbaa !1
  %223 = getelementptr inbounds i8 (%"class.std::ctype"*, i8)*, i8 (%"class.std::ctype"*, i8)** %222, i64 6
  %224 = load i8 (%"class.std::ctype"*, i8)*, i8 (%"class.std::ctype"*, i8)** %223, align 8
  %225 = tail call signext i8 %224(%"class.std::ctype"* nonnull %211, i8 signext 10)
  br label %_ZNKSt5ctypeIcE5widenEc.exit147

_ZNKSt5ctypeIcE5widenEc.exit147:                  ; preds = %220, %217
  %.0.i146 = phi i8 [ %219, %217 ], [ %225, %220 ]
  %226 = tail call dereferenceable(272) %"class.std::basic_ostream"* @_ZNSo3putEc(%"class.std::basic_ostream"* nonnull %200, i8 signext %.0.i146)
  %227 = tail call dereferenceable(272) %"class.std::basic_ostream"* @_ZNSo5flushEv(%"class.std::basic_ostream"* nonnull %226)
  tail call void @exit(i32 1) #18
  unreachable

; <label>:228                                     ; preds = %0, %0
  %229 = icmp eq i32 %argc, 4
  %230 = getelementptr inbounds i8*, i8** %argv, i64 1
  %231 = load i8*, i8** %230, align 8, !tbaa !12
  br i1 %229, label %232, label %243

; <label>:232                                     ; preds = %228
  %233 = tail call i64 @strtol(i8* nocapture nonnull %231, i8** null, i32 10) #2
  %234 = trunc i64 %233 to i32
  %235 = getelementptr inbounds i8*, i8** %argv, i64 2
  %236 = load i8*, i8** %235, align 8, !tbaa !12
  %237 = tail call i64 @strtol(i8* nocapture nonnull %236, i8** null, i32 10) #2
  %238 = trunc i64 %237 to i32
  %239 = getelementptr inbounds i8*, i8** %argv, i64 3
  %240 = load i8*, i8** %239, align 8, !tbaa !12
  %241 = tail call i64 @strtol(i8* nocapture nonnull %240, i8** null, i32 10) #2
  %242 = trunc i64 %241 to i32
  call void @_Z15generate_matrixiiiPP24HPC_Sparse_Matrix_STRUCTPPdS3_S3_(i32 %234, i32 %238, i32 %242, %struct.HPC_Sparse_Matrix_STRUCT** nonnull %A, double** nonnull %x, double** nonnull %b, double** nonnull %xexact)
  br label %244

; <label>:243                                     ; preds = %228
  call void @_Z12read_HPC_rowPcPP24HPC_Sparse_Matrix_STRUCTPPdS4_S4_(i8* %231, %struct.HPC_Sparse_Matrix_STRUCT** nonnull %A, double** nonnull %x, double** nonnull %b, double** nonnull %xexact)
  br label %244

; <label>:244                                     ; preds = %243, %232
  %nz.0 = phi i32 [ %242, %232 ], [ undef, %243 ]
  %ny.0 = phi i32 [ %238, %232 ], [ undef, %243 ]
  %nx.0 = phi i32 [ %234, %232 ], [ undef, %243 ]
  %245 = call double @_Z7mytimerv()
  %246 = bitcast i32* %niters to i8*
  call void @llvm.lifetime.start(i64 4, i8* %246) #2
  store i32 0, i32* %niters, align 4, !tbaa !21
  %247 = bitcast double* %normr to i8*
  call void @llvm.lifetime.start(i64 8, i8* %247) #2
  store double 0.000000e+00, double* %normr, align 8, !tbaa !22
  %248 = load %struct.HPC_Sparse_Matrix_STRUCT*, %struct.HPC_Sparse_Matrix_STRUCT** %A, align 8, !tbaa !12
  %249 = load double*, double** %b, align 8, !tbaa !12
  %250 = load double*, double** %x, align 8, !tbaa !12
  %251 = getelementptr inbounds [7 x double], [7 x double]* %times, i64 0, i64 0
  %252 = call i32 @_Z5HPCCGP24HPC_Sparse_Matrix_STRUCTPKdPdidRiRdS3_(%struct.HPC_Sparse_Matrix_STRUCT* %248, double* %249, double* %250, i32 150, double 0.000000e+00, i32* nonnull dereferenceable(4) %niters, double* nonnull dereferenceable(8) %normr, double* %251)
  %253 = icmp eq i32 %252, 0
  br i1 %253, label %._crit_edge.i.i.i.i, label %254

; <label>:254                                     ; preds = %244
  %255 = call dereferenceable(272) %"class.std::basic_ostream"* @_ZSt16__ostream_insertIcSt11char_traitsIcEERSt13basic_ostreamIT_T0_ES6_PKS3_l(%"class.std::basic_ostream"* nonnull dereferenceable(272) @_ZSt4cerr, i8* nonnull getelementptr inbounds ([22 x i8], [22 x i8]* @.str.7, i64 0, i64 0), i64 21)
  %256 = call dereferenceable(272) %"class.std::basic_ostream"* @_ZNSolsEi(%"class.std::basic_ostream"* nonnull @_ZSt4cerr, i32 %252)
  %257 = call dereferenceable(272) %"class.std::basic_ostream"* @_ZSt16__ostream_insertIcSt11char_traitsIcEERSt13basic_ostreamIT_T0_ES6_PKS3_l(%"class.std::basic_ostream"* nonnull dereferenceable(272) %256, i8* nonnull getelementptr inbounds ([3 x i8], [3 x i8]* @.str.8, i64 0, i64 0), i64 2)
  %258 = bitcast %"class.std::basic_ostream"* %256 to i8**
  %259 = load i8*, i8** %258, align 8, !tbaa !1
  %260 = getelementptr i8, i8* %259, i64 -24
  %261 = bitcast i8* %260 to i64*
  %262 = load i64, i64* %261, align 8
  %263 = bitcast %"class.std::basic_ostream"* %256 to i8*
  %264 = getelementptr inbounds i8, i8* %263, i64 %262
  %265 = getelementptr inbounds i8, i8* %264, i64 240
  %266 = bitcast i8* %265 to %"class.std::ctype"**
  %267 = load %"class.std::ctype"*, %"class.std::ctype"** %266, align 8, !tbaa !4
  %268 = icmp eq %"class.std::ctype"* %267, null
  br i1 %268, label %269, label %_ZSt13__check_facetISt5ctypeIcEERKT_PS3_.exit

; <label>:269                                     ; preds = %254
  call void @_ZSt16__throw_bad_castv() #17
  unreachable

_ZSt13__check_facetISt5ctypeIcEERKT_PS3_.exit:    ; preds = %254
  %270 = getelementptr inbounds %"class.std::ctype", %"class.std::ctype"* %267, i64 0, i32 8
  %271 = load i8, i8* %270, align 8, !tbaa !9
  %272 = icmp eq i8 %271, 0
  br i1 %272, label %276, label %273

; <label>:273                                     ; preds = %_ZSt13__check_facetISt5ctypeIcEERKT_PS3_.exit
  %274 = getelementptr inbounds %"class.std::ctype", %"class.std::ctype"* %267, i64 0, i32 9, i64 10
  %275 = load i8, i8* %274, align 1, !tbaa !11
  br label %_ZNKSt5ctypeIcE5widenEc.exit

; <label>:276                                     ; preds = %_ZSt13__check_facetISt5ctypeIcEERKT_PS3_.exit
  call void @_ZNKSt5ctypeIcE13_M_widen_initEv(%"class.std::ctype"* nonnull %267)
  %277 = bitcast %"class.std::ctype"* %267 to i8 (%"class.std::ctype"*, i8)***
  %278 = load i8 (%"class.std::ctype"*, i8)**, i8 (%"class.std::ctype"*, i8)*** %277, align 8, !tbaa !1
  %279 = getelementptr inbounds i8 (%"class.std::ctype"*, i8)*, i8 (%"class.std::ctype"*, i8)** %278, i64 6
  %280 = load i8 (%"class.std::ctype"*, i8)*, i8 (%"class.std::ctype"*, i8)** %279, align 8
  %281 = call signext i8 %280(%"class.std::ctype"* nonnull %267, i8 signext 10)
  br label %_ZNKSt5ctypeIcE5widenEc.exit

_ZNKSt5ctypeIcE5widenEc.exit:                     ; preds = %276, %273
  %.0.i = phi i8 [ %275, %273 ], [ %281, %276 ]
  %282 = call dereferenceable(272) %"class.std::basic_ostream"* @_ZNSo3putEc(%"class.std::basic_ostream"* nonnull %256, i8 signext %.0.i)
  %283 = call dereferenceable(272) %"class.std::basic_ostream"* @_ZNSo5flushEv(%"class.std::basic_ostream"* nonnull %282)
  br label %._crit_edge.i.i.i.i

._crit_edge.i.i.i.i:                              ; preds = %_ZNKSt5ctypeIcE5widenEc.exit, %244
  %284 = load i32, i32* %niters, align 4, !tbaa !21
  %285 = sitofp i32 %284 to double
  %286 = getelementptr inbounds %struct.HPC_Sparse_Matrix_STRUCT, %struct.HPC_Sparse_Matrix_STRUCT* %248, i64 0, i32 3
  %287 = load i32, i32* %286, align 8, !tbaa !24
  %288 = sitofp i32 %287 to double
  %289 = getelementptr inbounds %struct.HPC_Sparse_Matrix_STRUCT, %struct.HPC_Sparse_Matrix_STRUCT* %248, i64 0, i32 4
  %290 = load i64, i64* %289, align 8, !tbaa !27
  %291 = sitofp i64 %290 to double
  %292 = fmul double %285, 4.000000e+00
  %293 = fmul double %292, %288
  %294 = fmul double %285, 6.000000e+00
  %295 = fmul double %294, %288
  %296 = fmul double %285, 2.000000e+00
  %297 = fmul double %296, %291
  %298 = fadd double %293, %295
  %299 = fadd double %298, %297
  %300 = bitcast %class.YAML_Doc* %doc to i8*
  call void @llvm.lifetime.start(i64 216, i8* %300) #2
  %301 = getelementptr inbounds %"class.std::__cxx11::basic_string", %"class.std::__cxx11::basic_string"* %1, i64 0, i32 2
  %302 = bitcast %"class.std::__cxx11::basic_string"* %1 to %union.anon**
  store %union.anon* %301, %union.anon** %302, align 8, !tbaa !28
  %303 = bitcast %union.anon* %301 to i8*
  call void @llvm.memcpy.p0i8.p0i8.i64(i8* %303, i8* nonnull getelementptr inbounds ([6 x i8], [6 x i8]* @.str.9, i64 0, i64 0), i64 5, i32 1, i1 false) #2
  %304 = getelementptr inbounds %"class.std::__cxx11::basic_string", %"class.std::__cxx11::basic_string"* %1, i64 0, i32 1
  store i64 5, i64* %304, align 8, !tbaa !30
  %305 = getelementptr inbounds i8, i8* %303, i64 5
  store i8 0, i8* %305, align 1, !tbaa !11
  %306 = getelementptr inbounds %"class.std::__cxx11::basic_string", %"class.std::__cxx11::basic_string"* %2, i64 0, i32 2
  %307 = bitcast %"class.std::__cxx11::basic_string"* %2 to %union.anon**
  store %union.anon* %306, %union.anon** %307, align 8, !tbaa !28
  %308 = bitcast %union.anon* %306 to i8*
  call void @llvm.memcpy.p0i8.p0i8.i64(i8* %308, i8* nonnull getelementptr inbounds ([4 x i8], [4 x i8]* @.str.10, i64 0, i64 0), i64 3, i32 1, i1 false) #2
  %309 = getelementptr inbounds %"class.std::__cxx11::basic_string", %"class.std::__cxx11::basic_string"* %2, i64 0, i32 1
  store i64 3, i64* %309, align 8, !tbaa !30
  %310 = getelementptr inbounds i8, i8* %308, i64 3
  store i8 0, i8* %310, align 1, !tbaa !11
  %311 = getelementptr inbounds %"class.std::__cxx11::basic_string", %"class.std::__cxx11::basic_string"* %3, i64 0, i32 2
  %312 = bitcast %"class.std::__cxx11::basic_string"* %3 to %union.anon**
  store %union.anon* %311, %union.anon** %312, align 8, !tbaa !28
  %313 = bitcast %union.anon* %311 to i8*
  %314 = getelementptr inbounds %"class.std::__cxx11::basic_string", %"class.std::__cxx11::basic_string"* %3, i64 0, i32 1
  store i64 0, i64* %314, align 8, !tbaa !30
  store i8 0, i8* %313, align 8, !tbaa !11
  %315 = getelementptr inbounds %"class.std::__cxx11::basic_string", %"class.std::__cxx11::basic_string"* %4, i64 0, i32 2
  %316 = bitcast %"class.std::__cxx11::basic_string"* %4 to %union.anon**
  store %union.anon* %315, %union.anon** %316, align 8, !tbaa !28
  %317 = bitcast %union.anon* %315 to i8*
  %318 = getelementptr inbounds %"class.std::__cxx11::basic_string", %"class.std::__cxx11::basic_string"* %4, i64 0, i32 1
  store i64 0, i64* %318, align 8, !tbaa !30
  store i8 0, i8* %317, align 8, !tbaa !11
  invoke void @_ZN8YAML_DocC1ERKNSt7__cxx1112basic_stringIcSt11char_traitsIcESaIcEEES7_S7_S7_(%class.YAML_Doc* nonnull %doc, %"class.std::__cxx11::basic_string"* nonnull dereferenceable(32) %1, %"class.std::__cxx11::basic_string"* nonnull dereferenceable(32) %2, %"class.std::__cxx11::basic_string"* nonnull dereferenceable(32) %3, %"class.std::__cxx11::basic_string"* nonnull dereferenceable(32) %4)
          to label %319 unwind label %888

; <label>:319                                     ; preds = %._crit_edge.i.i.i.i
  %320 = getelementptr inbounds %"class.std::__cxx11::basic_string", %"class.std::__cxx11::basic_string"* %4, i64 0, i32 0, i32 0
  %321 = load i8*, i8** %320, align 8, !tbaa !32
  %322 = icmp eq i8* %321, %317
  br i1 %322, label %_ZNSt7__cxx1112basic_stringIcSt11char_traitsIcESaIcEED2Ev.exit, label %323

; <label>:323                                     ; preds = %319
  call void @_ZdlPv(i8* %321) #2
  br label %_ZNSt7__cxx1112basic_stringIcSt11char_traitsIcESaIcEED2Ev.exit

_ZNSt7__cxx1112basic_stringIcSt11char_traitsIcESaIcEED2Ev.exit: ; preds = %323, %319
  %324 = getelementptr inbounds %"class.std::__cxx11::basic_string", %"class.std::__cxx11::basic_string"* %3, i64 0, i32 0, i32 0
  %325 = load i8*, i8** %324, align 8, !tbaa !32
  %326 = icmp eq i8* %325, %313
  br i1 %326, label %_ZNSt7__cxx1112basic_stringIcSt11char_traitsIcESaIcEED2Ev.exit104, label %327

; <label>:327                                     ; preds = %_ZNSt7__cxx1112basic_stringIcSt11char_traitsIcESaIcEED2Ev.exit
  call void @_ZdlPv(i8* %325) #2
  br label %_ZNSt7__cxx1112basic_stringIcSt11char_traitsIcESaIcEED2Ev.exit104

_ZNSt7__cxx1112basic_stringIcSt11char_traitsIcESaIcEED2Ev.exit104: ; preds = %327, %_ZNSt7__cxx1112basic_stringIcSt11char_traitsIcESaIcEED2Ev.exit
  %328 = getelementptr inbounds %"class.std::__cxx11::basic_string", %"class.std::__cxx11::basic_string"* %2, i64 0, i32 0, i32 0
  %329 = load i8*, i8** %328, align 8, !tbaa !32
  %330 = icmp eq i8* %329, %308
  br i1 %330, label %_ZNSt7__cxx1112basic_stringIcSt11char_traitsIcESaIcEED2Ev.exit105, label %331

; <label>:331                                     ; preds = %_ZNSt7__cxx1112basic_stringIcSt11char_traitsIcESaIcEED2Ev.exit104
  call void @_ZdlPv(i8* %329) #2
  br label %_ZNSt7__cxx1112basic_stringIcSt11char_traitsIcESaIcEED2Ev.exit105

_ZNSt7__cxx1112basic_stringIcSt11char_traitsIcESaIcEED2Ev.exit105: ; preds = %331, %_ZNSt7__cxx1112basic_stringIcSt11char_traitsIcESaIcEED2Ev.exit104
  %332 = getelementptr inbounds %"class.std::__cxx11::basic_string", %"class.std::__cxx11::basic_string"* %1, i64 0, i32 0, i32 0
  %333 = load i8*, i8** %332, align 8, !tbaa !32
  %334 = icmp eq i8* %333, %303
  br i1 %334, label %_ZNSt7__cxx1112basic_stringIcSt11char_traitsIcESaIcEED2Ev.exit106, label %335

; <label>:335                                     ; preds = %_ZNSt7__cxx1112basic_stringIcSt11char_traitsIcESaIcEED2Ev.exit105
  call void @_ZdlPv(i8* %333) #2
  br label %_ZNSt7__cxx1112basic_stringIcSt11char_traitsIcESaIcEED2Ev.exit106

_ZNSt7__cxx1112basic_stringIcSt11char_traitsIcESaIcEED2Ev.exit106: ; preds = %335, %_ZNSt7__cxx1112basic_stringIcSt11char_traitsIcESaIcEED2Ev.exit105
  %336 = getelementptr inbounds %class.YAML_Doc, %class.YAML_Doc* %doc, i64 0, i32 0
  %337 = getelementptr inbounds %"class.std::__cxx11::basic_string", %"class.std::__cxx11::basic_string"* %5, i64 0, i32 2
  %338 = bitcast %"class.std::__cxx11::basic_string"* %5 to %union.anon**
  store %union.anon* %337, %union.anon** %338, align 8, !tbaa !28
  %339 = bitcast %union.anon* %337 to i8*
  call void @llvm.memcpy.p0i8.p0i8.i64(i8* %339, i8* nonnull getelementptr inbounds ([12 x i8], [12 x i8]* @.str.12, i64 0, i64 0), i64 11, i32 1, i1 false) #2
  %340 = getelementptr inbounds %"class.std::__cxx11::basic_string", %"class.std::__cxx11::basic_string"* %5, i64 0, i32 1
  store i64 11, i64* %340, align 8, !tbaa !30
  %341 = getelementptr inbounds %"class.std::__cxx11::basic_string", %"class.std::__cxx11::basic_string"* %5, i64 0, i32 2, i32 1, i64 3
  store i8 0, i8* %341, align 1, !tbaa !11
  %342 = getelementptr inbounds %"class.std::__cxx11::basic_string", %"class.std::__cxx11::basic_string"* %6, i64 0, i32 2
  %343 = bitcast %"class.std::__cxx11::basic_string"* %6 to %union.anon**
  store %union.anon* %342, %union.anon** %343, align 8, !tbaa !28
  %344 = bitcast %union.anon* %342 to i8*
  %345 = getelementptr inbounds %"class.std::__cxx11::basic_string", %"class.std::__cxx11::basic_string"* %6, i64 0, i32 1
  store i64 0, i64* %345, align 8, !tbaa !30
  store i8 0, i8* %344, align 8, !tbaa !11
  %346 = invoke %class.YAML_Element* @_ZN12YAML_Element3addERKNSt7__cxx1112basic_stringIcSt11char_traitsIcESaIcEEES7_(%class.YAML_Element* %336, %"class.std::__cxx11::basic_string"* nonnull dereferenceable(32) %5, %"class.std::__cxx11::basic_string"* nonnull dereferenceable(32) %6)
          to label %347 unwind label %908

; <label>:347                                     ; preds = %_ZNSt7__cxx1112basic_stringIcSt11char_traitsIcESaIcEED2Ev.exit106
  %348 = getelementptr inbounds %"class.std::__cxx11::basic_string", %"class.std::__cxx11::basic_string"* %6, i64 0, i32 0, i32 0
  %349 = load i8*, i8** %348, align 8, !tbaa !32
  %350 = icmp eq i8* %349, %344
  br i1 %350, label %_ZNSt7__cxx1112basic_stringIcSt11char_traitsIcESaIcEED2Ev.exit121, label %351

; <label>:351                                     ; preds = %347
  call void @_ZdlPv(i8* %349) #2
  br label %_ZNSt7__cxx1112basic_stringIcSt11char_traitsIcESaIcEED2Ev.exit121

_ZNSt7__cxx1112basic_stringIcSt11char_traitsIcESaIcEED2Ev.exit121: ; preds = %351, %347
  %352 = getelementptr inbounds %"class.std::__cxx11::basic_string", %"class.std::__cxx11::basic_string"* %5, i64 0, i32 0, i32 0
  %353 = load i8*, i8** %352, align 8, !tbaa !32
  %354 = icmp eq i8* %353, %339
  br i1 %354, label %_ZNSt7__cxx1112basic_stringIcSt11char_traitsIcESaIcEED2Ev.exit122, label %355

; <label>:355                                     ; preds = %_ZNSt7__cxx1112basic_stringIcSt11char_traitsIcESaIcEED2Ev.exit121
  call void @_ZdlPv(i8* %353) #2
  br label %_ZNSt7__cxx1112basic_stringIcSt11char_traitsIcESaIcEED2Ev.exit122

_ZNSt7__cxx1112basic_stringIcSt11char_traitsIcESaIcEED2Ev.exit122: ; preds = %355, %_ZNSt7__cxx1112basic_stringIcSt11char_traitsIcESaIcEED2Ev.exit121
  %356 = getelementptr inbounds %"class.std::__cxx11::basic_string", %"class.std::__cxx11::basic_string"* %7, i64 0, i32 2
  %357 = bitcast %"class.std::__cxx11::basic_string"* %7 to %union.anon**
  store %union.anon* %356, %union.anon** %357, align 8, !tbaa !28
  %358 = bitcast %union.anon* %356 to i8*
  call void @llvm.memcpy.p0i8.p0i8.i64(i8* %358, i8* nonnull getelementptr inbounds ([12 x i8], [12 x i8]* @.str.12, i64 0, i64 0), i64 11, i32 1, i1 false) #2
  %359 = getelementptr inbounds %"class.std::__cxx11::basic_string", %"class.std::__cxx11::basic_string"* %7, i64 0, i32 1
  store i64 11, i64* %359, align 8, !tbaa !30
  %360 = getelementptr inbounds %"class.std::__cxx11::basic_string", %"class.std::__cxx11::basic_string"* %7, i64 0, i32 2, i32 1, i64 3
  store i8 0, i8* %360, align 1, !tbaa !11
  %361 = invoke %class.YAML_Element* @_ZN12YAML_Element3getERKNSt7__cxx1112basic_stringIcSt11char_traitsIcESaIcEEE(%class.YAML_Element* %336, %"class.std::__cxx11::basic_string"* nonnull dereferenceable(32) %7)
          to label %._crit_edge.i.i.i.i132 unwind label %920

._crit_edge.i.i.i.i132:                           ; preds = %_ZNSt7__cxx1112basic_stringIcSt11char_traitsIcESaIcEED2Ev.exit122
  %362 = getelementptr inbounds %"class.std::__cxx11::basic_string", %"class.std::__cxx11::basic_string"* %8, i64 0, i32 2
  %363 = bitcast %"class.std::__cxx11::basic_string"* %8 to %union.anon**
  store %union.anon* %362, %union.anon** %363, align 8, !tbaa !28
  %364 = bitcast %union.anon* %362 to i8*
  call void @llvm.memcpy.p0i8.p0i8.i64(i8* %364, i8* nonnull getelementptr inbounds ([16 x i8], [16 x i8]* @.str.13, i64 0, i64 0), i64 15, i32 1, i1 false) #2
  %365 = getelementptr inbounds %"class.std::__cxx11::basic_string", %"class.std::__cxx11::basic_string"* %8, i64 0, i32 1
  store i64 15, i64* %365, align 8, !tbaa !30
  %366 = getelementptr inbounds %"class.std::__cxx11::basic_string", %"class.std::__cxx11::basic_string"* %8, i64 0, i32 2, i32 1, i64 7
  store i8 0, i8* %366, align 1, !tbaa !11
  %367 = getelementptr inbounds %"class.std::__cxx11::basic_string", %"class.std::__cxx11::basic_string"* %9, i64 0, i32 2
  %368 = bitcast %"class.std::__cxx11::basic_string"* %9 to %union.anon**
  store %union.anon* %367, %union.anon** %368, align 8, !tbaa !28
  %369 = bitcast %union.anon* %367 to i8*
  %370 = getelementptr inbounds %"class.std::__cxx11::basic_string", %"class.std::__cxx11::basic_string"* %9, i64 0, i32 1
  store i64 0, i64* %370, align 8, !tbaa !30
  store i8 0, i8* %369, align 8, !tbaa !11
  %371 = invoke %class.YAML_Element* @_ZN12YAML_Element3addERKNSt7__cxx1112basic_stringIcSt11char_traitsIcESaIcEEES7_(%class.YAML_Element* %361, %"class.std::__cxx11::basic_string"* nonnull dereferenceable(32) %8, %"class.std::__cxx11::basic_string"* nonnull dereferenceable(32) %9)
          to label %372 unwind label %924

; <label>:372                                     ; preds = %._crit_edge.i.i.i.i132
  %373 = getelementptr inbounds %"class.std::__cxx11::basic_string", %"class.std::__cxx11::basic_string"* %9, i64 0, i32 0, i32 0
  %374 = load i8*, i8** %373, align 8, !tbaa !32
  %375 = icmp eq i8* %374, %369
  br i1 %375, label %_ZNSt7__cxx1112basic_stringIcSt11char_traitsIcESaIcEED2Ev.exit144, label %376

; <label>:376                                     ; preds = %372
  call void @_ZdlPv(i8* %374) #2
  br label %_ZNSt7__cxx1112basic_stringIcSt11char_traitsIcESaIcEED2Ev.exit144

_ZNSt7__cxx1112basic_stringIcSt11char_traitsIcESaIcEED2Ev.exit144: ; preds = %376, %372
  %377 = getelementptr inbounds %"class.std::__cxx11::basic_string", %"class.std::__cxx11::basic_string"* %8, i64 0, i32 0, i32 0
  %378 = load i8*, i8** %377, align 8, !tbaa !32
  %379 = icmp eq i8* %378, %364
  br i1 %379, label %_ZNSt7__cxx1112basic_stringIcSt11char_traitsIcESaIcEED2Ev.exit145, label %380

; <label>:380                                     ; preds = %_ZNSt7__cxx1112basic_stringIcSt11char_traitsIcESaIcEED2Ev.exit144
  call void @_ZdlPv(i8* %378) #2
  br label %_ZNSt7__cxx1112basic_stringIcSt11char_traitsIcESaIcEED2Ev.exit145

_ZNSt7__cxx1112basic_stringIcSt11char_traitsIcESaIcEED2Ev.exit145: ; preds = %380, %_ZNSt7__cxx1112basic_stringIcSt11char_traitsIcESaIcEED2Ev.exit144
  %381 = getelementptr inbounds %"class.std::__cxx11::basic_string", %"class.std::__cxx11::basic_string"* %7, i64 0, i32 0, i32 0
  %382 = load i8*, i8** %381, align 8, !tbaa !32
  %383 = icmp eq i8* %382, %358
  br i1 %383, label %_ZNSt7__cxx1112basic_stringIcSt11char_traitsIcESaIcEED2Ev.exit148, label %384

; <label>:384                                     ; preds = %_ZNSt7__cxx1112basic_stringIcSt11char_traitsIcESaIcEED2Ev.exit145
  call void @_ZdlPv(i8* %382) #2
  br label %_ZNSt7__cxx1112basic_stringIcSt11char_traitsIcESaIcEED2Ev.exit148

_ZNSt7__cxx1112basic_stringIcSt11char_traitsIcESaIcEED2Ev.exit148: ; preds = %384, %_ZNSt7__cxx1112basic_stringIcSt11char_traitsIcESaIcEED2Ev.exit145
  %385 = getelementptr inbounds %"class.std::__cxx11::basic_string", %"class.std::__cxx11::basic_string"* %10, i64 0, i32 2
  %386 = bitcast %"class.std::__cxx11::basic_string"* %10 to %union.anon**
  store %union.anon* %385, %union.anon** %386, align 8, !tbaa !28
  %387 = bitcast %union.anon* %385 to i8*
  call void @llvm.memcpy.p0i8.p0i8.i64(i8* %387, i8* nonnull getelementptr inbounds ([12 x i8], [12 x i8]* @.str.12, i64 0, i64 0), i64 11, i32 1, i1 false) #2
  %388 = getelementptr inbounds %"class.std::__cxx11::basic_string", %"class.std::__cxx11::basic_string"* %10, i64 0, i32 1
  store i64 11, i64* %388, align 8, !tbaa !30
  %389 = getelementptr inbounds %"class.std::__cxx11::basic_string", %"class.std::__cxx11::basic_string"* %10, i64 0, i32 2, i32 1, i64 3
  store i8 0, i8* %389, align 1, !tbaa !11
  %390 = invoke %class.YAML_Element* @_ZN12YAML_Element3getERKNSt7__cxx1112basic_stringIcSt11char_traitsIcESaIcEEE(%class.YAML_Element* %336, %"class.std::__cxx11::basic_string"* nonnull dereferenceable(32) %10)
          to label %.noexc1.i160 unwind label %940

.noexc1.i160:                                     ; preds = %_ZNSt7__cxx1112basic_stringIcSt11char_traitsIcESaIcEED2Ev.exit148
  %391 = getelementptr inbounds %"class.std::__cxx11::basic_string", %"class.std::__cxx11::basic_string"* %11, i64 0, i32 2
  %392 = bitcast %"class.std::__cxx11::basic_string"* %11 to %union.anon**
  store %union.anon* %391, %union.anon** %392, align 8, !tbaa !28
  %393 = bitcast %union.anon* %391 to i8*
  %394 = bitcast i64* %__dnew.i.i.i.i157 to i8*
  call void @llvm.lifetime.start(i64 8, i8* %394) #2
  store i64 18, i64* %__dnew.i.i.i.i157, align 8, !tbaa !33
  %395 = invoke i8* @_ZNSt7__cxx1112basic_stringIcSt11char_traitsIcESaIcEE9_M_createERmm(%"class.std::__cxx11::basic_string"* nonnull %11, i64* nonnull dereferenceable(8) %__dnew.i.i.i.i157, i64 0)
          to label %.noexc162 unwind label %944

.noexc162:                                        ; preds = %.noexc1.i160
  %396 = getelementptr inbounds %"class.std::__cxx11::basic_string", %"class.std::__cxx11::basic_string"* %11, i64 0, i32 0, i32 0
  store i8* %395, i8** %396, align 8, !tbaa !32
  %397 = load i64, i64* %__dnew.i.i.i.i157, align 8, !tbaa !33
  %398 = getelementptr inbounds %"class.std::__cxx11::basic_string", %"class.std::__cxx11::basic_string"* %11, i64 0, i32 2, i32 0
  store i64 %397, i64* %398, align 8, !tbaa !33
  call void @llvm.memcpy.p0i8.p0i8.i64(i8* %395, i8* nonnull getelementptr inbounds ([19 x i8], [19 x i8]* @.str.14, i64 0, i64 0), i64 18, i32 1, i1 false) #2
  %399 = getelementptr inbounds %"class.std::__cxx11::basic_string", %"class.std::__cxx11::basic_string"* %11, i64 0, i32 1
  store i64 %397, i64* %399, align 8, !tbaa !30
  %400 = load i8*, i8** %396, align 8, !tbaa !32
  %401 = getelementptr inbounds i8, i8* %400, i64 %397
  store i8 0, i8* %401, align 1, !tbaa !11
  call void @llvm.lifetime.end(i64 8, i8* %394) #2
  %402 = getelementptr inbounds %"class.std::__cxx11::basic_string", %"class.std::__cxx11::basic_string"* %12, i64 0, i32 2
  %403 = bitcast %"class.std::__cxx11::basic_string"* %12 to %union.anon**
  store %union.anon* %402, %union.anon** %403, align 8, !tbaa !28
  %404 = bitcast %union.anon* %402 to i8*
  %405 = getelementptr inbounds %"class.std::__cxx11::basic_string", %"class.std::__cxx11::basic_string"* %12, i64 0, i32 1
  store i64 0, i64* %405, align 8, !tbaa !30
  store i8 0, i8* %404, align 8, !tbaa !11
  %406 = invoke %class.YAML_Element* @_ZN12YAML_Element3addERKNSt7__cxx1112basic_stringIcSt11char_traitsIcESaIcEEES7_(%class.YAML_Element* %390, %"class.std::__cxx11::basic_string"* nonnull dereferenceable(32) %11, %"class.std::__cxx11::basic_string"* nonnull dereferenceable(32) %12)
          to label %407 unwind label %948

; <label>:407                                     ; preds = %.noexc162
  %408 = getelementptr inbounds %"class.std::__cxx11::basic_string", %"class.std::__cxx11::basic_string"* %12, i64 0, i32 0, i32 0
  %409 = load i8*, i8** %408, align 8, !tbaa !32
  %410 = icmp eq i8* %409, %404
  br i1 %410, label %_ZNSt7__cxx1112basic_stringIcSt11char_traitsIcESaIcEED2Ev.exit171, label %411

; <label>:411                                     ; preds = %407
  call void @_ZdlPv(i8* %409) #2
  br label %_ZNSt7__cxx1112basic_stringIcSt11char_traitsIcESaIcEED2Ev.exit171

_ZNSt7__cxx1112basic_stringIcSt11char_traitsIcESaIcEED2Ev.exit171: ; preds = %411, %407
  %412 = load i8*, i8** %396, align 8, !tbaa !32
  %413 = icmp eq i8* %412, %393
  br i1 %413, label %_ZNSt7__cxx1112basic_stringIcSt11char_traitsIcESaIcEED2Ev.exit172, label %414

; <label>:414                                     ; preds = %_ZNSt7__cxx1112basic_stringIcSt11char_traitsIcESaIcEED2Ev.exit171
  call void @_ZdlPv(i8* %412) #2
  br label %_ZNSt7__cxx1112basic_stringIcSt11char_traitsIcESaIcEED2Ev.exit172

_ZNSt7__cxx1112basic_stringIcSt11char_traitsIcESaIcEED2Ev.exit172: ; preds = %414, %_ZNSt7__cxx1112basic_stringIcSt11char_traitsIcESaIcEED2Ev.exit171
  %415 = getelementptr inbounds %"class.std::__cxx11::basic_string", %"class.std::__cxx11::basic_string"* %10, i64 0, i32 0, i32 0
  %416 = load i8*, i8** %415, align 8, !tbaa !32
  %417 = icmp eq i8* %416, %387
  br i1 %417, label %_ZNSt7__cxx1112basic_stringIcSt11char_traitsIcESaIcEED2Ev.exit173, label %418

; <label>:418                                     ; preds = %_ZNSt7__cxx1112basic_stringIcSt11char_traitsIcESaIcEED2Ev.exit172
  call void @_ZdlPv(i8* %416) #2
  br label %_ZNSt7__cxx1112basic_stringIcSt11char_traitsIcESaIcEED2Ev.exit173

_ZNSt7__cxx1112basic_stringIcSt11char_traitsIcESaIcEED2Ev.exit173: ; preds = %418, %_ZNSt7__cxx1112basic_stringIcSt11char_traitsIcESaIcEED2Ev.exit172
  %419 = getelementptr inbounds %"class.std::__cxx11::basic_string", %"class.std::__cxx11::basic_string"* %13, i64 0, i32 2
  %420 = bitcast %"class.std::__cxx11::basic_string"* %13 to %union.anon**
  store %union.anon* %419, %union.anon** %420, align 8, !tbaa !28
  %421 = bitcast %union.anon* %419 to i8*
  call void @llvm.memcpy.p0i8.p0i8.i64(i8* %421, i8* nonnull getelementptr inbounds ([11 x i8], [11 x i8]* @.str.15, i64 0, i64 0), i64 10, i32 1, i1 false) #2
  %422 = getelementptr inbounds %"class.std::__cxx11::basic_string", %"class.std::__cxx11::basic_string"* %13, i64 0, i32 1
  store i64 10, i64* %422, align 8, !tbaa !30
  %423 = getelementptr inbounds %"class.std::__cxx11::basic_string", %"class.std::__cxx11::basic_string"* %13, i64 0, i32 2, i32 1, i64 2
  store i8 0, i8* %423, align 2, !tbaa !11
  %424 = getelementptr inbounds %"class.std::__cxx11::basic_string", %"class.std::__cxx11::basic_string"* %14, i64 0, i32 2
  %425 = bitcast %"class.std::__cxx11::basic_string"* %14 to %union.anon**
  store %union.anon* %424, %union.anon** %425, align 8, !tbaa !28
  %426 = bitcast %union.anon* %424 to i8*
  %427 = getelementptr inbounds %"class.std::__cxx11::basic_string", %"class.std::__cxx11::basic_string"* %14, i64 0, i32 1
  store i64 0, i64* %427, align 8, !tbaa !30
  store i8 0, i8* %426, align 8, !tbaa !11
  %428 = invoke %class.YAML_Element* @_ZN12YAML_Element3addERKNSt7__cxx1112basic_stringIcSt11char_traitsIcESaIcEEES7_(%class.YAML_Element* %336, %"class.std::__cxx11::basic_string"* nonnull dereferenceable(32) %13, %"class.std::__cxx11::basic_string"* nonnull dereferenceable(32) %14)
          to label %429 unwind label %963

; <label>:429                                     ; preds = %_ZNSt7__cxx1112basic_stringIcSt11char_traitsIcESaIcEED2Ev.exit173
  %430 = getelementptr inbounds %"class.std::__cxx11::basic_string", %"class.std::__cxx11::basic_string"* %14, i64 0, i32 0, i32 0
  %431 = load i8*, i8** %430, align 8, !tbaa !32
  %432 = icmp eq i8* %431, %426
  br i1 %432, label %_ZNSt7__cxx1112basic_stringIcSt11char_traitsIcESaIcEED2Ev.exit190, label %433

; <label>:433                                     ; preds = %429
  call void @_ZdlPv(i8* %431) #2
  br label %_ZNSt7__cxx1112basic_stringIcSt11char_traitsIcESaIcEED2Ev.exit190

_ZNSt7__cxx1112basic_stringIcSt11char_traitsIcESaIcEED2Ev.exit190: ; preds = %433, %429
  %434 = getelementptr inbounds %"class.std::__cxx11::basic_string", %"class.std::__cxx11::basic_string"* %13, i64 0, i32 0, i32 0
  %435 = load i8*, i8** %434, align 8, !tbaa !32
  %436 = icmp eq i8* %435, %421
  br i1 %436, label %_ZNSt7__cxx1112basic_stringIcSt11char_traitsIcESaIcEED2Ev.exit191, label %437

; <label>:437                                     ; preds = %_ZNSt7__cxx1112basic_stringIcSt11char_traitsIcESaIcEED2Ev.exit190
  call void @_ZdlPv(i8* %435) #2
  br label %_ZNSt7__cxx1112basic_stringIcSt11char_traitsIcESaIcEED2Ev.exit191

_ZNSt7__cxx1112basic_stringIcSt11char_traitsIcESaIcEED2Ev.exit191: ; preds = %437, %_ZNSt7__cxx1112basic_stringIcSt11char_traitsIcESaIcEED2Ev.exit190
  %438 = getelementptr inbounds %"class.std::__cxx11::basic_string", %"class.std::__cxx11::basic_string"* %15, i64 0, i32 2
  %439 = bitcast %"class.std::__cxx11::basic_string"* %15 to %union.anon**
  store %union.anon* %438, %union.anon** %439, align 8, !tbaa !28
  %440 = bitcast %union.anon* %438 to i8*
  call void @llvm.memcpy.p0i8.p0i8.i64(i8* %440, i8* nonnull getelementptr inbounds ([11 x i8], [11 x i8]* @.str.15, i64 0, i64 0), i64 10, i32 1, i1 false) #2
  %441 = getelementptr inbounds %"class.std::__cxx11::basic_string", %"class.std::__cxx11::basic_string"* %15, i64 0, i32 1
  store i64 10, i64* %441, align 8, !tbaa !30
  %442 = getelementptr inbounds %"class.std::__cxx11::basic_string", %"class.std::__cxx11::basic_string"* %15, i64 0, i32 2, i32 1, i64 2
  store i8 0, i8* %442, align 2, !tbaa !11
  %443 = invoke %class.YAML_Element* @_ZN12YAML_Element3getERKNSt7__cxx1112basic_stringIcSt11char_traitsIcESaIcEEE(%class.YAML_Element* %336, %"class.std::__cxx11::basic_string"* nonnull dereferenceable(32) %15)
          to label %._crit_edge.i.i.i.i202 unwind label %975

._crit_edge.i.i.i.i202:                           ; preds = %_ZNSt7__cxx1112basic_stringIcSt11char_traitsIcESaIcEED2Ev.exit191
  %444 = getelementptr inbounds %"class.std::__cxx11::basic_string", %"class.std::__cxx11::basic_string"* %16, i64 0, i32 2
  %445 = bitcast %"class.std::__cxx11::basic_string"* %16 to %union.anon**
  store %union.anon* %444, %union.anon** %445, align 8, !tbaa !28
  %446 = bitcast %union.anon* %444 to i8*
  %.phi.trans.insert.i.i.i.i201 = getelementptr inbounds %"class.std::__cxx11::basic_string", %"class.std::__cxx11::basic_string"* %16, i64 0, i32 0, i32 0
  %447 = bitcast %union.anon* %444 to i16*
  store i16 30830, i16* %447, align 8
  %448 = getelementptr inbounds %"class.std::__cxx11::basic_string", %"class.std::__cxx11::basic_string"* %16, i64 0, i32 1
  store i64 2, i64* %448, align 8, !tbaa !30
  %449 = getelementptr inbounds i8, i8* %446, i64 2
  store i8 0, i8* %449, align 2, !tbaa !11
  %450 = invoke %class.YAML_Element* @_ZN12YAML_Element3addERKNSt7__cxx1112basic_stringIcSt11char_traitsIcESaIcEEEi(%class.YAML_Element* %443, %"class.std::__cxx11::basic_string"* nonnull dereferenceable(32) %16, i32 %nx.0)
          to label %451 unwind label %979

; <label>:451                                     ; preds = %._crit_edge.i.i.i.i202
  %452 = load i8*, i8** %.phi.trans.insert.i.i.i.i201, align 8, !tbaa !32
  %453 = icmp eq i8* %452, %446
  br i1 %453, label %_ZNSt7__cxx1112basic_stringIcSt11char_traitsIcESaIcEED2Ev.exit207, label %454

; <label>:454                                     ; preds = %451
  call void @_ZdlPv(i8* %452) #2
  br label %_ZNSt7__cxx1112basic_stringIcSt11char_traitsIcESaIcEED2Ev.exit207

_ZNSt7__cxx1112basic_stringIcSt11char_traitsIcESaIcEED2Ev.exit207: ; preds = %454, %451
  %455 = getelementptr inbounds %"class.std::__cxx11::basic_string", %"class.std::__cxx11::basic_string"* %15, i64 0, i32 0, i32 0
  %456 = load i8*, i8** %455, align 8, !tbaa !32
  %457 = icmp eq i8* %456, %440
  br i1 %457, label %_ZNSt7__cxx1112basic_stringIcSt11char_traitsIcESaIcEED2Ev.exit208, label %458

; <label>:458                                     ; preds = %_ZNSt7__cxx1112basic_stringIcSt11char_traitsIcESaIcEED2Ev.exit207
  call void @_ZdlPv(i8* %456) #2
  br label %_ZNSt7__cxx1112basic_stringIcSt11char_traitsIcESaIcEED2Ev.exit208

_ZNSt7__cxx1112basic_stringIcSt11char_traitsIcESaIcEED2Ev.exit208: ; preds = %458, %_ZNSt7__cxx1112basic_stringIcSt11char_traitsIcESaIcEED2Ev.exit207
  %459 = getelementptr inbounds %"class.std::__cxx11::basic_string", %"class.std::__cxx11::basic_string"* %17, i64 0, i32 2
  %460 = bitcast %"class.std::__cxx11::basic_string"* %17 to %union.anon**
  store %union.anon* %459, %union.anon** %460, align 8, !tbaa !28
  %461 = bitcast %union.anon* %459 to i8*
  call void @llvm.memcpy.p0i8.p0i8.i64(i8* %461, i8* nonnull getelementptr inbounds ([11 x i8], [11 x i8]* @.str.15, i64 0, i64 0), i64 10, i32 1, i1 false) #2
  %462 = getelementptr inbounds %"class.std::__cxx11::basic_string", %"class.std::__cxx11::basic_string"* %17, i64 0, i32 1
  store i64 10, i64* %462, align 8, !tbaa !30
  %463 = getelementptr inbounds %"class.std::__cxx11::basic_string", %"class.std::__cxx11::basic_string"* %17, i64 0, i32 2, i32 1, i64 2
  store i8 0, i8* %463, align 2, !tbaa !11
  %464 = invoke %class.YAML_Element* @_ZN12YAML_Element3getERKNSt7__cxx1112basic_stringIcSt11char_traitsIcESaIcEEE(%class.YAML_Element* %336, %"class.std::__cxx11::basic_string"* nonnull dereferenceable(32) %17)
          to label %._crit_edge.i.i.i.i218 unwind label %990

._crit_edge.i.i.i.i218:                           ; preds = %_ZNSt7__cxx1112basic_stringIcSt11char_traitsIcESaIcEED2Ev.exit208
  %465 = getelementptr inbounds %"class.std::__cxx11::basic_string", %"class.std::__cxx11::basic_string"* %18, i64 0, i32 2
  %466 = bitcast %"class.std::__cxx11::basic_string"* %18 to %union.anon**
  store %union.anon* %465, %union.anon** %466, align 8, !tbaa !28
  %467 = bitcast %union.anon* %465 to i8*
  %.phi.trans.insert.i.i.i.i217 = getelementptr inbounds %"class.std::__cxx11::basic_string", %"class.std::__cxx11::basic_string"* %18, i64 0, i32 0, i32 0
  %468 = bitcast %union.anon* %465 to i16*
  store i16 31086, i16* %468, align 8
  %469 = getelementptr inbounds %"class.std::__cxx11::basic_string", %"class.std::__cxx11::basic_string"* %18, i64 0, i32 1
  store i64 2, i64* %469, align 8, !tbaa !30
  %470 = getelementptr inbounds i8, i8* %467, i64 2
  store i8 0, i8* %470, align 2, !tbaa !11
  %471 = invoke %class.YAML_Element* @_ZN12YAML_Element3addERKNSt7__cxx1112basic_stringIcSt11char_traitsIcESaIcEEEi(%class.YAML_Element* %464, %"class.std::__cxx11::basic_string"* nonnull dereferenceable(32) %18, i32 %ny.0)
          to label %472 unwind label %994

; <label>:472                                     ; preds = %._crit_edge.i.i.i.i218
  %473 = load i8*, i8** %.phi.trans.insert.i.i.i.i217, align 8, !tbaa !32
  %474 = icmp eq i8* %473, %467
  br i1 %474, label %_ZNSt7__cxx1112basic_stringIcSt11char_traitsIcESaIcEED2Ev.exit223, label %475

; <label>:475                                     ; preds = %472
  call void @_ZdlPv(i8* %473) #2
  br label %_ZNSt7__cxx1112basic_stringIcSt11char_traitsIcESaIcEED2Ev.exit223

_ZNSt7__cxx1112basic_stringIcSt11char_traitsIcESaIcEED2Ev.exit223: ; preds = %475, %472
  %476 = getelementptr inbounds %"class.std::__cxx11::basic_string", %"class.std::__cxx11::basic_string"* %17, i64 0, i32 0, i32 0
  %477 = load i8*, i8** %476, align 8, !tbaa !32
  %478 = icmp eq i8* %477, %461
  br i1 %478, label %_ZNSt7__cxx1112basic_stringIcSt11char_traitsIcESaIcEED2Ev.exit224, label %479

; <label>:479                                     ; preds = %_ZNSt7__cxx1112basic_stringIcSt11char_traitsIcESaIcEED2Ev.exit223
  call void @_ZdlPv(i8* %477) #2
  br label %_ZNSt7__cxx1112basic_stringIcSt11char_traitsIcESaIcEED2Ev.exit224

_ZNSt7__cxx1112basic_stringIcSt11char_traitsIcESaIcEED2Ev.exit224: ; preds = %479, %_ZNSt7__cxx1112basic_stringIcSt11char_traitsIcESaIcEED2Ev.exit223
  %480 = getelementptr inbounds %"class.std::__cxx11::basic_string", %"class.std::__cxx11::basic_string"* %19, i64 0, i32 2
  %481 = bitcast %"class.std::__cxx11::basic_string"* %19 to %union.anon**
  store %union.anon* %480, %union.anon** %481, align 8, !tbaa !28
  %482 = bitcast %union.anon* %480 to i8*
  call void @llvm.memcpy.p0i8.p0i8.i64(i8* %482, i8* nonnull getelementptr inbounds ([11 x i8], [11 x i8]* @.str.15, i64 0, i64 0), i64 10, i32 1, i1 false) #2
  %483 = getelementptr inbounds %"class.std::__cxx11::basic_string", %"class.std::__cxx11::basic_string"* %19, i64 0, i32 1
  store i64 10, i64* %483, align 8, !tbaa !30
  %484 = getelementptr inbounds %"class.std::__cxx11::basic_string", %"class.std::__cxx11::basic_string"* %19, i64 0, i32 2, i32 1, i64 2
  store i8 0, i8* %484, align 2, !tbaa !11
  %485 = invoke %class.YAML_Element* @_ZN12YAML_Element3getERKNSt7__cxx1112basic_stringIcSt11char_traitsIcESaIcEEE(%class.YAML_Element* %336, %"class.std::__cxx11::basic_string"* nonnull dereferenceable(32) %19)
          to label %._crit_edge.i.i.i.i234 unwind label %1005

._crit_edge.i.i.i.i234:                           ; preds = %_ZNSt7__cxx1112basic_stringIcSt11char_traitsIcESaIcEED2Ev.exit224
  %486 = getelementptr inbounds %"class.std::__cxx11::basic_string", %"class.std::__cxx11::basic_string"* %20, i64 0, i32 2
  %487 = bitcast %"class.std::__cxx11::basic_string"* %20 to %union.anon**
  store %union.anon* %486, %union.anon** %487, align 8, !tbaa !28
  %488 = bitcast %union.anon* %486 to i8*
  %.phi.trans.insert.i.i.i.i233 = getelementptr inbounds %"class.std::__cxx11::basic_string", %"class.std::__cxx11::basic_string"* %20, i64 0, i32 0, i32 0
  %489 = bitcast %union.anon* %486 to i16*
  store i16 31342, i16* %489, align 8
  %490 = getelementptr inbounds %"class.std::__cxx11::basic_string", %"class.std::__cxx11::basic_string"* %20, i64 0, i32 1
  store i64 2, i64* %490, align 8, !tbaa !30
  %491 = getelementptr inbounds i8, i8* %488, i64 2
  store i8 0, i8* %491, align 2, !tbaa !11
  %492 = invoke %class.YAML_Element* @_ZN12YAML_Element3addERKNSt7__cxx1112basic_stringIcSt11char_traitsIcESaIcEEEi(%class.YAML_Element* %485, %"class.std::__cxx11::basic_string"* nonnull dereferenceable(32) %20, i32 %nz.0)
          to label %493 unwind label %1009

; <label>:493                                     ; preds = %._crit_edge.i.i.i.i234
  %494 = load i8*, i8** %.phi.trans.insert.i.i.i.i233, align 8, !tbaa !32
  %495 = icmp eq i8* %494, %488
  br i1 %495, label %_ZNSt7__cxx1112basic_stringIcSt11char_traitsIcESaIcEED2Ev.exit239, label %496

; <label>:496                                     ; preds = %493
  call void @_ZdlPv(i8* %494) #2
  br label %_ZNSt7__cxx1112basic_stringIcSt11char_traitsIcESaIcEED2Ev.exit239

_ZNSt7__cxx1112basic_stringIcSt11char_traitsIcESaIcEED2Ev.exit239: ; preds = %496, %493
  %497 = getelementptr inbounds %"class.std::__cxx11::basic_string", %"class.std::__cxx11::basic_string"* %19, i64 0, i32 0, i32 0
  %498 = load i8*, i8** %497, align 8, !tbaa !32
  %499 = icmp eq i8* %498, %482
  br i1 %499, label %_ZNSt7__cxx1112basic_stringIcSt11char_traitsIcESaIcEED2Ev.exit240, label %500

; <label>:500                                     ; preds = %_ZNSt7__cxx1112basic_stringIcSt11char_traitsIcESaIcEED2Ev.exit239
  call void @_ZdlPv(i8* %498) #2
  br label %_ZNSt7__cxx1112basic_stringIcSt11char_traitsIcESaIcEED2Ev.exit240

_ZNSt7__cxx1112basic_stringIcSt11char_traitsIcESaIcEED2Ev.exit240: ; preds = %500, %_ZNSt7__cxx1112basic_stringIcSt11char_traitsIcESaIcEED2Ev.exit239
  %501 = getelementptr inbounds %"class.std::__cxx11::basic_string", %"class.std::__cxx11::basic_string"* %21, i64 0, i32 2
  %502 = bitcast %"class.std::__cxx11::basic_string"* %21 to %union.anon**
  store %union.anon* %501, %union.anon** %502, align 8, !tbaa !28
  %503 = bitcast %union.anon* %501 to i8*
  %504 = bitcast i64* %__dnew.i.i.i.i243 to i8*
  call void @llvm.lifetime.start(i64 8, i8* %504) #2
  store i64 20, i64* %__dnew.i.i.i.i243, align 8, !tbaa !33
  %505 = invoke i8* @_ZNSt7__cxx1112basic_stringIcSt11char_traitsIcESaIcEE9_M_createERmm(%"class.std::__cxx11::basic_string"* nonnull %21, i64* nonnull dereferenceable(8) %__dnew.i.i.i.i243, i64 0)
          to label %.noexc248 unwind label %1020

.noexc248:                                        ; preds = %_ZNSt7__cxx1112basic_stringIcSt11char_traitsIcESaIcEED2Ev.exit240
  %506 = getelementptr inbounds %"class.std::__cxx11::basic_string", %"class.std::__cxx11::basic_string"* %21, i64 0, i32 0, i32 0
  store i8* %505, i8** %506, align 8, !tbaa !32
  %507 = load i64, i64* %__dnew.i.i.i.i243, align 8, !tbaa !33
  %508 = getelementptr inbounds %"class.std::__cxx11::basic_string", %"class.std::__cxx11::basic_string"* %21, i64 0, i32 2, i32 0
  store i64 %507, i64* %508, align 8, !tbaa !33
  call void @llvm.memcpy.p0i8.p0i8.i64(i8* %505, i8* nonnull getelementptr inbounds ([21 x i8], [21 x i8]* @.str.19, i64 0, i64 0), i64 20, i32 1, i1 false) #2
  %509 = getelementptr inbounds %"class.std::__cxx11::basic_string", %"class.std::__cxx11::basic_string"* %21, i64 0, i32 1
  store i64 %507, i64* %509, align 8, !tbaa !30
  %510 = load i8*, i8** %506, align 8, !tbaa !32
  %511 = getelementptr inbounds i8, i8* %510, i64 %507
  store i8 0, i8* %511, align 1, !tbaa !11
  call void @llvm.lifetime.end(i64 8, i8* %504) #2
  %512 = invoke %class.YAML_Element* @_ZN12YAML_Element3addERKNSt7__cxx1112basic_stringIcSt11char_traitsIcESaIcEEEi(%class.YAML_Element* %336, %"class.std::__cxx11::basic_string"* nonnull dereferenceable(32) %21, i32 %284)
          to label %513 unwind label %1024

; <label>:513                                     ; preds = %.noexc248
  %514 = load i8*, i8** %506, align 8, !tbaa !32
  %515 = icmp eq i8* %514, %503
  br i1 %515, label %_ZNSt7__cxx1112basic_stringIcSt11char_traitsIcESaIcEED2Ev.exit250, label %516

; <label>:516                                     ; preds = %513
  call void @_ZdlPv(i8* %514) #2
  br label %_ZNSt7__cxx1112basic_stringIcSt11char_traitsIcESaIcEED2Ev.exit250

_ZNSt7__cxx1112basic_stringIcSt11char_traitsIcESaIcEED2Ev.exit250: ; preds = %516, %513
  %517 = getelementptr inbounds %"class.std::__cxx11::basic_string", %"class.std::__cxx11::basic_string"* %22, i64 0, i32 2
  %518 = bitcast %"class.std::__cxx11::basic_string"* %22 to %union.anon**
  store %union.anon* %517, %union.anon** %518, align 8, !tbaa !28
  %519 = bitcast %union.anon* %517 to i8*
  call void @llvm.memcpy.p0i8.p0i8.i64(i8* %519, i8* nonnull getelementptr inbounds ([15 x i8], [15 x i8]* @.str.20, i64 0, i64 0), i64 14, i32 1, i1 false) #2
  %520 = getelementptr inbounds %"class.std::__cxx11::basic_string", %"class.std::__cxx11::basic_string"* %22, i64 0, i32 1
  store i64 14, i64* %520, align 8, !tbaa !30
  %521 = getelementptr inbounds %"class.std::__cxx11::basic_string", %"class.std::__cxx11::basic_string"* %22, i64 0, i32 2, i32 1, i64 6
  store i8 0, i8* %521, align 2, !tbaa !11
  %522 = load double, double* %normr, align 8, !tbaa !22
  %523 = invoke %class.YAML_Element* @_ZN12YAML_Element3addERKNSt7__cxx1112basic_stringIcSt11char_traitsIcESaIcEEEd(%class.YAML_Element* %336, %"class.std::__cxx11::basic_string"* nonnull dereferenceable(32) %22, double %522)
          to label %524 unwind label %1031

; <label>:524                                     ; preds = %_ZNSt7__cxx1112basic_stringIcSt11char_traitsIcESaIcEED2Ev.exit250
  %525 = getelementptr inbounds %"class.std::__cxx11::basic_string", %"class.std::__cxx11::basic_string"* %22, i64 0, i32 0, i32 0
  %526 = load i8*, i8** %525, align 8, !tbaa !32
  %527 = icmp eq i8* %526, %519
  br i1 %527, label %_ZNSt7__cxx1112basic_stringIcSt11char_traitsIcESaIcEED2Ev.exit258, label %528

; <label>:528                                     ; preds = %524
  call void @_ZdlPv(i8* %526) #2
  br label %_ZNSt7__cxx1112basic_stringIcSt11char_traitsIcESaIcEED2Ev.exit258

_ZNSt7__cxx1112basic_stringIcSt11char_traitsIcESaIcEED2Ev.exit258: ; preds = %528, %524
  %529 = getelementptr inbounds %"class.std::__cxx11::basic_string", %"class.std::__cxx11::basic_string"* %23, i64 0, i32 2
  %530 = bitcast %"class.std::__cxx11::basic_string"* %23 to %union.anon**
  store %union.anon* %529, %union.anon** %530, align 8, !tbaa !28
  %531 = bitcast %union.anon* %529 to i8*
  %532 = bitcast i64* %__dnew.i.i.i.i260 to i8*
  call void @llvm.lifetime.start(i64 8, i8* %532) #2
  store i64 58, i64* %__dnew.i.i.i.i260, align 8, !tbaa !33
  %533 = invoke i8* @_ZNSt7__cxx1112basic_stringIcSt11char_traitsIcESaIcEE9_M_createERmm(%"class.std::__cxx11::basic_string"* nonnull %23, i64* nonnull dereferenceable(8) %__dnew.i.i.i.i260, i64 0)
          to label %.noexc265 unwind label %1039

.noexc265:                                        ; preds = %_ZNSt7__cxx1112basic_stringIcSt11char_traitsIcESaIcEED2Ev.exit258
  %534 = getelementptr inbounds %"class.std::__cxx11::basic_string", %"class.std::__cxx11::basic_string"* %23, i64 0, i32 0, i32 0
  store i8* %533, i8** %534, align 8, !tbaa !32
  %535 = load i64, i64* %__dnew.i.i.i.i260, align 8, !tbaa !33
  %536 = getelementptr inbounds %"class.std::__cxx11::basic_string", %"class.std::__cxx11::basic_string"* %23, i64 0, i32 2, i32 0
  store i64 %535, i64* %536, align 8, !tbaa !33
  call void @llvm.memcpy.p0i8.p0i8.i64(i8* %533, i8* nonnull getelementptr inbounds ([59 x i8], [59 x i8]* @.str.21, i64 0, i64 0), i64 58, i32 1, i1 false) #2
  %537 = getelementptr inbounds %"class.std::__cxx11::basic_string", %"class.std::__cxx11::basic_string"* %23, i64 0, i32 1
  store i64 %535, i64* %537, align 8, !tbaa !30
  %538 = getelementptr inbounds i8, i8* %533, i64 %535
  store i8 0, i8* %538, align 1, !tbaa !11
  call void @llvm.lifetime.end(i64 8, i8* %532) #2
  %539 = getelementptr inbounds %"class.std::__cxx11::basic_string", %"class.std::__cxx11::basic_string"* %24, i64 0, i32 2
  %540 = bitcast %"class.std::__cxx11::basic_string"* %24 to %union.anon**
  store %union.anon* %539, %union.anon** %540, align 8, !tbaa !28
  %541 = bitcast %union.anon* %539 to i8*
  %542 = getelementptr inbounds %"class.std::__cxx11::basic_string", %"class.std::__cxx11::basic_string"* %24, i64 0, i32 1
  store i64 0, i64* %542, align 8, !tbaa !30
  store i8 0, i8* %541, align 8, !tbaa !11
  %543 = invoke %class.YAML_Element* @_ZN12YAML_Element3addERKNSt7__cxx1112basic_stringIcSt11char_traitsIcESaIcEEES7_(%class.YAML_Element* %336, %"class.std::__cxx11::basic_string"* nonnull dereferenceable(32) %23, %"class.std::__cxx11::basic_string"* nonnull dereferenceable(32) %24)
          to label %544 unwind label %1043

; <label>:544                                     ; preds = %.noexc265
  %545 = getelementptr inbounds %"class.std::__cxx11::basic_string", %"class.std::__cxx11::basic_string"* %24, i64 0, i32 0, i32 0
  %546 = load i8*, i8** %545, align 8, !tbaa !32
  %547 = icmp eq i8* %546, %541
  br i1 %547, label %_ZNSt7__cxx1112basic_stringIcSt11char_traitsIcESaIcEED2Ev.exit274, label %548

; <label>:548                                     ; preds = %544
  call void @_ZdlPv(i8* %546) #2
  br label %_ZNSt7__cxx1112basic_stringIcSt11char_traitsIcESaIcEED2Ev.exit274

_ZNSt7__cxx1112basic_stringIcSt11char_traitsIcESaIcEED2Ev.exit274: ; preds = %548, %544
  %549 = load i8*, i8** %534, align 8, !tbaa !32
  %550 = icmp eq i8* %549, %531
  br i1 %550, label %_ZNSt7__cxx1112basic_stringIcSt11char_traitsIcESaIcEED2Ev.exit275, label %551

; <label>:551                                     ; preds = %_ZNSt7__cxx1112basic_stringIcSt11char_traitsIcESaIcEED2Ev.exit274
  call void @_ZdlPv(i8* %549) #2
  br label %_ZNSt7__cxx1112basic_stringIcSt11char_traitsIcESaIcEED2Ev.exit275

_ZNSt7__cxx1112basic_stringIcSt11char_traitsIcESaIcEED2Ev.exit275: ; preds = %551, %_ZNSt7__cxx1112basic_stringIcSt11char_traitsIcESaIcEED2Ev.exit274
  %552 = getelementptr inbounds %"class.std::__cxx11::basic_string", %"class.std::__cxx11::basic_string"* %25, i64 0, i32 2
  %553 = bitcast %"class.std::__cxx11::basic_string"* %25 to %union.anon**
  store %union.anon* %552, %union.anon** %553, align 8, !tbaa !28
  %554 = bitcast %union.anon* %552 to i8*
  call void @llvm.memcpy.p0i8.p0i8.i64(i8* %554, i8* nonnull getelementptr inbounds ([13 x i8], [13 x i8]* @.str.22, i64 0, i64 0), i64 12, i32 1, i1 false) #2
  %555 = getelementptr inbounds %"class.std::__cxx11::basic_string", %"class.std::__cxx11::basic_string"* %25, i64 0, i32 1
  store i64 12, i64* %555, align 8, !tbaa !30
  %556 = getelementptr inbounds %"class.std::__cxx11::basic_string", %"class.std::__cxx11::basic_string"* %25, i64 0, i32 2, i32 1, i64 4
  store i8 0, i8* %556, align 4, !tbaa !11
  %557 = getelementptr inbounds %"class.std::__cxx11::basic_string", %"class.std::__cxx11::basic_string"* %26, i64 0, i32 2
  %558 = bitcast %"class.std::__cxx11::basic_string"* %26 to %union.anon**
  store %union.anon* %557, %union.anon** %558, align 8, !tbaa !28
  %559 = bitcast %union.anon* %557 to i8*
  %560 = getelementptr inbounds %"class.std::__cxx11::basic_string", %"class.std::__cxx11::basic_string"* %26, i64 0, i32 1
  store i64 0, i64* %560, align 8, !tbaa !30
  store i8 0, i8* %559, align 8, !tbaa !11
  %561 = invoke %class.YAML_Element* @_ZN12YAML_Element3addERKNSt7__cxx1112basic_stringIcSt11char_traitsIcESaIcEEES7_(%class.YAML_Element* %336, %"class.std::__cxx11::basic_string"* nonnull dereferenceable(32) %25, %"class.std::__cxx11::basic_string"* nonnull dereferenceable(32) %26)
          to label %562 unwind label %1054

; <label>:562                                     ; preds = %_ZNSt7__cxx1112basic_stringIcSt11char_traitsIcESaIcEED2Ev.exit275
  %563 = getelementptr inbounds %"class.std::__cxx11::basic_string", %"class.std::__cxx11::basic_string"* %26, i64 0, i32 0, i32 0
  %564 = load i8*, i8** %563, align 8, !tbaa !32
  %565 = icmp eq i8* %564, %559
  br i1 %565, label %_ZNSt7__cxx1112basic_stringIcSt11char_traitsIcESaIcEED2Ev.exit290, label %566

; <label>:566                                     ; preds = %562
  call void @_ZdlPv(i8* %564) #2
  br label %_ZNSt7__cxx1112basic_stringIcSt11char_traitsIcESaIcEED2Ev.exit290

_ZNSt7__cxx1112basic_stringIcSt11char_traitsIcESaIcEED2Ev.exit290: ; preds = %566, %562
  %567 = getelementptr inbounds %"class.std::__cxx11::basic_string", %"class.std::__cxx11::basic_string"* %25, i64 0, i32 0, i32 0
  %568 = load i8*, i8** %567, align 8, !tbaa !32
  %569 = icmp eq i8* %568, %554
  br i1 %569, label %_ZNSt7__cxx1112basic_stringIcSt11char_traitsIcESaIcEED2Ev.exit291, label %570

; <label>:570                                     ; preds = %_ZNSt7__cxx1112basic_stringIcSt11char_traitsIcESaIcEED2Ev.exit290
  call void @_ZdlPv(i8* %568) #2
  br label %_ZNSt7__cxx1112basic_stringIcSt11char_traitsIcESaIcEED2Ev.exit291

_ZNSt7__cxx1112basic_stringIcSt11char_traitsIcESaIcEED2Ev.exit291: ; preds = %570, %_ZNSt7__cxx1112basic_stringIcSt11char_traitsIcESaIcEED2Ev.exit290
  %571 = getelementptr inbounds %"class.std::__cxx11::basic_string", %"class.std::__cxx11::basic_string"* %27, i64 0, i32 2
  %572 = bitcast %"class.std::__cxx11::basic_string"* %27 to %union.anon**
  store %union.anon* %571, %union.anon** %572, align 8, !tbaa !28
  %573 = bitcast %union.anon* %571 to i8*
  call void @llvm.memcpy.p0i8.p0i8.i64(i8* %573, i8* nonnull getelementptr inbounds ([13 x i8], [13 x i8]* @.str.22, i64 0, i64 0), i64 12, i32 1, i1 false) #2
  %574 = getelementptr inbounds %"class.std::__cxx11::basic_string", %"class.std::__cxx11::basic_string"* %27, i64 0, i32 1
  store i64 12, i64* %574, align 8, !tbaa !30
  %575 = getelementptr inbounds %"class.std::__cxx11::basic_string", %"class.std::__cxx11::basic_string"* %27, i64 0, i32 2, i32 1, i64 4
  store i8 0, i8* %575, align 4, !tbaa !11
  %576 = invoke %class.YAML_Element* @_ZN12YAML_Element3getERKNSt7__cxx1112basic_stringIcSt11char_traitsIcESaIcEEE(%class.YAML_Element* %336, %"class.std::__cxx11::basic_string"* nonnull dereferenceable(32) %27)
          to label %._crit_edge.i.i.i.i303 unwind label %1066

._crit_edge.i.i.i.i303:                           ; preds = %_ZNSt7__cxx1112basic_stringIcSt11char_traitsIcESaIcEED2Ev.exit291
  %577 = getelementptr inbounds %"class.std::__cxx11::basic_string", %"class.std::__cxx11::basic_string"* %28, i64 0, i32 2
  %578 = bitcast %"class.std::__cxx11::basic_string"* %28 to %union.anon**
  store %union.anon* %577, %union.anon** %578, align 8, !tbaa !28
  %579 = bitcast %union.anon* %577 to i8*
  %.phi.trans.insert.i.i.i.i302 = getelementptr inbounds %"class.std::__cxx11::basic_string", %"class.std::__cxx11::basic_string"* %28, i64 0, i32 0, i32 0
  %580 = getelementptr inbounds %"class.std::__cxx11::basic_string", %"class.std::__cxx11::basic_string"* %28, i64 0, i32 1
  %581 = bitcast i64* %580 to <2 x i64>*
  store <2 x i64> <i64 8, i64 2314885858332012372>, <2 x i64>* %581, align 8
  %582 = getelementptr inbounds %"class.std::__cxx11::basic_string", %"class.std::__cxx11::basic_string"* %28, i64 0, i32 2, i32 1, i64 0
  store i8 0, i8* %582, align 8, !tbaa !11
  %583 = load double, double* %251, align 16, !tbaa !22
  %584 = invoke %class.YAML_Element* @_ZN12YAML_Element3addERKNSt7__cxx1112basic_stringIcSt11char_traitsIcESaIcEEEd(%class.YAML_Element* %576, %"class.std::__cxx11::basic_string"* nonnull dereferenceable(32) %28, double %583)
          to label %585 unwind label %1070

; <label>:585                                     ; preds = %._crit_edge.i.i.i.i303
  %586 = load i8*, i8** %.phi.trans.insert.i.i.i.i302, align 8, !tbaa !32
  %587 = icmp eq i8* %586, %579
  br i1 %587, label %_ZNSt7__cxx1112basic_stringIcSt11char_traitsIcESaIcEED2Ev.exit308, label %588

; <label>:588                                     ; preds = %585
  call void @_ZdlPv(i8* %586) #2
  br label %_ZNSt7__cxx1112basic_stringIcSt11char_traitsIcESaIcEED2Ev.exit308

_ZNSt7__cxx1112basic_stringIcSt11char_traitsIcESaIcEED2Ev.exit308: ; preds = %588, %585
  %589 = getelementptr inbounds %"class.std::__cxx11::basic_string", %"class.std::__cxx11::basic_string"* %27, i64 0, i32 0, i32 0
  %590 = load i8*, i8** %589, align 8, !tbaa !32
  %591 = icmp eq i8* %590, %573
  br i1 %591, label %_ZNSt7__cxx1112basic_stringIcSt11char_traitsIcESaIcEED2Ev.exit309, label %592

; <label>:592                                     ; preds = %_ZNSt7__cxx1112basic_stringIcSt11char_traitsIcESaIcEED2Ev.exit308
  call void @_ZdlPv(i8* %590) #2
  br label %_ZNSt7__cxx1112basic_stringIcSt11char_traitsIcESaIcEED2Ev.exit309

_ZNSt7__cxx1112basic_stringIcSt11char_traitsIcESaIcEED2Ev.exit309: ; preds = %592, %_ZNSt7__cxx1112basic_stringIcSt11char_traitsIcESaIcEED2Ev.exit308
  %593 = getelementptr inbounds %"class.std::__cxx11::basic_string", %"class.std::__cxx11::basic_string"* %29, i64 0, i32 2
  %594 = bitcast %"class.std::__cxx11::basic_string"* %29 to %union.anon**
  store %union.anon* %593, %union.anon** %594, align 8, !tbaa !28
  %595 = bitcast %union.anon* %593 to i8*
  call void @llvm.memcpy.p0i8.p0i8.i64(i8* %595, i8* nonnull getelementptr inbounds ([13 x i8], [13 x i8]* @.str.22, i64 0, i64 0), i64 12, i32 1, i1 false) #2
  %596 = getelementptr inbounds %"class.std::__cxx11::basic_string", %"class.std::__cxx11::basic_string"* %29, i64 0, i32 1
  store i64 12, i64* %596, align 8, !tbaa !30
  %597 = getelementptr inbounds %"class.std::__cxx11::basic_string", %"class.std::__cxx11::basic_string"* %29, i64 0, i32 2, i32 1, i64 4
  store i8 0, i8* %597, align 4, !tbaa !11
  %598 = invoke %class.YAML_Element* @_ZN12YAML_Element3getERKNSt7__cxx1112basic_stringIcSt11char_traitsIcESaIcEEE(%class.YAML_Element* %336, %"class.std::__cxx11::basic_string"* nonnull dereferenceable(32) %29)
          to label %._crit_edge.i.i.i.i320 unwind label %1081

._crit_edge.i.i.i.i320:                           ; preds = %_ZNSt7__cxx1112basic_stringIcSt11char_traitsIcESaIcEED2Ev.exit309
  %599 = getelementptr inbounds %"class.std::__cxx11::basic_string", %"class.std::__cxx11::basic_string"* %30, i64 0, i32 2
  %600 = bitcast %"class.std::__cxx11::basic_string"* %30 to %union.anon**
  store %union.anon* %599, %union.anon** %600, align 8, !tbaa !28
  %601 = bitcast %union.anon* %599 to i8*
  %.phi.trans.insert.i.i.i.i319 = getelementptr inbounds %"class.std::__cxx11::basic_string", %"class.std::__cxx11::basic_string"* %30, i64 0, i32 0, i32 0
  %602 = getelementptr inbounds %"class.std::__cxx11::basic_string", %"class.std::__cxx11::basic_string"* %30, i64 0, i32 1
  %603 = bitcast i64* %602 to <2 x i64>*
  store <2 x i64> <i64 8, i64 2314885531693958212>, <2 x i64>* %603, align 8
  %604 = getelementptr inbounds %"class.std::__cxx11::basic_string", %"class.std::__cxx11::basic_string"* %30, i64 0, i32 2, i32 1, i64 0
  store i8 0, i8* %604, align 8, !tbaa !11
  %605 = getelementptr inbounds [7 x double], [7 x double]* %times, i64 0, i64 1
  %606 = load double, double* %605, align 8, !tbaa !22
  %607 = invoke %class.YAML_Element* @_ZN12YAML_Element3addERKNSt7__cxx1112basic_stringIcSt11char_traitsIcESaIcEEEd(%class.YAML_Element* %598, %"class.std::__cxx11::basic_string"* nonnull dereferenceable(32) %30, double %606)
          to label %608 unwind label %1085

; <label>:608                                     ; preds = %._crit_edge.i.i.i.i320
  %609 = load i8*, i8** %.phi.trans.insert.i.i.i.i319, align 8, !tbaa !32
  %610 = icmp eq i8* %609, %601
  br i1 %610, label %_ZNSt7__cxx1112basic_stringIcSt11char_traitsIcESaIcEED2Ev.exit325, label %611

; <label>:611                                     ; preds = %608
  call void @_ZdlPv(i8* %609) #2
  br label %_ZNSt7__cxx1112basic_stringIcSt11char_traitsIcESaIcEED2Ev.exit325

_ZNSt7__cxx1112basic_stringIcSt11char_traitsIcESaIcEED2Ev.exit325: ; preds = %611, %608
  %612 = getelementptr inbounds %"class.std::__cxx11::basic_string", %"class.std::__cxx11::basic_string"* %29, i64 0, i32 0, i32 0
  %613 = load i8*, i8** %612, align 8, !tbaa !32
  %614 = icmp eq i8* %613, %595
  br i1 %614, label %_ZNSt7__cxx1112basic_stringIcSt11char_traitsIcESaIcEED2Ev.exit326, label %615

; <label>:615                                     ; preds = %_ZNSt7__cxx1112basic_stringIcSt11char_traitsIcESaIcEED2Ev.exit325
  call void @_ZdlPv(i8* %613) #2
  br label %_ZNSt7__cxx1112basic_stringIcSt11char_traitsIcESaIcEED2Ev.exit326

_ZNSt7__cxx1112basic_stringIcSt11char_traitsIcESaIcEED2Ev.exit326: ; preds = %615, %_ZNSt7__cxx1112basic_stringIcSt11char_traitsIcESaIcEED2Ev.exit325
  %616 = getelementptr inbounds %"class.std::__cxx11::basic_string", %"class.std::__cxx11::basic_string"* %31, i64 0, i32 2
  %617 = bitcast %"class.std::__cxx11::basic_string"* %31 to %union.anon**
  store %union.anon* %616, %union.anon** %617, align 8, !tbaa !28
  %618 = bitcast %union.anon* %616 to i8*
  call void @llvm.memcpy.p0i8.p0i8.i64(i8* %618, i8* nonnull getelementptr inbounds ([13 x i8], [13 x i8]* @.str.22, i64 0, i64 0), i64 12, i32 1, i1 false) #2
  %619 = getelementptr inbounds %"class.std::__cxx11::basic_string", %"class.std::__cxx11::basic_string"* %31, i64 0, i32 1
  store i64 12, i64* %619, align 8, !tbaa !30
  %620 = getelementptr inbounds %"class.std::__cxx11::basic_string", %"class.std::__cxx11::basic_string"* %31, i64 0, i32 2, i32 1, i64 4
  store i8 0, i8* %620, align 4, !tbaa !11
  %621 = invoke %class.YAML_Element* @_ZN12YAML_Element3getERKNSt7__cxx1112basic_stringIcSt11char_traitsIcESaIcEEE(%class.YAML_Element* %336, %"class.std::__cxx11::basic_string"* nonnull dereferenceable(32) %31)
          to label %._crit_edge.i.i.i.i336 unwind label %1096

._crit_edge.i.i.i.i336:                           ; preds = %_ZNSt7__cxx1112basic_stringIcSt11char_traitsIcESaIcEED2Ev.exit326
  %622 = getelementptr inbounds %"class.std::__cxx11::basic_string", %"class.std::__cxx11::basic_string"* %32, i64 0, i32 2
  %623 = bitcast %"class.std::__cxx11::basic_string"* %32 to %union.anon**
  store %union.anon* %622, %union.anon** %623, align 8, !tbaa !28
  %624 = bitcast %union.anon* %622 to i8*
  %.phi.trans.insert.i.i.i.i335 = getelementptr inbounds %"class.std::__cxx11::basic_string", %"class.std::__cxx11::basic_string"* %32, i64 0, i32 0, i32 0
  %625 = getelementptr inbounds %"class.std::__cxx11::basic_string", %"class.std::__cxx11::basic_string"* %32, i64 0, i32 1
  %626 = bitcast i64* %625 to <2 x i64>*
  store <2 x i64> <i64 8, i64 2314948349819109719>, <2 x i64>* %626, align 8
  %627 = getelementptr inbounds %"class.std::__cxx11::basic_string", %"class.std::__cxx11::basic_string"* %32, i64 0, i32 2, i32 1, i64 0
  store i8 0, i8* %627, align 8, !tbaa !11
  %628 = getelementptr inbounds [7 x double], [7 x double]* %times, i64 0, i64 2
  %629 = load double, double* %628, align 16, !tbaa !22
  %630 = invoke %class.YAML_Element* @_ZN12YAML_Element3addERKNSt7__cxx1112basic_stringIcSt11char_traitsIcESaIcEEEd(%class.YAML_Element* %621, %"class.std::__cxx11::basic_string"* nonnull dereferenceable(32) %32, double %629)
          to label %631 unwind label %1100

; <label>:631                                     ; preds = %._crit_edge.i.i.i.i336
  %632 = load i8*, i8** %.phi.trans.insert.i.i.i.i335, align 8, !tbaa !32
  %633 = icmp eq i8* %632, %624
  br i1 %633, label %_ZNSt7__cxx1112basic_stringIcSt11char_traitsIcESaIcEED2Ev.exit341, label %634

; <label>:634                                     ; preds = %631
  call void @_ZdlPv(i8* %632) #2
  br label %_ZNSt7__cxx1112basic_stringIcSt11char_traitsIcESaIcEED2Ev.exit341

_ZNSt7__cxx1112basic_stringIcSt11char_traitsIcESaIcEED2Ev.exit341: ; preds = %634, %631
  %635 = getelementptr inbounds %"class.std::__cxx11::basic_string", %"class.std::__cxx11::basic_string"* %31, i64 0, i32 0, i32 0
  %636 = load i8*, i8** %635, align 8, !tbaa !32
  %637 = icmp eq i8* %636, %618
  br i1 %637, label %_ZNSt7__cxx1112basic_stringIcSt11char_traitsIcESaIcEED2Ev.exit342, label %638

; <label>:638                                     ; preds = %_ZNSt7__cxx1112basic_stringIcSt11char_traitsIcESaIcEED2Ev.exit341
  call void @_ZdlPv(i8* %636) #2
  br label %_ZNSt7__cxx1112basic_stringIcSt11char_traitsIcESaIcEED2Ev.exit342

_ZNSt7__cxx1112basic_stringIcSt11char_traitsIcESaIcEED2Ev.exit342: ; preds = %638, %_ZNSt7__cxx1112basic_stringIcSt11char_traitsIcESaIcEED2Ev.exit341
  %639 = getelementptr inbounds %"class.std::__cxx11::basic_string", %"class.std::__cxx11::basic_string"* %33, i64 0, i32 2
  %640 = bitcast %"class.std::__cxx11::basic_string"* %33 to %union.anon**
  store %union.anon* %639, %union.anon** %640, align 8, !tbaa !28
  %641 = bitcast %union.anon* %639 to i8*
  call void @llvm.memcpy.p0i8.p0i8.i64(i8* %641, i8* nonnull getelementptr inbounds ([13 x i8], [13 x i8]* @.str.22, i64 0, i64 0), i64 12, i32 1, i1 false) #2
  %642 = getelementptr inbounds %"class.std::__cxx11::basic_string", %"class.std::__cxx11::basic_string"* %33, i64 0, i32 1
  store i64 12, i64* %642, align 8, !tbaa !30
  %643 = getelementptr inbounds %"class.std::__cxx11::basic_string", %"class.std::__cxx11::basic_string"* %33, i64 0, i32 2, i32 1, i64 4
  store i8 0, i8* %643, align 4, !tbaa !11
  %644 = invoke %class.YAML_Element* @_ZN12YAML_Element3getERKNSt7__cxx1112basic_stringIcSt11char_traitsIcESaIcEEE(%class.YAML_Element* %336, %"class.std::__cxx11::basic_string"* nonnull dereferenceable(32) %33)
          to label %._crit_edge.i.i.i.i352 unwind label %1111

._crit_edge.i.i.i.i352:                           ; preds = %_ZNSt7__cxx1112basic_stringIcSt11char_traitsIcESaIcEED2Ev.exit342
  %645 = getelementptr inbounds %"class.std::__cxx11::basic_string", %"class.std::__cxx11::basic_string"* %34, i64 0, i32 2
  %646 = bitcast %"class.std::__cxx11::basic_string"* %34 to %union.anon**
  store %union.anon* %645, %union.anon** %646, align 8, !tbaa !28
  %647 = bitcast %union.anon* %645 to i8*
  %.phi.trans.insert.i.i.i.i351 = getelementptr inbounds %"class.std::__cxx11::basic_string", %"class.std::__cxx11::basic_string"* %34, i64 0, i32 0, i32 0
  %648 = getelementptr inbounds %"class.std::__cxx11::basic_string", %"class.std::__cxx11::basic_string"* %34, i64 0, i32 1
  %649 = bitcast i64* %648 to <2 x i64>*
  store <2 x i64> <i64 8, i64 6218702884633137235>, <2 x i64>* %649, align 8
  %650 = getelementptr inbounds %"class.std::__cxx11::basic_string", %"class.std::__cxx11::basic_string"* %34, i64 0, i32 2, i32 1, i64 0
  store i8 0, i8* %650, align 8, !tbaa !11
  %651 = getelementptr inbounds [7 x double], [7 x double]* %times, i64 0, i64 3
  %652 = load double, double* %651, align 8, !tbaa !22
  %653 = invoke %class.YAML_Element* @_ZN12YAML_Element3addERKNSt7__cxx1112basic_stringIcSt11char_traitsIcESaIcEEEd(%class.YAML_Element* %644, %"class.std::__cxx11::basic_string"* nonnull dereferenceable(32) %34, double %652)
          to label %654 unwind label %1115

; <label>:654                                     ; preds = %._crit_edge.i.i.i.i352
  %655 = load i8*, i8** %.phi.trans.insert.i.i.i.i351, align 8, !tbaa !32
  %656 = icmp eq i8* %655, %647
  br i1 %656, label %_ZNSt7__cxx1112basic_stringIcSt11char_traitsIcESaIcEED2Ev.exit357, label %657

; <label>:657                                     ; preds = %654
  call void @_ZdlPv(i8* %655) #2
  br label %_ZNSt7__cxx1112basic_stringIcSt11char_traitsIcESaIcEED2Ev.exit357

_ZNSt7__cxx1112basic_stringIcSt11char_traitsIcESaIcEED2Ev.exit357: ; preds = %657, %654
  %658 = getelementptr inbounds %"class.std::__cxx11::basic_string", %"class.std::__cxx11::basic_string"* %33, i64 0, i32 0, i32 0
  %659 = load i8*, i8** %658, align 8, !tbaa !32
  %660 = icmp eq i8* %659, %641
  br i1 %660, label %_ZNSt7__cxx1112basic_stringIcSt11char_traitsIcESaIcEED2Ev.exit358, label %661

; <label>:661                                     ; preds = %_ZNSt7__cxx1112basic_stringIcSt11char_traitsIcESaIcEED2Ev.exit357
  call void @_ZdlPv(i8* %659) #2
  br label %_ZNSt7__cxx1112basic_stringIcSt11char_traitsIcESaIcEED2Ev.exit358

_ZNSt7__cxx1112basic_stringIcSt11char_traitsIcESaIcEED2Ev.exit358: ; preds = %661, %_ZNSt7__cxx1112basic_stringIcSt11char_traitsIcESaIcEED2Ev.exit357
  %662 = getelementptr inbounds %"class.std::__cxx11::basic_string", %"class.std::__cxx11::basic_string"* %35, i64 0, i32 2
  %663 = bitcast %"class.std::__cxx11::basic_string"* %35 to %union.anon**
  store %union.anon* %662, %union.anon** %663, align 8, !tbaa !28
  %664 = bitcast %union.anon* %662 to i8*
  call void @llvm.memcpy.p0i8.p0i8.i64(i8* %664, i8* nonnull getelementptr inbounds ([14 x i8], [14 x i8]* @.str.27, i64 0, i64 0), i64 13, i32 1, i1 false) #2
  %665 = getelementptr inbounds %"class.std::__cxx11::basic_string", %"class.std::__cxx11::basic_string"* %35, i64 0, i32 1
  store i64 13, i64* %665, align 8, !tbaa !30
  %666 = getelementptr inbounds %"class.std::__cxx11::basic_string", %"class.std::__cxx11::basic_string"* %35, i64 0, i32 2, i32 1, i64 5
  store i8 0, i8* %666, align 1, !tbaa !11
  %667 = getelementptr inbounds %"class.std::__cxx11::basic_string", %"class.std::__cxx11::basic_string"* %36, i64 0, i32 2
  %668 = bitcast %"class.std::__cxx11::basic_string"* %36 to %union.anon**
  store %union.anon* %667, %union.anon** %668, align 8, !tbaa !28
  %669 = bitcast %union.anon* %667 to i8*
  %670 = getelementptr inbounds %"class.std::__cxx11::basic_string", %"class.std::__cxx11::basic_string"* %36, i64 0, i32 1
  store i64 0, i64* %670, align 8, !tbaa !30
  store i8 0, i8* %669, align 8, !tbaa !11
  %671 = invoke %class.YAML_Element* @_ZN12YAML_Element3addERKNSt7__cxx1112basic_stringIcSt11char_traitsIcESaIcEEES7_(%class.YAML_Element* %336, %"class.std::__cxx11::basic_string"* nonnull dereferenceable(32) %35, %"class.std::__cxx11::basic_string"* nonnull dereferenceable(32) %36)
          to label %672 unwind label %1126

; <label>:672                                     ; preds = %_ZNSt7__cxx1112basic_stringIcSt11char_traitsIcESaIcEED2Ev.exit358
  %673 = getelementptr inbounds %"class.std::__cxx11::basic_string", %"class.std::__cxx11::basic_string"* %36, i64 0, i32 0, i32 0
  %674 = load i8*, i8** %673, align 8, !tbaa !32
  %675 = icmp eq i8* %674, %669
  br i1 %675, label %_ZNSt7__cxx1112basic_stringIcSt11char_traitsIcESaIcEED2Ev.exit375, label %676

; <label>:676                                     ; preds = %672
  call void @_ZdlPv(i8* %674) #2
  br label %_ZNSt7__cxx1112basic_stringIcSt11char_traitsIcESaIcEED2Ev.exit375

_ZNSt7__cxx1112basic_stringIcSt11char_traitsIcESaIcEED2Ev.exit375: ; preds = %676, %672
  %677 = getelementptr inbounds %"class.std::__cxx11::basic_string", %"class.std::__cxx11::basic_string"* %35, i64 0, i32 0, i32 0
  %678 = load i8*, i8** %677, align 8, !tbaa !32
  %679 = icmp eq i8* %678, %664
  br i1 %679, label %_ZNSt7__cxx1112basic_stringIcSt11char_traitsIcESaIcEED2Ev.exit376, label %680

; <label>:680                                     ; preds = %_ZNSt7__cxx1112basic_stringIcSt11char_traitsIcESaIcEED2Ev.exit375
  call void @_ZdlPv(i8* %678) #2
  br label %_ZNSt7__cxx1112basic_stringIcSt11char_traitsIcESaIcEED2Ev.exit376

_ZNSt7__cxx1112basic_stringIcSt11char_traitsIcESaIcEED2Ev.exit376: ; preds = %680, %_ZNSt7__cxx1112basic_stringIcSt11char_traitsIcESaIcEED2Ev.exit375
  %681 = getelementptr inbounds %"class.std::__cxx11::basic_string", %"class.std::__cxx11::basic_string"* %37, i64 0, i32 2
  %682 = bitcast %"class.std::__cxx11::basic_string"* %37 to %union.anon**
  store %union.anon* %681, %union.anon** %682, align 8, !tbaa !28
  %683 = bitcast %union.anon* %681 to i8*
  call void @llvm.memcpy.p0i8.p0i8.i64(i8* %683, i8* nonnull getelementptr inbounds ([14 x i8], [14 x i8]* @.str.27, i64 0, i64 0), i64 13, i32 1, i1 false) #2
  %684 = getelementptr inbounds %"class.std::__cxx11::basic_string", %"class.std::__cxx11::basic_string"* %37, i64 0, i32 1
  store i64 13, i64* %684, align 8, !tbaa !30
  %685 = getelementptr inbounds %"class.std::__cxx11::basic_string", %"class.std::__cxx11::basic_string"* %37, i64 0, i32 2, i32 1, i64 5
  store i8 0, i8* %685, align 1, !tbaa !11
  %686 = invoke %class.YAML_Element* @_ZN12YAML_Element3getERKNSt7__cxx1112basic_stringIcSt11char_traitsIcESaIcEEE(%class.YAML_Element* %336, %"class.std::__cxx11::basic_string"* nonnull dereferenceable(32) %37)
          to label %._crit_edge.i.i.i.i387 unwind label %1138

._crit_edge.i.i.i.i387:                           ; preds = %_ZNSt7__cxx1112basic_stringIcSt11char_traitsIcESaIcEED2Ev.exit376
  %687 = getelementptr inbounds %"class.std::__cxx11::basic_string", %"class.std::__cxx11::basic_string"* %38, i64 0, i32 2
  %688 = bitcast %"class.std::__cxx11::basic_string"* %38 to %union.anon**
  store %union.anon* %687, %union.anon** %688, align 8, !tbaa !28
  %689 = bitcast %union.anon* %687 to i8*
  %.phi.trans.insert.i.i.i.i386 = getelementptr inbounds %"class.std::__cxx11::basic_string", %"class.std::__cxx11::basic_string"* %38, i64 0, i32 0, i32 0
  %690 = getelementptr inbounds %"class.std::__cxx11::basic_string", %"class.std::__cxx11::basic_string"* %38, i64 0, i32 1
  %691 = bitcast i64* %690 to <2 x i64>*
  store <2 x i64> <i64 8, i64 2314885858332012372>, <2 x i64>* %691, align 8
  %692 = getelementptr inbounds %"class.std::__cxx11::basic_string", %"class.std::__cxx11::basic_string"* %38, i64 0, i32 2, i32 1, i64 0
  store i8 0, i8* %692, align 8, !tbaa !11
  %693 = invoke %class.YAML_Element* @_ZN12YAML_Element3addERKNSt7__cxx1112basic_stringIcSt11char_traitsIcESaIcEEEd(%class.YAML_Element* %686, %"class.std::__cxx11::basic_string"* nonnull dereferenceable(32) %38, double %299)
          to label %694 unwind label %1142

; <label>:694                                     ; preds = %._crit_edge.i.i.i.i387
  %695 = load i8*, i8** %.phi.trans.insert.i.i.i.i386, align 8, !tbaa !32
  %696 = icmp eq i8* %695, %689
  br i1 %696, label %_ZNSt7__cxx1112basic_stringIcSt11char_traitsIcESaIcEED2Ev.exit392, label %697

; <label>:697                                     ; preds = %694
  call void @_ZdlPv(i8* %695) #2
  br label %_ZNSt7__cxx1112basic_stringIcSt11char_traitsIcESaIcEED2Ev.exit392

_ZNSt7__cxx1112basic_stringIcSt11char_traitsIcESaIcEED2Ev.exit392: ; preds = %697, %694
  %698 = getelementptr inbounds %"class.std::__cxx11::basic_string", %"class.std::__cxx11::basic_string"* %37, i64 0, i32 0, i32 0
  %699 = load i8*, i8** %698, align 8, !tbaa !32
  %700 = icmp eq i8* %699, %683
  br i1 %700, label %_ZNSt7__cxx1112basic_stringIcSt11char_traitsIcESaIcEED2Ev.exit393, label %701

; <label>:701                                     ; preds = %_ZNSt7__cxx1112basic_stringIcSt11char_traitsIcESaIcEED2Ev.exit392
  call void @_ZdlPv(i8* %699) #2
  br label %_ZNSt7__cxx1112basic_stringIcSt11char_traitsIcESaIcEED2Ev.exit393

_ZNSt7__cxx1112basic_stringIcSt11char_traitsIcESaIcEED2Ev.exit393: ; preds = %701, %_ZNSt7__cxx1112basic_stringIcSt11char_traitsIcESaIcEED2Ev.exit392
  %702 = getelementptr inbounds %"class.std::__cxx11::basic_string", %"class.std::__cxx11::basic_string"* %39, i64 0, i32 2
  %703 = bitcast %"class.std::__cxx11::basic_string"* %39 to %union.anon**
  store %union.anon* %702, %union.anon** %703, align 8, !tbaa !28
  %704 = bitcast %union.anon* %702 to i8*
  call void @llvm.memcpy.p0i8.p0i8.i64(i8* %704, i8* nonnull getelementptr inbounds ([14 x i8], [14 x i8]* @.str.27, i64 0, i64 0), i64 13, i32 1, i1 false) #2
  %705 = getelementptr inbounds %"class.std::__cxx11::basic_string", %"class.std::__cxx11::basic_string"* %39, i64 0, i32 1
  store i64 13, i64* %705, align 8, !tbaa !30
  %706 = getelementptr inbounds %"class.std::__cxx11::basic_string", %"class.std::__cxx11::basic_string"* %39, i64 0, i32 2, i32 1, i64 5
  store i8 0, i8* %706, align 1, !tbaa !11
  %707 = invoke %class.YAML_Element* @_ZN12YAML_Element3getERKNSt7__cxx1112basic_stringIcSt11char_traitsIcESaIcEEE(%class.YAML_Element* %336, %"class.std::__cxx11::basic_string"* nonnull dereferenceable(32) %39)
          to label %._crit_edge.i.i.i.i404 unwind label %1153

._crit_edge.i.i.i.i404:                           ; preds = %_ZNSt7__cxx1112basic_stringIcSt11char_traitsIcESaIcEED2Ev.exit393
  %708 = getelementptr inbounds %"class.std::__cxx11::basic_string", %"class.std::__cxx11::basic_string"* %40, i64 0, i32 2
  %709 = bitcast %"class.std::__cxx11::basic_string"* %40 to %union.anon**
  store %union.anon* %708, %union.anon** %709, align 8, !tbaa !28
  %710 = bitcast %union.anon* %708 to i8*
  %.phi.trans.insert.i.i.i.i403 = getelementptr inbounds %"class.std::__cxx11::basic_string", %"class.std::__cxx11::basic_string"* %40, i64 0, i32 0, i32 0
  %711 = getelementptr inbounds %"class.std::__cxx11::basic_string", %"class.std::__cxx11::basic_string"* %40, i64 0, i32 1
  %712 = bitcast i64* %711 to <2 x i64>*
  store <2 x i64> <i64 8, i64 2314885531693958212>, <2 x i64>* %712, align 8
  %713 = getelementptr inbounds %"class.std::__cxx11::basic_string", %"class.std::__cxx11::basic_string"* %40, i64 0, i32 2, i32 1, i64 0
  store i8 0, i8* %713, align 8, !tbaa !11
  %714 = invoke %class.YAML_Element* @_ZN12YAML_Element3addERKNSt7__cxx1112basic_stringIcSt11char_traitsIcESaIcEEEd(%class.YAML_Element* %707, %"class.std::__cxx11::basic_string"* nonnull dereferenceable(32) %40, double %293)
          to label %715 unwind label %1157

; <label>:715                                     ; preds = %._crit_edge.i.i.i.i404
  %716 = load i8*, i8** %.phi.trans.insert.i.i.i.i403, align 8, !tbaa !32
  %717 = icmp eq i8* %716, %710
  br i1 %717, label %_ZNSt7__cxx1112basic_stringIcSt11char_traitsIcESaIcEED2Ev.exit409, label %718

; <label>:718                                     ; preds = %715
  call void @_ZdlPv(i8* %716) #2
  br label %_ZNSt7__cxx1112basic_stringIcSt11char_traitsIcESaIcEED2Ev.exit409

_ZNSt7__cxx1112basic_stringIcSt11char_traitsIcESaIcEED2Ev.exit409: ; preds = %718, %715
  %719 = getelementptr inbounds %"class.std::__cxx11::basic_string", %"class.std::__cxx11::basic_string"* %39, i64 0, i32 0, i32 0
  %720 = load i8*, i8** %719, align 8, !tbaa !32
  %721 = icmp eq i8* %720, %704
  br i1 %721, label %_ZNSt7__cxx1112basic_stringIcSt11char_traitsIcESaIcEED2Ev.exit410, label %722

; <label>:722                                     ; preds = %_ZNSt7__cxx1112basic_stringIcSt11char_traitsIcESaIcEED2Ev.exit409
  call void @_ZdlPv(i8* %720) #2
  br label %_ZNSt7__cxx1112basic_stringIcSt11char_traitsIcESaIcEED2Ev.exit410

_ZNSt7__cxx1112basic_stringIcSt11char_traitsIcESaIcEED2Ev.exit410: ; preds = %722, %_ZNSt7__cxx1112basic_stringIcSt11char_traitsIcESaIcEED2Ev.exit409
  %723 = getelementptr inbounds %"class.std::__cxx11::basic_string", %"class.std::__cxx11::basic_string"* %41, i64 0, i32 2
  %724 = bitcast %"class.std::__cxx11::basic_string"* %41 to %union.anon**
  store %union.anon* %723, %union.anon** %724, align 8, !tbaa !28
  %725 = bitcast %union.anon* %723 to i8*
  call void @llvm.memcpy.p0i8.p0i8.i64(i8* %725, i8* nonnull getelementptr inbounds ([14 x i8], [14 x i8]* @.str.27, i64 0, i64 0), i64 13, i32 1, i1 false) #2
  %726 = getelementptr inbounds %"class.std::__cxx11::basic_string", %"class.std::__cxx11::basic_string"* %41, i64 0, i32 1
  store i64 13, i64* %726, align 8, !tbaa !30
  %727 = getelementptr inbounds %"class.std::__cxx11::basic_string", %"class.std::__cxx11::basic_string"* %41, i64 0, i32 2, i32 1, i64 5
  store i8 0, i8* %727, align 1, !tbaa !11
  %728 = invoke %class.YAML_Element* @_ZN12YAML_Element3getERKNSt7__cxx1112basic_stringIcSt11char_traitsIcESaIcEEE(%class.YAML_Element* %336, %"class.std::__cxx11::basic_string"* nonnull dereferenceable(32) %41)
          to label %._crit_edge.i.i.i.i422 unwind label %1168

._crit_edge.i.i.i.i422:                           ; preds = %_ZNSt7__cxx1112basic_stringIcSt11char_traitsIcESaIcEED2Ev.exit410
  %729 = getelementptr inbounds %"class.std::__cxx11::basic_string", %"class.std::__cxx11::basic_string"* %42, i64 0, i32 2
  %730 = bitcast %"class.std::__cxx11::basic_string"* %42 to %union.anon**
  store %union.anon* %729, %union.anon** %730, align 8, !tbaa !28
  %731 = bitcast %union.anon* %729 to i8*
  %.phi.trans.insert.i.i.i.i421 = getelementptr inbounds %"class.std::__cxx11::basic_string", %"class.std::__cxx11::basic_string"* %42, i64 0, i32 0, i32 0
  %732 = getelementptr inbounds %"class.std::__cxx11::basic_string", %"class.std::__cxx11::basic_string"* %42, i64 0, i32 1
  %733 = bitcast i64* %732 to <2 x i64>*
  store <2 x i64> <i64 8, i64 2314948349819109719>, <2 x i64>* %733, align 8
  %734 = getelementptr inbounds %"class.std::__cxx11::basic_string", %"class.std::__cxx11::basic_string"* %42, i64 0, i32 2, i32 1, i64 0
  store i8 0, i8* %734, align 8, !tbaa !11
  %735 = invoke %class.YAML_Element* @_ZN12YAML_Element3addERKNSt7__cxx1112basic_stringIcSt11char_traitsIcESaIcEEEd(%class.YAML_Element* %728, %"class.std::__cxx11::basic_string"* nonnull dereferenceable(32) %42, double %295)
          to label %736 unwind label %1172

; <label>:736                                     ; preds = %._crit_edge.i.i.i.i422
  %737 = load i8*, i8** %.phi.trans.insert.i.i.i.i421, align 8, !tbaa !32
  %738 = icmp eq i8* %737, %731
  br i1 %738, label %_ZNSt7__cxx1112basic_stringIcSt11char_traitsIcESaIcEED2Ev.exit427, label %739

; <label>:739                                     ; preds = %736
  call void @_ZdlPv(i8* %737) #2
  br label %_ZNSt7__cxx1112basic_stringIcSt11char_traitsIcESaIcEED2Ev.exit427

_ZNSt7__cxx1112basic_stringIcSt11char_traitsIcESaIcEED2Ev.exit427: ; preds = %739, %736
  %740 = getelementptr inbounds %"class.std::__cxx11::basic_string", %"class.std::__cxx11::basic_string"* %41, i64 0, i32 0, i32 0
  %741 = load i8*, i8** %740, align 8, !tbaa !32
  %742 = icmp eq i8* %741, %725
  br i1 %742, label %_ZNSt7__cxx1112basic_stringIcSt11char_traitsIcESaIcEED2Ev.exit428, label %743

; <label>:743                                     ; preds = %_ZNSt7__cxx1112basic_stringIcSt11char_traitsIcESaIcEED2Ev.exit427
  call void @_ZdlPv(i8* %741) #2
  br label %_ZNSt7__cxx1112basic_stringIcSt11char_traitsIcESaIcEED2Ev.exit428

_ZNSt7__cxx1112basic_stringIcSt11char_traitsIcESaIcEED2Ev.exit428: ; preds = %743, %_ZNSt7__cxx1112basic_stringIcSt11char_traitsIcESaIcEED2Ev.exit427
  %744 = getelementptr inbounds %"class.std::__cxx11::basic_string", %"class.std::__cxx11::basic_string"* %43, i64 0, i32 2
  %745 = bitcast %"class.std::__cxx11::basic_string"* %43 to %union.anon**
  store %union.anon* %744, %union.anon** %745, align 8, !tbaa !28
  %746 = bitcast %union.anon* %744 to i8*
  call void @llvm.memcpy.p0i8.p0i8.i64(i8* %746, i8* nonnull getelementptr inbounds ([14 x i8], [14 x i8]* @.str.27, i64 0, i64 0), i64 13, i32 1, i1 false) #2
  %747 = getelementptr inbounds %"class.std::__cxx11::basic_string", %"class.std::__cxx11::basic_string"* %43, i64 0, i32 1
  store i64 13, i64* %747, align 8, !tbaa !30
  %748 = getelementptr inbounds %"class.std::__cxx11::basic_string", %"class.std::__cxx11::basic_string"* %43, i64 0, i32 2, i32 1, i64 5
  store i8 0, i8* %748, align 1, !tbaa !11
  %749 = invoke %class.YAML_Element* @_ZN12YAML_Element3getERKNSt7__cxx1112basic_stringIcSt11char_traitsIcESaIcEEE(%class.YAML_Element* %336, %"class.std::__cxx11::basic_string"* nonnull dereferenceable(32) %43)
          to label %._crit_edge.i.i.i.i440 unwind label %1183

._crit_edge.i.i.i.i440:                           ; preds = %_ZNSt7__cxx1112basic_stringIcSt11char_traitsIcESaIcEED2Ev.exit428
  %750 = getelementptr inbounds %"class.std::__cxx11::basic_string", %"class.std::__cxx11::basic_string"* %44, i64 0, i32 2
  %751 = bitcast %"class.std::__cxx11::basic_string"* %44 to %union.anon**
  store %union.anon* %750, %union.anon** %751, align 8, !tbaa !28
  %752 = bitcast %union.anon* %750 to i8*
  %.phi.trans.insert.i.i.i.i439 = getelementptr inbounds %"class.std::__cxx11::basic_string", %"class.std::__cxx11::basic_string"* %44, i64 0, i32 0, i32 0
  %753 = getelementptr inbounds %"class.std::__cxx11::basic_string", %"class.std::__cxx11::basic_string"* %44, i64 0, i32 1
  %754 = bitcast i64* %753 to <2 x i64>*
  store <2 x i64> <i64 8, i64 6218702884633137235>, <2 x i64>* %754, align 8
  %755 = getelementptr inbounds %"class.std::__cxx11::basic_string", %"class.std::__cxx11::basic_string"* %44, i64 0, i32 2, i32 1, i64 0
  store i8 0, i8* %755, align 8, !tbaa !11
  %756 = invoke %class.YAML_Element* @_ZN12YAML_Element3addERKNSt7__cxx1112basic_stringIcSt11char_traitsIcESaIcEEEd(%class.YAML_Element* %749, %"class.std::__cxx11::basic_string"* nonnull dereferenceable(32) %44, double %297)
          to label %757 unwind label %1187

; <label>:757                                     ; preds = %._crit_edge.i.i.i.i440
  %758 = load i8*, i8** %.phi.trans.insert.i.i.i.i439, align 8, !tbaa !32
  %759 = icmp eq i8* %758, %752
  br i1 %759, label %_ZNSt7__cxx1112basic_stringIcSt11char_traitsIcESaIcEED2Ev.exit445, label %760

; <label>:760                                     ; preds = %757
  call void @_ZdlPv(i8* %758) #2
  br label %_ZNSt7__cxx1112basic_stringIcSt11char_traitsIcESaIcEED2Ev.exit445

_ZNSt7__cxx1112basic_stringIcSt11char_traitsIcESaIcEED2Ev.exit445: ; preds = %760, %757
  %761 = getelementptr inbounds %"class.std::__cxx11::basic_string", %"class.std::__cxx11::basic_string"* %43, i64 0, i32 0, i32 0
  %762 = load i8*, i8** %761, align 8, !tbaa !32
  %763 = icmp eq i8* %762, %746
  br i1 %763, label %_ZNSt7__cxx1112basic_stringIcSt11char_traitsIcESaIcEED2Ev.exit446, label %764

; <label>:764                                     ; preds = %_ZNSt7__cxx1112basic_stringIcSt11char_traitsIcESaIcEED2Ev.exit445
  call void @_ZdlPv(i8* %762) #2
  br label %_ZNSt7__cxx1112basic_stringIcSt11char_traitsIcESaIcEED2Ev.exit446

_ZNSt7__cxx1112basic_stringIcSt11char_traitsIcESaIcEED2Ev.exit446: ; preds = %764, %_ZNSt7__cxx1112basic_stringIcSt11char_traitsIcESaIcEED2Ev.exit445
  %765 = getelementptr inbounds %"class.std::__cxx11::basic_string", %"class.std::__cxx11::basic_string"* %45, i64 0, i32 2
  %766 = bitcast %"class.std::__cxx11::basic_string"* %45 to %union.anon**
  store %union.anon* %765, %union.anon** %766, align 8, !tbaa !28
  %767 = bitcast %union.anon* %765 to i8*
  call void @llvm.memcpy.p0i8.p0i8.i64(i8* %767, i8* nonnull getelementptr inbounds ([15 x i8], [15 x i8]* @.str.28, i64 0, i64 0), i64 14, i32 1, i1 false) #2
  %768 = getelementptr inbounds %"class.std::__cxx11::basic_string", %"class.std::__cxx11::basic_string"* %45, i64 0, i32 1
  store i64 14, i64* %768, align 8, !tbaa !30
  %769 = getelementptr inbounds %"class.std::__cxx11::basic_string", %"class.std::__cxx11::basic_string"* %45, i64 0, i32 2, i32 1, i64 6
  store i8 0, i8* %769, align 2, !tbaa !11
  %770 = getelementptr inbounds %"class.std::__cxx11::basic_string", %"class.std::__cxx11::basic_string"* %46, i64 0, i32 2
  %771 = bitcast %"class.std::__cxx11::basic_string"* %46 to %union.anon**
  store %union.anon* %770, %union.anon** %771, align 8, !tbaa !28
  %772 = bitcast %union.anon* %770 to i8*
  %773 = getelementptr inbounds %"class.std::__cxx11::basic_string", %"class.std::__cxx11::basic_string"* %46, i64 0, i32 1
  store i64 0, i64* %773, align 8, !tbaa !30
  store i8 0, i8* %772, align 8, !tbaa !11
  %774 = invoke %class.YAML_Element* @_ZN12YAML_Element3addERKNSt7__cxx1112basic_stringIcSt11char_traitsIcESaIcEEES7_(%class.YAML_Element* %336, %"class.std::__cxx11::basic_string"* nonnull dereferenceable(32) %45, %"class.std::__cxx11::basic_string"* nonnull dereferenceable(32) %46)
          to label %775 unwind label %1198

; <label>:775                                     ; preds = %_ZNSt7__cxx1112basic_stringIcSt11char_traitsIcESaIcEED2Ev.exit446
  %776 = getelementptr inbounds %"class.std::__cxx11::basic_string", %"class.std::__cxx11::basic_string"* %46, i64 0, i32 0, i32 0
  %777 = load i8*, i8** %776, align 8, !tbaa !32
  %778 = icmp eq i8* %777, %772
  br i1 %778, label %_ZNSt7__cxx1112basic_stringIcSt11char_traitsIcESaIcEED2Ev.exit463, label %779

; <label>:779                                     ; preds = %775
  call void @_ZdlPv(i8* %777) #2
  br label %_ZNSt7__cxx1112basic_stringIcSt11char_traitsIcESaIcEED2Ev.exit463

_ZNSt7__cxx1112basic_stringIcSt11char_traitsIcESaIcEED2Ev.exit463: ; preds = %779, %775
  %780 = getelementptr inbounds %"class.std::__cxx11::basic_string", %"class.std::__cxx11::basic_string"* %45, i64 0, i32 0, i32 0
  %781 = load i8*, i8** %780, align 8, !tbaa !32
  %782 = icmp eq i8* %781, %767
  br i1 %782, label %_ZNSt7__cxx1112basic_stringIcSt11char_traitsIcESaIcEED2Ev.exit464, label %783

; <label>:783                                     ; preds = %_ZNSt7__cxx1112basic_stringIcSt11char_traitsIcESaIcEED2Ev.exit463
  call void @_ZdlPv(i8* %781) #2
  br label %_ZNSt7__cxx1112basic_stringIcSt11char_traitsIcESaIcEED2Ev.exit464

_ZNSt7__cxx1112basic_stringIcSt11char_traitsIcESaIcEED2Ev.exit464: ; preds = %783, %_ZNSt7__cxx1112basic_stringIcSt11char_traitsIcESaIcEED2Ev.exit463
  %784 = getelementptr inbounds %"class.std::__cxx11::basic_string", %"class.std::__cxx11::basic_string"* %47, i64 0, i32 2
  %785 = bitcast %"class.std::__cxx11::basic_string"* %47 to %union.anon**
  store %union.anon* %784, %union.anon** %785, align 8, !tbaa !28
  %786 = bitcast %union.anon* %784 to i8*
  call void @llvm.memcpy.p0i8.p0i8.i64(i8* %786, i8* nonnull getelementptr inbounds ([15 x i8], [15 x i8]* @.str.28, i64 0, i64 0), i64 14, i32 1, i1 false) #2
  %787 = getelementptr inbounds %"class.std::__cxx11::basic_string", %"class.std::__cxx11::basic_string"* %47, i64 0, i32 1
  store i64 14, i64* %787, align 8, !tbaa !30
  %788 = getelementptr inbounds %"class.std::__cxx11::basic_string", %"class.std::__cxx11::basic_string"* %47, i64 0, i32 2, i32 1, i64 6
  store i8 0, i8* %788, align 2, !tbaa !11
  %789 = invoke %class.YAML_Element* @_ZN12YAML_Element3getERKNSt7__cxx1112basic_stringIcSt11char_traitsIcESaIcEEE(%class.YAML_Element* %336, %"class.std::__cxx11::basic_string"* nonnull dereferenceable(32) %47)
          to label %._crit_edge.i.i.i.i476 unwind label %1210

._crit_edge.i.i.i.i476:                           ; preds = %_ZNSt7__cxx1112basic_stringIcSt11char_traitsIcESaIcEED2Ev.exit464
  %790 = getelementptr inbounds %"class.std::__cxx11::basic_string", %"class.std::__cxx11::basic_string"* %48, i64 0, i32 2
  %791 = bitcast %"class.std::__cxx11::basic_string"* %48 to %union.anon**
  store %union.anon* %790, %union.anon** %791, align 8, !tbaa !28
  %792 = bitcast %union.anon* %790 to i8*
  %.phi.trans.insert.i.i.i.i475 = getelementptr inbounds %"class.std::__cxx11::basic_string", %"class.std::__cxx11::basic_string"* %48, i64 0, i32 0, i32 0
  %793 = getelementptr inbounds %"class.std::__cxx11::basic_string", %"class.std::__cxx11::basic_string"* %48, i64 0, i32 1
  %794 = bitcast i64* %793 to <2 x i64>*
  store <2 x i64> <i64 8, i64 2314885858332012372>, <2 x i64>* %794, align 8
  %795 = getelementptr inbounds %"class.std::__cxx11::basic_string", %"class.std::__cxx11::basic_string"* %48, i64 0, i32 2, i32 1, i64 0
  store i8 0, i8* %795, align 8, !tbaa !11
  %796 = fdiv double %299, %583
  %797 = fdiv double %796, 1.000000e+06
  %798 = invoke %class.YAML_Element* @_ZN12YAML_Element3addERKNSt7__cxx1112basic_stringIcSt11char_traitsIcESaIcEEEd(%class.YAML_Element* %789, %"class.std::__cxx11::basic_string"* nonnull dereferenceable(32) %48, double %797)
          to label %799 unwind label %1214

; <label>:799                                     ; preds = %._crit_edge.i.i.i.i476
  %800 = load i8*, i8** %.phi.trans.insert.i.i.i.i475, align 8, !tbaa !32
  %801 = icmp eq i8* %800, %792
  br i1 %801, label %_ZNSt7__cxx1112basic_stringIcSt11char_traitsIcESaIcEED2Ev.exit481, label %802

; <label>:802                                     ; preds = %799
  call void @_ZdlPv(i8* %800) #2
  br label %_ZNSt7__cxx1112basic_stringIcSt11char_traitsIcESaIcEED2Ev.exit481

_ZNSt7__cxx1112basic_stringIcSt11char_traitsIcESaIcEED2Ev.exit481: ; preds = %802, %799
  %803 = getelementptr inbounds %"class.std::__cxx11::basic_string", %"class.std::__cxx11::basic_string"* %47, i64 0, i32 0, i32 0
  %804 = load i8*, i8** %803, align 8, !tbaa !32
  %805 = icmp eq i8* %804, %786
  br i1 %805, label %_ZNSt7__cxx1112basic_stringIcSt11char_traitsIcESaIcEED2Ev.exit482, label %806

; <label>:806                                     ; preds = %_ZNSt7__cxx1112basic_stringIcSt11char_traitsIcESaIcEED2Ev.exit481
  call void @_ZdlPv(i8* %804) #2
  br label %_ZNSt7__cxx1112basic_stringIcSt11char_traitsIcESaIcEED2Ev.exit482

_ZNSt7__cxx1112basic_stringIcSt11char_traitsIcESaIcEED2Ev.exit482: ; preds = %806, %_ZNSt7__cxx1112basic_stringIcSt11char_traitsIcESaIcEED2Ev.exit481
  %807 = getelementptr inbounds %"class.std::__cxx11::basic_string", %"class.std::__cxx11::basic_string"* %49, i64 0, i32 2
  %808 = bitcast %"class.std::__cxx11::basic_string"* %49 to %union.anon**
  store %union.anon* %807, %union.anon** %808, align 8, !tbaa !28
  %809 = bitcast %union.anon* %807 to i8*
  call void @llvm.memcpy.p0i8.p0i8.i64(i8* %809, i8* nonnull getelementptr inbounds ([15 x i8], [15 x i8]* @.str.28, i64 0, i64 0), i64 14, i32 1, i1 false) #2
  %810 = getelementptr inbounds %"class.std::__cxx11::basic_string", %"class.std::__cxx11::basic_string"* %49, i64 0, i32 1
  store i64 14, i64* %810, align 8, !tbaa !30
  %811 = getelementptr inbounds %"class.std::__cxx11::basic_string", %"class.std::__cxx11::basic_string"* %49, i64 0, i32 2, i32 1, i64 6
  store i8 0, i8* %811, align 2, !tbaa !11
  %812 = invoke %class.YAML_Element* @_ZN12YAML_Element3getERKNSt7__cxx1112basic_stringIcSt11char_traitsIcESaIcEEE(%class.YAML_Element* %336, %"class.std::__cxx11::basic_string"* nonnull dereferenceable(32) %49)
          to label %._crit_edge.i.i.i.i494 unwind label %1225

._crit_edge.i.i.i.i494:                           ; preds = %_ZNSt7__cxx1112basic_stringIcSt11char_traitsIcESaIcEED2Ev.exit482
  %813 = getelementptr inbounds %"class.std::__cxx11::basic_string", %"class.std::__cxx11::basic_string"* %50, i64 0, i32 2
  %814 = bitcast %"class.std::__cxx11::basic_string"* %50 to %union.anon**
  store %union.anon* %813, %union.anon** %814, align 8, !tbaa !28
  %815 = bitcast %union.anon* %813 to i8*
  %.phi.trans.insert.i.i.i.i493 = getelementptr inbounds %"class.std::__cxx11::basic_string", %"class.std::__cxx11::basic_string"* %50, i64 0, i32 0, i32 0
  %816 = getelementptr inbounds %"class.std::__cxx11::basic_string", %"class.std::__cxx11::basic_string"* %50, i64 0, i32 1
  %817 = bitcast i64* %816 to <2 x i64>*
  store <2 x i64> <i64 8, i64 2314885531693958212>, <2 x i64>* %817, align 8
  %818 = getelementptr inbounds %"class.std::__cxx11::basic_string", %"class.std::__cxx11::basic_string"* %50, i64 0, i32 2, i32 1, i64 0
  store i8 0, i8* %818, align 8, !tbaa !11
  %819 = fdiv double %293, %606
  %820 = fdiv double %819, 1.000000e+06
  %821 = invoke %class.YAML_Element* @_ZN12YAML_Element3addERKNSt7__cxx1112basic_stringIcSt11char_traitsIcESaIcEEEd(%class.YAML_Element* %812, %"class.std::__cxx11::basic_string"* nonnull dereferenceable(32) %50, double %820)
          to label %822 unwind label %1229

; <label>:822                                     ; preds = %._crit_edge.i.i.i.i494
  %823 = load i8*, i8** %.phi.trans.insert.i.i.i.i493, align 8, !tbaa !32
  %824 = icmp eq i8* %823, %815
  br i1 %824, label %_ZNSt7__cxx1112basic_stringIcSt11char_traitsIcESaIcEED2Ev.exit499, label %825

; <label>:825                                     ; preds = %822
  call void @_ZdlPv(i8* %823) #2
  br label %_ZNSt7__cxx1112basic_stringIcSt11char_traitsIcESaIcEED2Ev.exit499

_ZNSt7__cxx1112basic_stringIcSt11char_traitsIcESaIcEED2Ev.exit499: ; preds = %825, %822
  %826 = getelementptr inbounds %"class.std::__cxx11::basic_string", %"class.std::__cxx11::basic_string"* %49, i64 0, i32 0, i32 0
  %827 = load i8*, i8** %826, align 8, !tbaa !32
  %828 = icmp eq i8* %827, %809
  br i1 %828, label %_ZNSt7__cxx1112basic_stringIcSt11char_traitsIcESaIcEED2Ev.exit500, label %829

; <label>:829                                     ; preds = %_ZNSt7__cxx1112basic_stringIcSt11char_traitsIcESaIcEED2Ev.exit499
  call void @_ZdlPv(i8* %827) #2
  br label %_ZNSt7__cxx1112basic_stringIcSt11char_traitsIcESaIcEED2Ev.exit500

_ZNSt7__cxx1112basic_stringIcSt11char_traitsIcESaIcEED2Ev.exit500: ; preds = %829, %_ZNSt7__cxx1112basic_stringIcSt11char_traitsIcESaIcEED2Ev.exit499
  %830 = getelementptr inbounds %"class.std::__cxx11::basic_string", %"class.std::__cxx11::basic_string"* %51, i64 0, i32 2
  %831 = bitcast %"class.std::__cxx11::basic_string"* %51 to %union.anon**
  store %union.anon* %830, %union.anon** %831, align 8, !tbaa !28
  %832 = bitcast %union.anon* %830 to i8*
  call void @llvm.memcpy.p0i8.p0i8.i64(i8* %832, i8* nonnull getelementptr inbounds ([15 x i8], [15 x i8]* @.str.28, i64 0, i64 0), i64 14, i32 1, i1 false) #2
  %833 = getelementptr inbounds %"class.std::__cxx11::basic_string", %"class.std::__cxx11::basic_string"* %51, i64 0, i32 1
  store i64 14, i64* %833, align 8, !tbaa !30
  %834 = getelementptr inbounds %"class.std::__cxx11::basic_string", %"class.std::__cxx11::basic_string"* %51, i64 0, i32 2, i32 1, i64 6
  store i8 0, i8* %834, align 2, !tbaa !11
  %835 = invoke %class.YAML_Element* @_ZN12YAML_Element3getERKNSt7__cxx1112basic_stringIcSt11char_traitsIcESaIcEEE(%class.YAML_Element* %336, %"class.std::__cxx11::basic_string"* nonnull dereferenceable(32) %51)
          to label %._crit_edge.i.i.i.i512 unwind label %1240

._crit_edge.i.i.i.i512:                           ; preds = %_ZNSt7__cxx1112basic_stringIcSt11char_traitsIcESaIcEED2Ev.exit500
  %836 = getelementptr inbounds %"class.std::__cxx11::basic_string", %"class.std::__cxx11::basic_string"* %52, i64 0, i32 2
  %837 = bitcast %"class.std::__cxx11::basic_string"* %52 to %union.anon**
  store %union.anon* %836, %union.anon** %837, align 8, !tbaa !28
  %838 = bitcast %union.anon* %836 to i8*
  %.phi.trans.insert.i.i.i.i511 = getelementptr inbounds %"class.std::__cxx11::basic_string", %"class.std::__cxx11::basic_string"* %52, i64 0, i32 0, i32 0
  %839 = getelementptr inbounds %"class.std::__cxx11::basic_string", %"class.std::__cxx11::basic_string"* %52, i64 0, i32 1
  %840 = bitcast i64* %839 to <2 x i64>*
  store <2 x i64> <i64 8, i64 2314948349819109719>, <2 x i64>* %840, align 8
  %841 = getelementptr inbounds %"class.std::__cxx11::basic_string", %"class.std::__cxx11::basic_string"* %52, i64 0, i32 2, i32 1, i64 0
  store i8 0, i8* %841, align 8, !tbaa !11
  %842 = fdiv double %295, %629
  %843 = fdiv double %842, 1.000000e+06
  %844 = invoke %class.YAML_Element* @_ZN12YAML_Element3addERKNSt7__cxx1112basic_stringIcSt11char_traitsIcESaIcEEEd(%class.YAML_Element* %835, %"class.std::__cxx11::basic_string"* nonnull dereferenceable(32) %52, double %843)
          to label %845 unwind label %1244

; <label>:845                                     ; preds = %._crit_edge.i.i.i.i512
  %846 = load i8*, i8** %.phi.trans.insert.i.i.i.i511, align 8, !tbaa !32
  %847 = icmp eq i8* %846, %838
  br i1 %847, label %_ZNSt7__cxx1112basic_stringIcSt11char_traitsIcESaIcEED2Ev.exit517, label %848

; <label>:848                                     ; preds = %845
  call void @_ZdlPv(i8* %846) #2
  br label %_ZNSt7__cxx1112basic_stringIcSt11char_traitsIcESaIcEED2Ev.exit517

_ZNSt7__cxx1112basic_stringIcSt11char_traitsIcESaIcEED2Ev.exit517: ; preds = %848, %845
  %849 = getelementptr inbounds %"class.std::__cxx11::basic_string", %"class.std::__cxx11::basic_string"* %51, i64 0, i32 0, i32 0
  %850 = load i8*, i8** %849, align 8, !tbaa !32
  %851 = icmp eq i8* %850, %832
  br i1 %851, label %_ZNSt7__cxx1112basic_stringIcSt11char_traitsIcESaIcEED2Ev.exit518, label %852

; <label>:852                                     ; preds = %_ZNSt7__cxx1112basic_stringIcSt11char_traitsIcESaIcEED2Ev.exit517
  call void @_ZdlPv(i8* %850) #2
  br label %_ZNSt7__cxx1112basic_stringIcSt11char_traitsIcESaIcEED2Ev.exit518

_ZNSt7__cxx1112basic_stringIcSt11char_traitsIcESaIcEED2Ev.exit518: ; preds = %852, %_ZNSt7__cxx1112basic_stringIcSt11char_traitsIcESaIcEED2Ev.exit517
  %853 = getelementptr inbounds %"class.std::__cxx11::basic_string", %"class.std::__cxx11::basic_string"* %53, i64 0, i32 2
  %854 = bitcast %"class.std::__cxx11::basic_string"* %53 to %union.anon**
  store %union.anon* %853, %union.anon** %854, align 8, !tbaa !28
  %855 = bitcast %union.anon* %853 to i8*
  call void @llvm.memcpy.p0i8.p0i8.i64(i8* %855, i8* nonnull getelementptr inbounds ([15 x i8], [15 x i8]* @.str.28, i64 0, i64 0), i64 14, i32 1, i1 false) #2
  %856 = getelementptr inbounds %"class.std::__cxx11::basic_string", %"class.std::__cxx11::basic_string"* %53, i64 0, i32 1
  store i64 14, i64* %856, align 8, !tbaa !30
  %857 = getelementptr inbounds %"class.std::__cxx11::basic_string", %"class.std::__cxx11::basic_string"* %53, i64 0, i32 2, i32 1, i64 6
  store i8 0, i8* %857, align 2, !tbaa !11
  %858 = invoke %class.YAML_Element* @_ZN12YAML_Element3getERKNSt7__cxx1112basic_stringIcSt11char_traitsIcESaIcEEE(%class.YAML_Element* %336, %"class.std::__cxx11::basic_string"* nonnull dereferenceable(32) %53)
          to label %._crit_edge.i.i.i.i530 unwind label %1255

._crit_edge.i.i.i.i530:                           ; preds = %_ZNSt7__cxx1112basic_stringIcSt11char_traitsIcESaIcEED2Ev.exit518
  %859 = getelementptr inbounds %"class.std::__cxx11::basic_string", %"class.std::__cxx11::basic_string"* %54, i64 0, i32 2
  %860 = bitcast %"class.std::__cxx11::basic_string"* %54 to %union.anon**
  store %union.anon* %859, %union.anon** %860, align 8, !tbaa !28
  %861 = bitcast %union.anon* %859 to i8*
  %.phi.trans.insert.i.i.i.i529 = getelementptr inbounds %"class.std::__cxx11::basic_string", %"class.std::__cxx11::basic_string"* %54, i64 0, i32 0, i32 0
  %862 = getelementptr inbounds %"class.std::__cxx11::basic_string", %"class.std::__cxx11::basic_string"* %54, i64 0, i32 1
  %863 = bitcast i64* %862 to <2 x i64>*
  store <2 x i64> <i64 8, i64 6218702884633137235>, <2 x i64>* %863, align 8
  %864 = getelementptr inbounds %"class.std::__cxx11::basic_string", %"class.std::__cxx11::basic_string"* %54, i64 0, i32 2, i32 1, i64 0
  store i8 0, i8* %864, align 8, !tbaa !11
  %865 = fdiv double %297, %652
  %866 = fdiv double %865, 1.000000e+06
  %867 = invoke %class.YAML_Element* @_ZN12YAML_Element3addERKNSt7__cxx1112basic_stringIcSt11char_traitsIcESaIcEEEd(%class.YAML_Element* %858, %"class.std::__cxx11::basic_string"* nonnull dereferenceable(32) %54, double %866)
          to label %868 unwind label %1259

; <label>:868                                     ; preds = %._crit_edge.i.i.i.i530
  %869 = load i8*, i8** %.phi.trans.insert.i.i.i.i529, align 8, !tbaa !32
  %870 = icmp eq i8* %869, %861
  br i1 %870, label %_ZNSt7__cxx1112basic_stringIcSt11char_traitsIcESaIcEED2Ev.exit535, label %871

; <label>:871                                     ; preds = %868
  call void @_ZdlPv(i8* %869) #2
  br label %_ZNSt7__cxx1112basic_stringIcSt11char_traitsIcESaIcEED2Ev.exit535

_ZNSt7__cxx1112basic_stringIcSt11char_traitsIcESaIcEED2Ev.exit535: ; preds = %871, %868
  %872 = getelementptr inbounds %"class.std::__cxx11::basic_string", %"class.std::__cxx11::basic_string"* %53, i64 0, i32 0, i32 0
  %873 = load i8*, i8** %872, align 8, !tbaa !32
  %874 = icmp eq i8* %873, %855
  br i1 %874, label %_ZNSt7__cxx1112basic_stringIcSt11char_traitsIcESaIcEED2Ev.exit536, label %875

; <label>:875                                     ; preds = %_ZNSt7__cxx1112basic_stringIcSt11char_traitsIcESaIcEED2Ev.exit535
  call void @_ZdlPv(i8* %873) #2
  br label %_ZNSt7__cxx1112basic_stringIcSt11char_traitsIcESaIcEED2Ev.exit536

_ZNSt7__cxx1112basic_stringIcSt11char_traitsIcESaIcEED2Ev.exit536: ; preds = %875, %_ZNSt7__cxx1112basic_stringIcSt11char_traitsIcESaIcEED2Ev.exit535
  %876 = bitcast %"class.std::__cxx11::basic_string"* %yaml to i8*
  call void @llvm.lifetime.start(i64 32, i8* %876) #2
  invoke void @_ZN8YAML_Doc12generateYAMLEv(%"class.std::__cxx11::basic_string"* nonnull sret %yaml, %class.YAML_Doc* nonnull %doc)
          to label %877 unwind label %1270

; <label>:877                                     ; preds = %_ZNSt7__cxx1112basic_stringIcSt11char_traitsIcESaIcEED2Ev.exit536
  %878 = getelementptr inbounds %"class.std::__cxx11::basic_string", %"class.std::__cxx11::basic_string"* %yaml, i64 0, i32 0, i32 0
  %879 = load i8*, i8** %878, align 8, !tbaa !32
  %880 = getelementptr inbounds %"class.std::__cxx11::basic_string", %"class.std::__cxx11::basic_string"* %yaml, i64 0, i32 1
  %881 = load i64, i64* %880, align 8, !tbaa !30
  %882 = invoke dereferenceable(272) %"class.std::basic_ostream"* @_ZSt16__ostream_insertIcSt11char_traitsIcEERSt13basic_ostreamIT_T0_ES6_PKS3_l(%"class.std::basic_ostream"* nonnull dereferenceable(272) @_ZSt4cout, i8* %879, i64 %881)
          to label %_ZStlsIcSt11char_traitsIcESaIcEERSt13basic_ostreamIT_T0_ES7_RKNSt7__cxx1112basic_stringIS4_S5_T1_EE.exit unwind label %1274

_ZStlsIcSt11char_traitsIcESaIcEERSt13basic_ostreamIT_T0_ES7_RKNSt7__cxx1112basic_stringIS4_S5_T1_EE.exit: ; preds = %877
  %883 = load i8*, i8** %878, align 8, !tbaa !32
  %884 = getelementptr inbounds %"class.std::__cxx11::basic_string", %"class.std::__cxx11::basic_string"* %yaml, i64 0, i32 2
  %885 = bitcast %union.anon* %884 to i8*
  %886 = icmp eq i8* %883, %885
  br i1 %886, label %_ZNSt7__cxx1112basic_stringIcSt11char_traitsIcESaIcEED2Ev.exit539, label %887

; <label>:887                                     ; preds = %_ZStlsIcSt11char_traitsIcESaIcEERSt13basic_ostreamIT_T0_ES7_RKNSt7__cxx1112basic_stringIS4_S5_T1_EE.exit
  call void @_ZdlPv(i8* %883) #2
  br label %_ZNSt7__cxx1112basic_stringIcSt11char_traitsIcESaIcEED2Ev.exit539

_ZNSt7__cxx1112basic_stringIcSt11char_traitsIcESaIcEED2Ev.exit539: ; preds = %887, %_ZStlsIcSt11char_traitsIcESaIcEERSt13basic_ostreamIT_T0_ES7_RKNSt7__cxx1112basic_stringIS4_S5_T1_EE.exit
  call void @llvm.lifetime.end(i64 32, i8* nonnull %876) #2
  call void @_ZN8YAML_DocD1Ev(%class.YAML_Doc* nonnull %doc)
  call void @llvm.lifetime.end(i64 216, i8* %300) #2
  call void @llvm.lifetime.end(i64 8, i8* nonnull %247) #2
  call void @llvm.lifetime.end(i64 4, i8* nonnull %246) #2
  call void @llvm.lifetime.end(i64 56, i8* nonnull %59) #2
  call void @llvm.lifetime.end(i64 8, i8* %58) #2
  call void @llvm.lifetime.end(i64 8, i8* nonnull %57) #2
  call void @llvm.lifetime.end(i64 8, i8* nonnull %56) #2
  call void @llvm.lifetime.end(i64 8, i8* nonnull %55) #2
  ret i32 0

; <label>:888                                     ; preds = %._crit_edge.i.i.i.i
  %889 = landingpad { i8*, i32 }
          cleanup
  %890 = extractvalue { i8*, i32 } %889, 0
  %891 = extractvalue { i8*, i32 } %889, 1
  %892 = getelementptr inbounds %"class.std::__cxx11::basic_string", %"class.std::__cxx11::basic_string"* %4, i64 0, i32 0, i32 0
  %893 = load i8*, i8** %892, align 8, !tbaa !32
  %894 = icmp eq i8* %893, %317
  br i1 %894, label %_ZNSt7__cxx1112basic_stringIcSt11char_traitsIcESaIcEED2Ev.exit540, label %895

; <label>:895                                     ; preds = %888
  call void @_ZdlPv(i8* %893) #2
  br label %_ZNSt7__cxx1112basic_stringIcSt11char_traitsIcESaIcEED2Ev.exit540

_ZNSt7__cxx1112basic_stringIcSt11char_traitsIcESaIcEED2Ev.exit540: ; preds = %895, %888
  %896 = getelementptr inbounds %"class.std::__cxx11::basic_string", %"class.std::__cxx11::basic_string"* %3, i64 0, i32 0, i32 0
  %897 = load i8*, i8** %896, align 8, !tbaa !32
  %898 = icmp eq i8* %897, %313
  br i1 %898, label %_ZNSt7__cxx1112basic_stringIcSt11char_traitsIcESaIcEED2Ev.exit542, label %899

; <label>:899                                     ; preds = %_ZNSt7__cxx1112basic_stringIcSt11char_traitsIcESaIcEED2Ev.exit540
  call void @_ZdlPv(i8* %897) #2
  br label %_ZNSt7__cxx1112basic_stringIcSt11char_traitsIcESaIcEED2Ev.exit542

_ZNSt7__cxx1112basic_stringIcSt11char_traitsIcESaIcEED2Ev.exit542: ; preds = %899, %_ZNSt7__cxx1112basic_stringIcSt11char_traitsIcESaIcEED2Ev.exit540
  %900 = getelementptr inbounds %"class.std::__cxx11::basic_string", %"class.std::__cxx11::basic_string"* %2, i64 0, i32 0, i32 0
  %901 = load i8*, i8** %900, align 8, !tbaa !32
  %902 = icmp eq i8* %901, %308
  br i1 %902, label %_ZNSt7__cxx1112basic_stringIcSt11char_traitsIcESaIcEED2Ev.exit544, label %903

; <label>:903                                     ; preds = %_ZNSt7__cxx1112basic_stringIcSt11char_traitsIcESaIcEED2Ev.exit542
  call void @_ZdlPv(i8* %901) #2
  br label %_ZNSt7__cxx1112basic_stringIcSt11char_traitsIcESaIcEED2Ev.exit544

_ZNSt7__cxx1112basic_stringIcSt11char_traitsIcESaIcEED2Ev.exit544: ; preds = %903, %_ZNSt7__cxx1112basic_stringIcSt11char_traitsIcESaIcEED2Ev.exit542
  %904 = getelementptr inbounds %"class.std::__cxx11::basic_string", %"class.std::__cxx11::basic_string"* %1, i64 0, i32 0, i32 0
  %905 = load i8*, i8** %904, align 8, !tbaa !32
  %906 = icmp eq i8* %905, %303
  br i1 %906, label %_ZNSt7__cxx1112basic_stringIcSt11char_traitsIcESaIcEED2Ev.exit546, label %907

; <label>:907                                     ; preds = %_ZNSt7__cxx1112basic_stringIcSt11char_traitsIcESaIcEED2Ev.exit544
  call void @_ZdlPv(i8* %905) #2
  br label %_ZNSt7__cxx1112basic_stringIcSt11char_traitsIcESaIcEED2Ev.exit546

; <label>:908                                     ; preds = %_ZNSt7__cxx1112basic_stringIcSt11char_traitsIcESaIcEED2Ev.exit106
  %909 = landingpad { i8*, i32 }
          cleanup
  %910 = extractvalue { i8*, i32 } %909, 0
  %911 = extractvalue { i8*, i32 } %909, 1
  %912 = getelementptr inbounds %"class.std::__cxx11::basic_string", %"class.std::__cxx11::basic_string"* %6, i64 0, i32 0, i32 0
  %913 = load i8*, i8** %912, align 8, !tbaa !32
  %914 = icmp eq i8* %913, %344
  br i1 %914, label %_ZNSt7__cxx1112basic_stringIcSt11char_traitsIcESaIcEED2Ev.exit548, label %915

; <label>:915                                     ; preds = %908
  call void @_ZdlPv(i8* %913) #2
  br label %_ZNSt7__cxx1112basic_stringIcSt11char_traitsIcESaIcEED2Ev.exit548

_ZNSt7__cxx1112basic_stringIcSt11char_traitsIcESaIcEED2Ev.exit548: ; preds = %915, %908
  %916 = getelementptr inbounds %"class.std::__cxx11::basic_string", %"class.std::__cxx11::basic_string"* %5, i64 0, i32 0, i32 0
  %917 = load i8*, i8** %916, align 8, !tbaa !32
  %918 = icmp eq i8* %917, %339
  br i1 %918, label %_ZNSt7__cxx1112basic_stringIcSt11char_traitsIcESaIcEED2Ev.exit550, label %919

; <label>:919                                     ; preds = %_ZNSt7__cxx1112basic_stringIcSt11char_traitsIcESaIcEED2Ev.exit548
  call void @_ZdlPv(i8* %917) #2
  br label %_ZNSt7__cxx1112basic_stringIcSt11char_traitsIcESaIcEED2Ev.exit550

; <label>:920                                     ; preds = %_ZNSt7__cxx1112basic_stringIcSt11char_traitsIcESaIcEED2Ev.exit122
  %921 = landingpad { i8*, i32 }
          cleanup
  %922 = extractvalue { i8*, i32 } %921, 0
  %923 = extractvalue { i8*, i32 } %921, 1
  br label %_ZNSt7__cxx1112basic_stringIcSt11char_traitsIcESaIcEED2Ev.exit554

; <label>:924                                     ; preds = %._crit_edge.i.i.i.i132
  %925 = landingpad { i8*, i32 }
          cleanup
  %926 = extractvalue { i8*, i32 } %925, 0
  %927 = extractvalue { i8*, i32 } %925, 1
  %928 = getelementptr inbounds %"class.std::__cxx11::basic_string", %"class.std::__cxx11::basic_string"* %9, i64 0, i32 0, i32 0
  %929 = load i8*, i8** %928, align 8, !tbaa !32
  %930 = icmp eq i8* %929, %369
  br i1 %930, label %_ZNSt7__cxx1112basic_stringIcSt11char_traitsIcESaIcEED2Ev.exit552, label %931

; <label>:931                                     ; preds = %924
  call void @_ZdlPv(i8* %929) #2
  br label %_ZNSt7__cxx1112basic_stringIcSt11char_traitsIcESaIcEED2Ev.exit552

_ZNSt7__cxx1112basic_stringIcSt11char_traitsIcESaIcEED2Ev.exit552: ; preds = %931, %924
  %932 = getelementptr inbounds %"class.std::__cxx11::basic_string", %"class.std::__cxx11::basic_string"* %8, i64 0, i32 0, i32 0
  %933 = load i8*, i8** %932, align 8, !tbaa !32
  %934 = icmp eq i8* %933, %364
  br i1 %934, label %_ZNSt7__cxx1112basic_stringIcSt11char_traitsIcESaIcEED2Ev.exit554, label %935

; <label>:935                                     ; preds = %_ZNSt7__cxx1112basic_stringIcSt11char_traitsIcESaIcEED2Ev.exit552
  call void @_ZdlPv(i8* %933) #2
  br label %_ZNSt7__cxx1112basic_stringIcSt11char_traitsIcESaIcEED2Ev.exit554

_ZNSt7__cxx1112basic_stringIcSt11char_traitsIcESaIcEED2Ev.exit554: ; preds = %935, %_ZNSt7__cxx1112basic_stringIcSt11char_traitsIcESaIcEED2Ev.exit552, %920
  %.817 = phi i8* [ %922, %920 ], [ %926, %_ZNSt7__cxx1112basic_stringIcSt11char_traitsIcESaIcEED2Ev.exit552 ], [ %926, %935 ]
  %.8 = phi i32 [ %923, %920 ], [ %927, %_ZNSt7__cxx1112basic_stringIcSt11char_traitsIcESaIcEED2Ev.exit552 ], [ %927, %935 ]
  %936 = getelementptr inbounds %"class.std::__cxx11::basic_string", %"class.std::__cxx11::basic_string"* %7, i64 0, i32 0, i32 0
  %937 = load i8*, i8** %936, align 8, !tbaa !32
  %938 = icmp eq i8* %937, %358
  br i1 %938, label %_ZNSt7__cxx1112basic_stringIcSt11char_traitsIcESaIcEED2Ev.exit550, label %939

; <label>:939                                     ; preds = %_ZNSt7__cxx1112basic_stringIcSt11char_traitsIcESaIcEED2Ev.exit554
  call void @_ZdlPv(i8* %937) #2
  br label %_ZNSt7__cxx1112basic_stringIcSt11char_traitsIcESaIcEED2Ev.exit550

; <label>:940                                     ; preds = %_ZNSt7__cxx1112basic_stringIcSt11char_traitsIcESaIcEED2Ev.exit148
  %941 = landingpad { i8*, i32 }
          cleanup
  %942 = extractvalue { i8*, i32 } %941, 0
  %943 = extractvalue { i8*, i32 } %941, 1
  br label %_ZNSt7__cxx1112basic_stringIcSt11char_traitsIcESaIcEED2Ev.exit560

; <label>:944                                     ; preds = %.noexc1.i160
  %945 = landingpad { i8*, i32 }
          cleanup
  %946 = extractvalue { i8*, i32 } %945, 0
  %947 = extractvalue { i8*, i32 } %945, 1
  br label %_ZNSt7__cxx1112basic_stringIcSt11char_traitsIcESaIcEED2Ev.exit560

; <label>:948                                     ; preds = %.noexc162
  %949 = landingpad { i8*, i32 }
          cleanup
  %950 = extractvalue { i8*, i32 } %949, 0
  %951 = extractvalue { i8*, i32 } %949, 1
  %952 = getelementptr inbounds %"class.std::__cxx11::basic_string", %"class.std::__cxx11::basic_string"* %12, i64 0, i32 0, i32 0
  %953 = load i8*, i8** %952, align 8, !tbaa !32
  %954 = icmp eq i8* %953, %404
  br i1 %954, label %_ZNSt7__cxx1112basic_stringIcSt11char_traitsIcESaIcEED2Ev.exit558, label %955

; <label>:955                                     ; preds = %948
  call void @_ZdlPv(i8* %953) #2
  br label %_ZNSt7__cxx1112basic_stringIcSt11char_traitsIcESaIcEED2Ev.exit558

_ZNSt7__cxx1112basic_stringIcSt11char_traitsIcESaIcEED2Ev.exit558: ; preds = %955, %948
  %956 = load i8*, i8** %396, align 8, !tbaa !32
  %957 = icmp eq i8* %956, %393
  br i1 %957, label %_ZNSt7__cxx1112basic_stringIcSt11char_traitsIcESaIcEED2Ev.exit560, label %958

; <label>:958                                     ; preds = %_ZNSt7__cxx1112basic_stringIcSt11char_traitsIcESaIcEED2Ev.exit558
  call void @_ZdlPv(i8* %956) #2
  br label %_ZNSt7__cxx1112basic_stringIcSt11char_traitsIcESaIcEED2Ev.exit560

_ZNSt7__cxx1112basic_stringIcSt11char_traitsIcESaIcEED2Ev.exit560: ; preds = %958, %_ZNSt7__cxx1112basic_stringIcSt11char_traitsIcESaIcEED2Ev.exit558, %944, %940
  %.1221 = phi i8* [ %942, %940 ], [ %946, %944 ], [ %950, %_ZNSt7__cxx1112basic_stringIcSt11char_traitsIcESaIcEED2Ev.exit558 ], [ %950, %958 ]
  %.12 = phi i32 [ %943, %940 ], [ %947, %944 ], [ %951, %_ZNSt7__cxx1112basic_stringIcSt11char_traitsIcESaIcEED2Ev.exit558 ], [ %951, %958 ]
  %959 = getelementptr inbounds %"class.std::__cxx11::basic_string", %"class.std::__cxx11::basic_string"* %10, i64 0, i32 0, i32 0
  %960 = load i8*, i8** %959, align 8, !tbaa !32
  %961 = icmp eq i8* %960, %387
  br i1 %961, label %_ZNSt7__cxx1112basic_stringIcSt11char_traitsIcESaIcEED2Ev.exit550, label %962

; <label>:962                                     ; preds = %_ZNSt7__cxx1112basic_stringIcSt11char_traitsIcESaIcEED2Ev.exit560
  call void @_ZdlPv(i8* %960) #2
  br label %_ZNSt7__cxx1112basic_stringIcSt11char_traitsIcESaIcEED2Ev.exit550

; <label>:963                                     ; preds = %_ZNSt7__cxx1112basic_stringIcSt11char_traitsIcESaIcEED2Ev.exit173
  %964 = landingpad { i8*, i32 }
          cleanup
  %965 = extractvalue { i8*, i32 } %964, 0
  %966 = extractvalue { i8*, i32 } %964, 1
  %967 = getelementptr inbounds %"class.std::__cxx11::basic_string", %"class.std::__cxx11::basic_string"* %14, i64 0, i32 0, i32 0
  %968 = load i8*, i8** %967, align 8, !tbaa !32
  %969 = icmp eq i8* %968, %426
  br i1 %969, label %_ZNSt7__cxx1112basic_stringIcSt11char_traitsIcESaIcEED2Ev.exit564, label %970

; <label>:970                                     ; preds = %963
  call void @_ZdlPv(i8* %968) #2
  br label %_ZNSt7__cxx1112basic_stringIcSt11char_traitsIcESaIcEED2Ev.exit564

_ZNSt7__cxx1112basic_stringIcSt11char_traitsIcESaIcEED2Ev.exit564: ; preds = %970, %963
  %971 = getelementptr inbounds %"class.std::__cxx11::basic_string", %"class.std::__cxx11::basic_string"* %13, i64 0, i32 0, i32 0
  %972 = load i8*, i8** %971, align 8, !tbaa !32
  %973 = icmp eq i8* %972, %421
  br i1 %973, label %_ZNSt7__cxx1112basic_stringIcSt11char_traitsIcESaIcEED2Ev.exit550, label %974

; <label>:974                                     ; preds = %_ZNSt7__cxx1112basic_stringIcSt11char_traitsIcESaIcEED2Ev.exit564
  call void @_ZdlPv(i8* %972) #2
  br label %_ZNSt7__cxx1112basic_stringIcSt11char_traitsIcESaIcEED2Ev.exit550

; <label>:975                                     ; preds = %_ZNSt7__cxx1112basic_stringIcSt11char_traitsIcESaIcEED2Ev.exit191
  %976 = landingpad { i8*, i32 }
          cleanup
  %977 = extractvalue { i8*, i32 } %976, 0
  %978 = extractvalue { i8*, i32 } %976, 1
  br label %_ZNSt7__cxx1112basic_stringIcSt11char_traitsIcESaIcEED2Ev.exit568

; <label>:979                                     ; preds = %._crit_edge.i.i.i.i202
  %980 = landingpad { i8*, i32 }
          cleanup
  %981 = extractvalue { i8*, i32 } %980, 0
  %982 = extractvalue { i8*, i32 } %980, 1
  %983 = load i8*, i8** %.phi.trans.insert.i.i.i.i201, align 8, !tbaa !32
  %984 = icmp eq i8* %983, %446
  br i1 %984, label %_ZNSt7__cxx1112basic_stringIcSt11char_traitsIcESaIcEED2Ev.exit568, label %985

; <label>:985                                     ; preds = %979
  call void @_ZdlPv(i8* %983) #2
  br label %_ZNSt7__cxx1112basic_stringIcSt11char_traitsIcESaIcEED2Ev.exit568

_ZNSt7__cxx1112basic_stringIcSt11char_traitsIcESaIcEED2Ev.exit568: ; preds = %985, %979, %975
  %.1726 = phi i8* [ %977, %975 ], [ %981, %979 ], [ %981, %985 ]
  %.17 = phi i32 [ %978, %975 ], [ %982, %979 ], [ %982, %985 ]
  %986 = getelementptr inbounds %"class.std::__cxx11::basic_string", %"class.std::__cxx11::basic_string"* %15, i64 0, i32 0, i32 0
  %987 = load i8*, i8** %986, align 8, !tbaa !32
  %988 = icmp eq i8* %987, %440
  br i1 %988, label %_ZNSt7__cxx1112basic_stringIcSt11char_traitsIcESaIcEED2Ev.exit550, label %989

; <label>:989                                     ; preds = %_ZNSt7__cxx1112basic_stringIcSt11char_traitsIcESaIcEED2Ev.exit568
  call void @_ZdlPv(i8* %987) #2
  br label %_ZNSt7__cxx1112basic_stringIcSt11char_traitsIcESaIcEED2Ev.exit550

; <label>:990                                     ; preds = %_ZNSt7__cxx1112basic_stringIcSt11char_traitsIcESaIcEED2Ev.exit208
  %991 = landingpad { i8*, i32 }
          cleanup
  %992 = extractvalue { i8*, i32 } %991, 0
  %993 = extractvalue { i8*, i32 } %991, 1
  br label %_ZNSt7__cxx1112basic_stringIcSt11char_traitsIcESaIcEED2Ev.exit572

; <label>:994                                     ; preds = %._crit_edge.i.i.i.i218
  %995 = landingpad { i8*, i32 }
          cleanup
  %996 = extractvalue { i8*, i32 } %995, 0
  %997 = extractvalue { i8*, i32 } %995, 1
  %998 = load i8*, i8** %.phi.trans.insert.i.i.i.i217, align 8, !tbaa !32
  %999 = icmp eq i8* %998, %467
  br i1 %999, label %_ZNSt7__cxx1112basic_stringIcSt11char_traitsIcESaIcEED2Ev.exit572, label %1000

; <label>:1000                                    ; preds = %994
  call void @_ZdlPv(i8* %998) #2
  br label %_ZNSt7__cxx1112basic_stringIcSt11char_traitsIcESaIcEED2Ev.exit572

_ZNSt7__cxx1112basic_stringIcSt11char_traitsIcESaIcEED2Ev.exit572: ; preds = %1000, %994, %990
  %.2029 = phi i8* [ %992, %990 ], [ %996, %994 ], [ %996, %1000 ]
  %.20 = phi i32 [ %993, %990 ], [ %997, %994 ], [ %997, %1000 ]
  %1001 = getelementptr inbounds %"class.std::__cxx11::basic_string", %"class.std::__cxx11::basic_string"* %17, i64 0, i32 0, i32 0
  %1002 = load i8*, i8** %1001, align 8, !tbaa !32
  %1003 = icmp eq i8* %1002, %461
  br i1 %1003, label %_ZNSt7__cxx1112basic_stringIcSt11char_traitsIcESaIcEED2Ev.exit550, label %1004

; <label>:1004                                    ; preds = %_ZNSt7__cxx1112basic_stringIcSt11char_traitsIcESaIcEED2Ev.exit572
  call void @_ZdlPv(i8* %1002) #2
  br label %_ZNSt7__cxx1112basic_stringIcSt11char_traitsIcESaIcEED2Ev.exit550

; <label>:1005                                    ; preds = %_ZNSt7__cxx1112basic_stringIcSt11char_traitsIcESaIcEED2Ev.exit224
  %1006 = landingpad { i8*, i32 }
          cleanup
  %1007 = extractvalue { i8*, i32 } %1006, 0
  %1008 = extractvalue { i8*, i32 } %1006, 1
  br label %_ZNSt7__cxx1112basic_stringIcSt11char_traitsIcESaIcEED2Ev.exit576

; <label>:1009                                    ; preds = %._crit_edge.i.i.i.i234
  %1010 = landingpad { i8*, i32 }
          cleanup
  %1011 = extractvalue { i8*, i32 } %1010, 0
  %1012 = extractvalue { i8*, i32 } %1010, 1
  %1013 = load i8*, i8** %.phi.trans.insert.i.i.i.i233, align 8, !tbaa !32
  %1014 = icmp eq i8* %1013, %488
  br i1 %1014, label %_ZNSt7__cxx1112basic_stringIcSt11char_traitsIcESaIcEED2Ev.exit576, label %1015

; <label>:1015                                    ; preds = %1009
  call void @_ZdlPv(i8* %1013) #2
  br label %_ZNSt7__cxx1112basic_stringIcSt11char_traitsIcESaIcEED2Ev.exit576

_ZNSt7__cxx1112basic_stringIcSt11char_traitsIcESaIcEED2Ev.exit576: ; preds = %1015, %1009, %1005
  %.2332 = phi i8* [ %1007, %1005 ], [ %1011, %1009 ], [ %1011, %1015 ]
  %.23 = phi i32 [ %1008, %1005 ], [ %1012, %1009 ], [ %1012, %1015 ]
  %1016 = getelementptr inbounds %"class.std::__cxx11::basic_string", %"class.std::__cxx11::basic_string"* %19, i64 0, i32 0, i32 0
  %1017 = load i8*, i8** %1016, align 8, !tbaa !32
  %1018 = icmp eq i8* %1017, %482
  br i1 %1018, label %_ZNSt7__cxx1112basic_stringIcSt11char_traitsIcESaIcEED2Ev.exit550, label %1019

; <label>:1019                                    ; preds = %_ZNSt7__cxx1112basic_stringIcSt11char_traitsIcESaIcEED2Ev.exit576
  call void @_ZdlPv(i8* %1017) #2
  br label %_ZNSt7__cxx1112basic_stringIcSt11char_traitsIcESaIcEED2Ev.exit550

; <label>:1020                                    ; preds = %_ZNSt7__cxx1112basic_stringIcSt11char_traitsIcESaIcEED2Ev.exit240
  %1021 = landingpad { i8*, i32 }
          cleanup
  %1022 = extractvalue { i8*, i32 } %1021, 0
  %1023 = extractvalue { i8*, i32 } %1021, 1
  br label %_ZNSt7__cxx1112basic_stringIcSt11char_traitsIcESaIcEED2Ev.exit550

; <label>:1024                                    ; preds = %.noexc248
  %1025 = landingpad { i8*, i32 }
          cleanup
  %1026 = extractvalue { i8*, i32 } %1025, 0
  %1027 = extractvalue { i8*, i32 } %1025, 1
  %1028 = load i8*, i8** %506, align 8, !tbaa !32
  %1029 = icmp eq i8* %1028, %503
  br i1 %1029, label %_ZNSt7__cxx1112basic_stringIcSt11char_traitsIcESaIcEED2Ev.exit550, label %1030

; <label>:1030                                    ; preds = %1024
  call void @_ZdlPv(i8* %1028) #2
  br label %_ZNSt7__cxx1112basic_stringIcSt11char_traitsIcESaIcEED2Ev.exit550

; <label>:1031                                    ; preds = %_ZNSt7__cxx1112basic_stringIcSt11char_traitsIcESaIcEED2Ev.exit250
  %1032 = landingpad { i8*, i32 }
          cleanup
  %1033 = extractvalue { i8*, i32 } %1032, 0
  %1034 = extractvalue { i8*, i32 } %1032, 1
  %1035 = getelementptr inbounds %"class.std::__cxx11::basic_string", %"class.std::__cxx11::basic_string"* %22, i64 0, i32 0, i32 0
  %1036 = load i8*, i8** %1035, align 8, !tbaa !32
  %1037 = icmp eq i8* %1036, %519
  br i1 %1037, label %_ZNSt7__cxx1112basic_stringIcSt11char_traitsIcESaIcEED2Ev.exit550, label %1038

; <label>:1038                                    ; preds = %1031
  call void @_ZdlPv(i8* %1036) #2
  br label %_ZNSt7__cxx1112basic_stringIcSt11char_traitsIcESaIcEED2Ev.exit550

; <label>:1039                                    ; preds = %_ZNSt7__cxx1112basic_stringIcSt11char_traitsIcESaIcEED2Ev.exit258
  %1040 = landingpad { i8*, i32 }
          cleanup
  %1041 = extractvalue { i8*, i32 } %1040, 0
  %1042 = extractvalue { i8*, i32 } %1040, 1
  br label %_ZNSt7__cxx1112basic_stringIcSt11char_traitsIcESaIcEED2Ev.exit550

; <label>:1043                                    ; preds = %.noexc265
  %1044 = landingpad { i8*, i32 }
          cleanup
  %1045 = extractvalue { i8*, i32 } %1044, 0
  %1046 = extractvalue { i8*, i32 } %1044, 1
  %1047 = getelementptr inbounds %"class.std::__cxx11::basic_string", %"class.std::__cxx11::basic_string"* %24, i64 0, i32 0, i32 0
  %1048 = load i8*, i8** %1047, align 8, !tbaa !32
  %1049 = icmp eq i8* %1048, %541
  br i1 %1049, label %_ZNSt7__cxx1112basic_stringIcSt11char_traitsIcESaIcEED2Ev.exit573, label %1050

; <label>:1050                                    ; preds = %1043
  call void @_ZdlPv(i8* %1048) #2
  br label %_ZNSt7__cxx1112basic_stringIcSt11char_traitsIcESaIcEED2Ev.exit573

_ZNSt7__cxx1112basic_stringIcSt11char_traitsIcESaIcEED2Ev.exit573: ; preds = %1050, %1043
  %1051 = load i8*, i8** %534, align 8, !tbaa !32
  %1052 = icmp eq i8* %1051, %531
  br i1 %1052, label %_ZNSt7__cxx1112basic_stringIcSt11char_traitsIcESaIcEED2Ev.exit550, label %1053

; <label>:1053                                    ; preds = %_ZNSt7__cxx1112basic_stringIcSt11char_traitsIcESaIcEED2Ev.exit573
  call void @_ZdlPv(i8* %1051) #2
  br label %_ZNSt7__cxx1112basic_stringIcSt11char_traitsIcESaIcEED2Ev.exit550

; <label>:1054                                    ; preds = %_ZNSt7__cxx1112basic_stringIcSt11char_traitsIcESaIcEED2Ev.exit275
  %1055 = landingpad { i8*, i32 }
          cleanup
  %1056 = extractvalue { i8*, i32 } %1055, 0
  %1057 = extractvalue { i8*, i32 } %1055, 1
  %1058 = getelementptr inbounds %"class.std::__cxx11::basic_string", %"class.std::__cxx11::basic_string"* %26, i64 0, i32 0, i32 0
  %1059 = load i8*, i8** %1058, align 8, !tbaa !32
  %1060 = icmp eq i8* %1059, %559
  br i1 %1060, label %_ZNSt7__cxx1112basic_stringIcSt11char_traitsIcESaIcEED2Ev.exit569, label %1061

; <label>:1061                                    ; preds = %1054
  call void @_ZdlPv(i8* %1059) #2
  br label %_ZNSt7__cxx1112basic_stringIcSt11char_traitsIcESaIcEED2Ev.exit569

_ZNSt7__cxx1112basic_stringIcSt11char_traitsIcESaIcEED2Ev.exit569: ; preds = %1061, %1054
  %1062 = getelementptr inbounds %"class.std::__cxx11::basic_string", %"class.std::__cxx11::basic_string"* %25, i64 0, i32 0, i32 0
  %1063 = load i8*, i8** %1062, align 8, !tbaa !32
  %1064 = icmp eq i8* %1063, %554
  br i1 %1064, label %_ZNSt7__cxx1112basic_stringIcSt11char_traitsIcESaIcEED2Ev.exit550, label %1065

; <label>:1065                                    ; preds = %_ZNSt7__cxx1112basic_stringIcSt11char_traitsIcESaIcEED2Ev.exit569
  call void @_ZdlPv(i8* %1063) #2
  br label %_ZNSt7__cxx1112basic_stringIcSt11char_traitsIcESaIcEED2Ev.exit550

; <label>:1066                                    ; preds = %_ZNSt7__cxx1112basic_stringIcSt11char_traitsIcESaIcEED2Ev.exit291
  %1067 = landingpad { i8*, i32 }
          cleanup
  %1068 = extractvalue { i8*, i32 } %1067, 0
  %1069 = extractvalue { i8*, i32 } %1067, 1
  br label %_ZNSt7__cxx1112basic_stringIcSt11char_traitsIcESaIcEED2Ev.exit565

; <label>:1070                                    ; preds = %._crit_edge.i.i.i.i303
  %1071 = landingpad { i8*, i32 }
          cleanup
  %1072 = extractvalue { i8*, i32 } %1071, 0
  %1073 = extractvalue { i8*, i32 } %1071, 1
  %1074 = load i8*, i8** %.phi.trans.insert.i.i.i.i302, align 8, !tbaa !32
  %1075 = icmp eq i8* %1074, %579
  br i1 %1075, label %_ZNSt7__cxx1112basic_stringIcSt11char_traitsIcESaIcEED2Ev.exit565, label %1076

; <label>:1076                                    ; preds = %1070
  call void @_ZdlPv(i8* %1074) #2
  br label %_ZNSt7__cxx1112basic_stringIcSt11char_traitsIcESaIcEED2Ev.exit565

_ZNSt7__cxx1112basic_stringIcSt11char_traitsIcESaIcEED2Ev.exit565: ; preds = %1076, %1070, %1066
  %.3241 = phi i8* [ %1068, %1066 ], [ %1072, %1070 ], [ %1072, %1076 ]
  %.32 = phi i32 [ %1069, %1066 ], [ %1073, %1070 ], [ %1073, %1076 ]
  %1077 = getelementptr inbounds %"class.std::__cxx11::basic_string", %"class.std::__cxx11::basic_string"* %27, i64 0, i32 0, i32 0
  %1078 = load i8*, i8** %1077, align 8, !tbaa !32
  %1079 = icmp eq i8* %1078, %573
  br i1 %1079, label %_ZNSt7__cxx1112basic_stringIcSt11char_traitsIcESaIcEED2Ev.exit550, label %1080

; <label>:1080                                    ; preds = %_ZNSt7__cxx1112basic_stringIcSt11char_traitsIcESaIcEED2Ev.exit565
  call void @_ZdlPv(i8* %1078) #2
  br label %_ZNSt7__cxx1112basic_stringIcSt11char_traitsIcESaIcEED2Ev.exit550

; <label>:1081                                    ; preds = %_ZNSt7__cxx1112basic_stringIcSt11char_traitsIcESaIcEED2Ev.exit309
  %1082 = landingpad { i8*, i32 }
          cleanup
  %1083 = extractvalue { i8*, i32 } %1082, 0
  %1084 = extractvalue { i8*, i32 } %1082, 1
  br label %_ZNSt7__cxx1112basic_stringIcSt11char_traitsIcESaIcEED2Ev.exit561

; <label>:1085                                    ; preds = %._crit_edge.i.i.i.i320
  %1086 = landingpad { i8*, i32 }
          cleanup
  %1087 = extractvalue { i8*, i32 } %1086, 0
  %1088 = extractvalue { i8*, i32 } %1086, 1
  %1089 = load i8*, i8** %.phi.trans.insert.i.i.i.i319, align 8, !tbaa !32
  %1090 = icmp eq i8* %1089, %601
  br i1 %1090, label %_ZNSt7__cxx1112basic_stringIcSt11char_traitsIcESaIcEED2Ev.exit561, label %1091

; <label>:1091                                    ; preds = %1085
  call void @_ZdlPv(i8* %1089) #2
  br label %_ZNSt7__cxx1112basic_stringIcSt11char_traitsIcESaIcEED2Ev.exit561

_ZNSt7__cxx1112basic_stringIcSt11char_traitsIcESaIcEED2Ev.exit561: ; preds = %1091, %1085, %1081
  %.3544 = phi i8* [ %1083, %1081 ], [ %1087, %1085 ], [ %1087, %1091 ]
  %.35 = phi i32 [ %1084, %1081 ], [ %1088, %1085 ], [ %1088, %1091 ]
  %1092 = getelementptr inbounds %"class.std::__cxx11::basic_string", %"class.std::__cxx11::basic_string"* %29, i64 0, i32 0, i32 0
  %1093 = load i8*, i8** %1092, align 8, !tbaa !32
  %1094 = icmp eq i8* %1093, %595
  br i1 %1094, label %_ZNSt7__cxx1112basic_stringIcSt11char_traitsIcESaIcEED2Ev.exit550, label %1095

; <label>:1095                                    ; preds = %_ZNSt7__cxx1112basic_stringIcSt11char_traitsIcESaIcEED2Ev.exit561
  call void @_ZdlPv(i8* %1093) #2
  br label %_ZNSt7__cxx1112basic_stringIcSt11char_traitsIcESaIcEED2Ev.exit550

; <label>:1096                                    ; preds = %_ZNSt7__cxx1112basic_stringIcSt11char_traitsIcESaIcEED2Ev.exit326
  %1097 = landingpad { i8*, i32 }
          cleanup
  %1098 = extractvalue { i8*, i32 } %1097, 0
  %1099 = extractvalue { i8*, i32 } %1097, 1
  br label %_ZNSt7__cxx1112basic_stringIcSt11char_traitsIcESaIcEED2Ev.exit557

; <label>:1100                                    ; preds = %._crit_edge.i.i.i.i336
  %1101 = landingpad { i8*, i32 }
          cleanup
  %1102 = extractvalue { i8*, i32 } %1101, 0
  %1103 = extractvalue { i8*, i32 } %1101, 1
  %1104 = load i8*, i8** %.phi.trans.insert.i.i.i.i335, align 8, !tbaa !32
  %1105 = icmp eq i8* %1104, %624
  br i1 %1105, label %_ZNSt7__cxx1112basic_stringIcSt11char_traitsIcESaIcEED2Ev.exit557, label %1106

; <label>:1106                                    ; preds = %1100
  call void @_ZdlPv(i8* %1104) #2
  br label %_ZNSt7__cxx1112basic_stringIcSt11char_traitsIcESaIcEED2Ev.exit557

_ZNSt7__cxx1112basic_stringIcSt11char_traitsIcESaIcEED2Ev.exit557: ; preds = %1106, %1100, %1096
  %.3847 = phi i8* [ %1098, %1096 ], [ %1102, %1100 ], [ %1102, %1106 ]
  %.38 = phi i32 [ %1099, %1096 ], [ %1103, %1100 ], [ %1103, %1106 ]
  %1107 = getelementptr inbounds %"class.std::__cxx11::basic_string", %"class.std::__cxx11::basic_string"* %31, i64 0, i32 0, i32 0
  %1108 = load i8*, i8** %1107, align 8, !tbaa !32
  %1109 = icmp eq i8* %1108, %618
  br i1 %1109, label %_ZNSt7__cxx1112basic_stringIcSt11char_traitsIcESaIcEED2Ev.exit550, label %1110

; <label>:1110                                    ; preds = %_ZNSt7__cxx1112basic_stringIcSt11char_traitsIcESaIcEED2Ev.exit557
  call void @_ZdlPv(i8* %1108) #2
  br label %_ZNSt7__cxx1112basic_stringIcSt11char_traitsIcESaIcEED2Ev.exit550

; <label>:1111                                    ; preds = %_ZNSt7__cxx1112basic_stringIcSt11char_traitsIcESaIcEED2Ev.exit342
  %1112 = landingpad { i8*, i32 }
          cleanup
  %1113 = extractvalue { i8*, i32 } %1112, 0
  %1114 = extractvalue { i8*, i32 } %1112, 1
  br label %_ZNSt7__cxx1112basic_stringIcSt11char_traitsIcESaIcEED2Ev.exit553

; <label>:1115                                    ; preds = %._crit_edge.i.i.i.i352
  %1116 = landingpad { i8*, i32 }
          cleanup
  %1117 = extractvalue { i8*, i32 } %1116, 0
  %1118 = extractvalue { i8*, i32 } %1116, 1
  %1119 = load i8*, i8** %.phi.trans.insert.i.i.i.i351, align 8, !tbaa !32
  %1120 = icmp eq i8* %1119, %647
  br i1 %1120, label %_ZNSt7__cxx1112basic_stringIcSt11char_traitsIcESaIcEED2Ev.exit553, label %1121

; <label>:1121                                    ; preds = %1115
  call void @_ZdlPv(i8* %1119) #2
  br label %_ZNSt7__cxx1112basic_stringIcSt11char_traitsIcESaIcEED2Ev.exit553

_ZNSt7__cxx1112basic_stringIcSt11char_traitsIcESaIcEED2Ev.exit553: ; preds = %1121, %1115, %1111
  %.4150 = phi i8* [ %1113, %1111 ], [ %1117, %1115 ], [ %1117, %1121 ]
  %.41 = phi i32 [ %1114, %1111 ], [ %1118, %1115 ], [ %1118, %1121 ]
  %1122 = getelementptr inbounds %"class.std::__cxx11::basic_string", %"class.std::__cxx11::basic_string"* %33, i64 0, i32 0, i32 0
  %1123 = load i8*, i8** %1122, align 8, !tbaa !32
  %1124 = icmp eq i8* %1123, %641
  br i1 %1124, label %_ZNSt7__cxx1112basic_stringIcSt11char_traitsIcESaIcEED2Ev.exit550, label %1125

; <label>:1125                                    ; preds = %_ZNSt7__cxx1112basic_stringIcSt11char_traitsIcESaIcEED2Ev.exit553
  call void @_ZdlPv(i8* %1123) #2
  br label %_ZNSt7__cxx1112basic_stringIcSt11char_traitsIcESaIcEED2Ev.exit550

; <label>:1126                                    ; preds = %_ZNSt7__cxx1112basic_stringIcSt11char_traitsIcESaIcEED2Ev.exit358
  %1127 = landingpad { i8*, i32 }
          cleanup
  %1128 = extractvalue { i8*, i32 } %1127, 0
  %1129 = extractvalue { i8*, i32 } %1127, 1
  %1130 = getelementptr inbounds %"class.std::__cxx11::basic_string", %"class.std::__cxx11::basic_string"* %36, i64 0, i32 0, i32 0
  %1131 = load i8*, i8** %1130, align 8, !tbaa !32
  %1132 = icmp eq i8* %1131, %669
  br i1 %1132, label %_ZNSt7__cxx1112basic_stringIcSt11char_traitsIcESaIcEED2Ev.exit549, label %1133

; <label>:1133                                    ; preds = %1126
  call void @_ZdlPv(i8* %1131) #2
  br label %_ZNSt7__cxx1112basic_stringIcSt11char_traitsIcESaIcEED2Ev.exit549

_ZNSt7__cxx1112basic_stringIcSt11char_traitsIcESaIcEED2Ev.exit549: ; preds = %1133, %1126
  %1134 = getelementptr inbounds %"class.std::__cxx11::basic_string", %"class.std::__cxx11::basic_string"* %35, i64 0, i32 0, i32 0
  %1135 = load i8*, i8** %1134, align 8, !tbaa !32
  %1136 = icmp eq i8* %1135, %664
  br i1 %1136, label %_ZNSt7__cxx1112basic_stringIcSt11char_traitsIcESaIcEED2Ev.exit550, label %1137

; <label>:1137                                    ; preds = %_ZNSt7__cxx1112basic_stringIcSt11char_traitsIcESaIcEED2Ev.exit549
  call void @_ZdlPv(i8* %1135) #2
  br label %_ZNSt7__cxx1112basic_stringIcSt11char_traitsIcESaIcEED2Ev.exit550

; <label>:1138                                    ; preds = %_ZNSt7__cxx1112basic_stringIcSt11char_traitsIcESaIcEED2Ev.exit376
  %1139 = landingpad { i8*, i32 }
          cleanup
  %1140 = extractvalue { i8*, i32 } %1139, 0
  %1141 = extractvalue { i8*, i32 } %1139, 1
  br label %_ZNSt7__cxx1112basic_stringIcSt11char_traitsIcESaIcEED2Ev.exit545

; <label>:1142                                    ; preds = %._crit_edge.i.i.i.i387
  %1143 = landingpad { i8*, i32 }
          cleanup
  %1144 = extractvalue { i8*, i32 } %1143, 0
  %1145 = extractvalue { i8*, i32 } %1143, 1
  %1146 = load i8*, i8** %.phi.trans.insert.i.i.i.i386, align 8, !tbaa !32
  %1147 = icmp eq i8* %1146, %689
  br i1 %1147, label %_ZNSt7__cxx1112basic_stringIcSt11char_traitsIcESaIcEED2Ev.exit545, label %1148

; <label>:1148                                    ; preds = %1142
  call void @_ZdlPv(i8* %1146) #2
  br label %_ZNSt7__cxx1112basic_stringIcSt11char_traitsIcESaIcEED2Ev.exit545

_ZNSt7__cxx1112basic_stringIcSt11char_traitsIcESaIcEED2Ev.exit545: ; preds = %1148, %1142, %1138
  %.4655 = phi i8* [ %1140, %1138 ], [ %1144, %1142 ], [ %1144, %1148 ]
  %.46 = phi i32 [ %1141, %1138 ], [ %1145, %1142 ], [ %1145, %1148 ]
  %1149 = getelementptr inbounds %"class.std::__cxx11::basic_string", %"class.std::__cxx11::basic_string"* %37, i64 0, i32 0, i32 0
  %1150 = load i8*, i8** %1149, align 8, !tbaa !32
  %1151 = icmp eq i8* %1150, %683
  br i1 %1151, label %_ZNSt7__cxx1112basic_stringIcSt11char_traitsIcESaIcEED2Ev.exit550, label %1152

; <label>:1152                                    ; preds = %_ZNSt7__cxx1112basic_stringIcSt11char_traitsIcESaIcEED2Ev.exit545
  call void @_ZdlPv(i8* %1150) #2
  br label %_ZNSt7__cxx1112basic_stringIcSt11char_traitsIcESaIcEED2Ev.exit550

; <label>:1153                                    ; preds = %_ZNSt7__cxx1112basic_stringIcSt11char_traitsIcESaIcEED2Ev.exit393
  %1154 = landingpad { i8*, i32 }
          cleanup
  %1155 = extractvalue { i8*, i32 } %1154, 0
  %1156 = extractvalue { i8*, i32 } %1154, 1
  br label %_ZNSt7__cxx1112basic_stringIcSt11char_traitsIcESaIcEED2Ev.exit541

; <label>:1157                                    ; preds = %._crit_edge.i.i.i.i404
  %1158 = landingpad { i8*, i32 }
          cleanup
  %1159 = extractvalue { i8*, i32 } %1158, 0
  %1160 = extractvalue { i8*, i32 } %1158, 1
  %1161 = load i8*, i8** %.phi.trans.insert.i.i.i.i403, align 8, !tbaa !32
  %1162 = icmp eq i8* %1161, %710
  br i1 %1162, label %_ZNSt7__cxx1112basic_stringIcSt11char_traitsIcESaIcEED2Ev.exit541, label %1163

; <label>:1163                                    ; preds = %1157
  call void @_ZdlPv(i8* %1161) #2
  br label %_ZNSt7__cxx1112basic_stringIcSt11char_traitsIcESaIcEED2Ev.exit541

_ZNSt7__cxx1112basic_stringIcSt11char_traitsIcESaIcEED2Ev.exit541: ; preds = %1163, %1157, %1153
  %.4958 = phi i8* [ %1155, %1153 ], [ %1159, %1157 ], [ %1159, %1163 ]
  %.49 = phi i32 [ %1156, %1153 ], [ %1160, %1157 ], [ %1160, %1163 ]
  %1164 = getelementptr inbounds %"class.std::__cxx11::basic_string", %"class.std::__cxx11::basic_string"* %39, i64 0, i32 0, i32 0
  %1165 = load i8*, i8** %1164, align 8, !tbaa !32
  %1166 = icmp eq i8* %1165, %704
  br i1 %1166, label %_ZNSt7__cxx1112basic_stringIcSt11char_traitsIcESaIcEED2Ev.exit550, label %1167

; <label>:1167                                    ; preds = %_ZNSt7__cxx1112basic_stringIcSt11char_traitsIcESaIcEED2Ev.exit541
  call void @_ZdlPv(i8* %1165) #2
  br label %_ZNSt7__cxx1112basic_stringIcSt11char_traitsIcESaIcEED2Ev.exit550

; <label>:1168                                    ; preds = %_ZNSt7__cxx1112basic_stringIcSt11char_traitsIcESaIcEED2Ev.exit410
  %1169 = landingpad { i8*, i32 }
          cleanup
  %1170 = extractvalue { i8*, i32 } %1169, 0
  %1171 = extractvalue { i8*, i32 } %1169, 1
  br label %_ZNSt7__cxx1112basic_stringIcSt11char_traitsIcESaIcEED2Ev.exit520

; <label>:1172                                    ; preds = %._crit_edge.i.i.i.i422
  %1173 = landingpad { i8*, i32 }
          cleanup
  %1174 = extractvalue { i8*, i32 } %1173, 0
  %1175 = extractvalue { i8*, i32 } %1173, 1
  %1176 = load i8*, i8** %.phi.trans.insert.i.i.i.i421, align 8, !tbaa !32
  %1177 = icmp eq i8* %1176, %731
  br i1 %1177, label %_ZNSt7__cxx1112basic_stringIcSt11char_traitsIcESaIcEED2Ev.exit520, label %1178

; <label>:1178                                    ; preds = %1172
  call void @_ZdlPv(i8* %1176) #2
  br label %_ZNSt7__cxx1112basic_stringIcSt11char_traitsIcESaIcEED2Ev.exit520

_ZNSt7__cxx1112basic_stringIcSt11char_traitsIcESaIcEED2Ev.exit520: ; preds = %1178, %1172, %1168
  %.5261 = phi i8* [ %1170, %1168 ], [ %1174, %1172 ], [ %1174, %1178 ]
  %.52 = phi i32 [ %1171, %1168 ], [ %1175, %1172 ], [ %1175, %1178 ]
  %1179 = getelementptr inbounds %"class.std::__cxx11::basic_string", %"class.std::__cxx11::basic_string"* %41, i64 0, i32 0, i32 0
  %1180 = load i8*, i8** %1179, align 8, !tbaa !32
  %1181 = icmp eq i8* %1180, %725
  br i1 %1181, label %_ZNSt7__cxx1112basic_stringIcSt11char_traitsIcESaIcEED2Ev.exit550, label %1182

; <label>:1182                                    ; preds = %_ZNSt7__cxx1112basic_stringIcSt11char_traitsIcESaIcEED2Ev.exit520
  call void @_ZdlPv(i8* %1180) #2
  br label %_ZNSt7__cxx1112basic_stringIcSt11char_traitsIcESaIcEED2Ev.exit550

; <label>:1183                                    ; preds = %_ZNSt7__cxx1112basic_stringIcSt11char_traitsIcESaIcEED2Ev.exit428
  %1184 = landingpad { i8*, i32 }
          cleanup
  %1185 = extractvalue { i8*, i32 } %1184, 0
  %1186 = extractvalue { i8*, i32 } %1184, 1
  br label %_ZNSt7__cxx1112basic_stringIcSt11char_traitsIcESaIcEED2Ev.exit502

; <label>:1187                                    ; preds = %._crit_edge.i.i.i.i440
  %1188 = landingpad { i8*, i32 }
          cleanup
  %1189 = extractvalue { i8*, i32 } %1188, 0
  %1190 = extractvalue { i8*, i32 } %1188, 1
  %1191 = load i8*, i8** %.phi.trans.insert.i.i.i.i439, align 8, !tbaa !32
  %1192 = icmp eq i8* %1191, %752
  br i1 %1192, label %_ZNSt7__cxx1112basic_stringIcSt11char_traitsIcESaIcEED2Ev.exit502, label %1193

; <label>:1193                                    ; preds = %1187
  call void @_ZdlPv(i8* %1191) #2
  br label %_ZNSt7__cxx1112basic_stringIcSt11char_traitsIcESaIcEED2Ev.exit502

_ZNSt7__cxx1112basic_stringIcSt11char_traitsIcESaIcEED2Ev.exit502: ; preds = %1193, %1187, %1183
  %.5564 = phi i8* [ %1185, %1183 ], [ %1189, %1187 ], [ %1189, %1193 ]
  %.55 = phi i32 [ %1186, %1183 ], [ %1190, %1187 ], [ %1190, %1193 ]
  %1194 = getelementptr inbounds %"class.std::__cxx11::basic_string", %"class.std::__cxx11::basic_string"* %43, i64 0, i32 0, i32 0
  %1195 = load i8*, i8** %1194, align 8, !tbaa !32
  %1196 = icmp eq i8* %1195, %746
  br i1 %1196, label %_ZNSt7__cxx1112basic_stringIcSt11char_traitsIcESaIcEED2Ev.exit550, label %1197

; <label>:1197                                    ; preds = %_ZNSt7__cxx1112basic_stringIcSt11char_traitsIcESaIcEED2Ev.exit502
  call void @_ZdlPv(i8* %1195) #2
  br label %_ZNSt7__cxx1112basic_stringIcSt11char_traitsIcESaIcEED2Ev.exit550

; <label>:1198                                    ; preds = %_ZNSt7__cxx1112basic_stringIcSt11char_traitsIcESaIcEED2Ev.exit446
  %1199 = landingpad { i8*, i32 }
          cleanup
  %1200 = extractvalue { i8*, i32 } %1199, 0
  %1201 = extractvalue { i8*, i32 } %1199, 1
  %1202 = getelementptr inbounds %"class.std::__cxx11::basic_string", %"class.std::__cxx11::basic_string"* %46, i64 0, i32 0, i32 0
  %1203 = load i8*, i8** %1202, align 8, !tbaa !32
  %1204 = icmp eq i8* %1203, %772
  br i1 %1204, label %_ZNSt7__cxx1112basic_stringIcSt11char_traitsIcESaIcEED2Ev.exit484, label %1205

; <label>:1205                                    ; preds = %1198
  call void @_ZdlPv(i8* %1203) #2
  br label %_ZNSt7__cxx1112basic_stringIcSt11char_traitsIcESaIcEED2Ev.exit484

_ZNSt7__cxx1112basic_stringIcSt11char_traitsIcESaIcEED2Ev.exit484: ; preds = %1205, %1198
  %1206 = getelementptr inbounds %"class.std::__cxx11::basic_string", %"class.std::__cxx11::basic_string"* %45, i64 0, i32 0, i32 0
  %1207 = load i8*, i8** %1206, align 8, !tbaa !32
  %1208 = icmp eq i8* %1207, %767
  br i1 %1208, label %_ZNSt7__cxx1112basic_stringIcSt11char_traitsIcESaIcEED2Ev.exit550, label %1209

; <label>:1209                                    ; preds = %_ZNSt7__cxx1112basic_stringIcSt11char_traitsIcESaIcEED2Ev.exit484
  call void @_ZdlPv(i8* %1207) #2
  br label %_ZNSt7__cxx1112basic_stringIcSt11char_traitsIcESaIcEED2Ev.exit550

; <label>:1210                                    ; preds = %_ZNSt7__cxx1112basic_stringIcSt11char_traitsIcESaIcEED2Ev.exit464
  %1211 = landingpad { i8*, i32 }
          cleanup
  %1212 = extractvalue { i8*, i32 } %1211, 0
  %1213 = extractvalue { i8*, i32 } %1211, 1
  br label %_ZNSt7__cxx1112basic_stringIcSt11char_traitsIcESaIcEED2Ev.exit466

; <label>:1214                                    ; preds = %._crit_edge.i.i.i.i476
  %1215 = landingpad { i8*, i32 }
          cleanup
  %1216 = extractvalue { i8*, i32 } %1215, 0
  %1217 = extractvalue { i8*, i32 } %1215, 1
  %1218 = load i8*, i8** %.phi.trans.insert.i.i.i.i475, align 8, !tbaa !32
  %1219 = icmp eq i8* %1218, %792
  br i1 %1219, label %_ZNSt7__cxx1112basic_stringIcSt11char_traitsIcESaIcEED2Ev.exit466, label %1220

; <label>:1220                                    ; preds = %1214
  call void @_ZdlPv(i8* %1218) #2
  br label %_ZNSt7__cxx1112basic_stringIcSt11char_traitsIcESaIcEED2Ev.exit466

_ZNSt7__cxx1112basic_stringIcSt11char_traitsIcESaIcEED2Ev.exit466: ; preds = %1220, %1214, %1210
  %.6069 = phi i8* [ %1212, %1210 ], [ %1216, %1214 ], [ %1216, %1220 ]
  %.60 = phi i32 [ %1213, %1210 ], [ %1217, %1214 ], [ %1217, %1220 ]
  %1221 = getelementptr inbounds %"class.std::__cxx11::basic_string", %"class.std::__cxx11::basic_string"* %47, i64 0, i32 0, i32 0
  %1222 = load i8*, i8** %1221, align 8, !tbaa !32
  %1223 = icmp eq i8* %1222, %786
  br i1 %1223, label %_ZNSt7__cxx1112basic_stringIcSt11char_traitsIcESaIcEED2Ev.exit550, label %1224

; <label>:1224                                    ; preds = %_ZNSt7__cxx1112basic_stringIcSt11char_traitsIcESaIcEED2Ev.exit466
  call void @_ZdlPv(i8* %1222) #2
  br label %_ZNSt7__cxx1112basic_stringIcSt11char_traitsIcESaIcEED2Ev.exit550

; <label>:1225                                    ; preds = %_ZNSt7__cxx1112basic_stringIcSt11char_traitsIcESaIcEED2Ev.exit482
  %1226 = landingpad { i8*, i32 }
          cleanup
  %1227 = extractvalue { i8*, i32 } %1226, 0
  %1228 = extractvalue { i8*, i32 } %1226, 1
  br label %_ZNSt7__cxx1112basic_stringIcSt11char_traitsIcESaIcEED2Ev.exit448

; <label>:1229                                    ; preds = %._crit_edge.i.i.i.i494
  %1230 = landingpad { i8*, i32 }
          cleanup
  %1231 = extractvalue { i8*, i32 } %1230, 0
  %1232 = extractvalue { i8*, i32 } %1230, 1
  %1233 = load i8*, i8** %.phi.trans.insert.i.i.i.i493, align 8, !tbaa !32
  %1234 = icmp eq i8* %1233, %815
  br i1 %1234, label %_ZNSt7__cxx1112basic_stringIcSt11char_traitsIcESaIcEED2Ev.exit448, label %1235

; <label>:1235                                    ; preds = %1229
  call void @_ZdlPv(i8* %1233) #2
  br label %_ZNSt7__cxx1112basic_stringIcSt11char_traitsIcESaIcEED2Ev.exit448

_ZNSt7__cxx1112basic_stringIcSt11char_traitsIcESaIcEED2Ev.exit448: ; preds = %1235, %1229, %1225
  %.6372 = phi i8* [ %1227, %1225 ], [ %1231, %1229 ], [ %1231, %1235 ]
  %.63 = phi i32 [ %1228, %1225 ], [ %1232, %1229 ], [ %1232, %1235 ]
  %1236 = getelementptr inbounds %"class.std::__cxx11::basic_string", %"class.std::__cxx11::basic_string"* %49, i64 0, i32 0, i32 0
  %1237 = load i8*, i8** %1236, align 8, !tbaa !32
  %1238 = icmp eq i8* %1237, %809
  br i1 %1238, label %_ZNSt7__cxx1112basic_stringIcSt11char_traitsIcESaIcEED2Ev.exit550, label %1239

; <label>:1239                                    ; preds = %_ZNSt7__cxx1112basic_stringIcSt11char_traitsIcESaIcEED2Ev.exit448
  call void @_ZdlPv(i8* %1237) #2
  br label %_ZNSt7__cxx1112basic_stringIcSt11char_traitsIcESaIcEED2Ev.exit550

; <label>:1240                                    ; preds = %_ZNSt7__cxx1112basic_stringIcSt11char_traitsIcESaIcEED2Ev.exit500
  %1241 = landingpad { i8*, i32 }
          cleanup
  %1242 = extractvalue { i8*, i32 } %1241, 0
  %1243 = extractvalue { i8*, i32 } %1241, 1
  br label %_ZNSt7__cxx1112basic_stringIcSt11char_traitsIcESaIcEED2Ev.exit430

; <label>:1244                                    ; preds = %._crit_edge.i.i.i.i512
  %1245 = landingpad { i8*, i32 }
          cleanup
  %1246 = extractvalue { i8*, i32 } %1245, 0
  %1247 = extractvalue { i8*, i32 } %1245, 1
  %1248 = load i8*, i8** %.phi.trans.insert.i.i.i.i511, align 8, !tbaa !32
  %1249 = icmp eq i8* %1248, %838
  br i1 %1249, label %_ZNSt7__cxx1112basic_stringIcSt11char_traitsIcESaIcEED2Ev.exit430, label %1250

; <label>:1250                                    ; preds = %1244
  call void @_ZdlPv(i8* %1248) #2
  br label %_ZNSt7__cxx1112basic_stringIcSt11char_traitsIcESaIcEED2Ev.exit430

_ZNSt7__cxx1112basic_stringIcSt11char_traitsIcESaIcEED2Ev.exit430: ; preds = %1250, %1244, %1240
  %.6675 = phi i8* [ %1242, %1240 ], [ %1246, %1244 ], [ %1246, %1250 ]
  %.66 = phi i32 [ %1243, %1240 ], [ %1247, %1244 ], [ %1247, %1250 ]
  %1251 = getelementptr inbounds %"class.std::__cxx11::basic_string", %"class.std::__cxx11::basic_string"* %51, i64 0, i32 0, i32 0
  %1252 = load i8*, i8** %1251, align 8, !tbaa !32
  %1253 = icmp eq i8* %1252, %832
  br i1 %1253, label %_ZNSt7__cxx1112basic_stringIcSt11char_traitsIcESaIcEED2Ev.exit550, label %1254

; <label>:1254                                    ; preds = %_ZNSt7__cxx1112basic_stringIcSt11char_traitsIcESaIcEED2Ev.exit430
  call void @_ZdlPv(i8* %1252) #2
  br label %_ZNSt7__cxx1112basic_stringIcSt11char_traitsIcESaIcEED2Ev.exit550

; <label>:1255                                    ; preds = %_ZNSt7__cxx1112basic_stringIcSt11char_traitsIcESaIcEED2Ev.exit518
  %1256 = landingpad { i8*, i32 }
          cleanup
  %1257 = extractvalue { i8*, i32 } %1256, 0
  %1258 = extractvalue { i8*, i32 } %1256, 1
  br label %_ZNSt7__cxx1112basic_stringIcSt11char_traitsIcESaIcEED2Ev.exit412

; <label>:1259                                    ; preds = %._crit_edge.i.i.i.i530
  %1260 = landingpad { i8*, i32 }
          cleanup
  %1261 = extractvalue { i8*, i32 } %1260, 0
  %1262 = extractvalue { i8*, i32 } %1260, 1
  %1263 = load i8*, i8** %.phi.trans.insert.i.i.i.i529, align 8, !tbaa !32
  %1264 = icmp eq i8* %1263, %861
  br i1 %1264, label %_ZNSt7__cxx1112basic_stringIcSt11char_traitsIcESaIcEED2Ev.exit412, label %1265

; <label>:1265                                    ; preds = %1259
  call void @_ZdlPv(i8* %1263) #2
  br label %_ZNSt7__cxx1112basic_stringIcSt11char_traitsIcESaIcEED2Ev.exit412

_ZNSt7__cxx1112basic_stringIcSt11char_traitsIcESaIcEED2Ev.exit412: ; preds = %1265, %1259, %1255
  %.6978 = phi i8* [ %1257, %1255 ], [ %1261, %1259 ], [ %1261, %1265 ]
  %.69 = phi i32 [ %1258, %1255 ], [ %1262, %1259 ], [ %1262, %1265 ]
  %1266 = getelementptr inbounds %"class.std::__cxx11::basic_string", %"class.std::__cxx11::basic_string"* %53, i64 0, i32 0, i32 0
  %1267 = load i8*, i8** %1266, align 8, !tbaa !32
  %1268 = icmp eq i8* %1267, %855
  br i1 %1268, label %_ZNSt7__cxx1112basic_stringIcSt11char_traitsIcESaIcEED2Ev.exit550, label %1269

; <label>:1269                                    ; preds = %_ZNSt7__cxx1112basic_stringIcSt11char_traitsIcESaIcEED2Ev.exit412
  call void @_ZdlPv(i8* %1267) #2
  br label %_ZNSt7__cxx1112basic_stringIcSt11char_traitsIcESaIcEED2Ev.exit550

; <label>:1270                                    ; preds = %_ZNSt7__cxx1112basic_stringIcSt11char_traitsIcESaIcEED2Ev.exit536
  %1271 = landingpad { i8*, i32 }
          cleanup
  %1272 = extractvalue { i8*, i32 } %1271, 0
  %1273 = extractvalue { i8*, i32 } %1271, 1
  br label %_ZNSt7__cxx1112basic_stringIcSt11char_traitsIcESaIcEED2Ev.exit550

; <label>:1274                                    ; preds = %877
  %1275 = landingpad { i8*, i32 }
          cleanup
  %1276 = extractvalue { i8*, i32 } %1275, 0
  %1277 = extractvalue { i8*, i32 } %1275, 1
  %1278 = load i8*, i8** %878, align 8, !tbaa !32
  %1279 = getelementptr inbounds %"class.std::__cxx11::basic_string", %"class.std::__cxx11::basic_string"* %yaml, i64 0, i32 2
  %1280 = bitcast %union.anon* %1279 to i8*
  %1281 = icmp eq i8* %1278, %1280
  br i1 %1281, label %_ZNSt7__cxx1112basic_stringIcSt11char_traitsIcESaIcEED2Ev.exit550, label %1282

; <label>:1282                                    ; preds = %1274
  call void @_ZdlPv(i8* %1278) #2
  br label %_ZNSt7__cxx1112basic_stringIcSt11char_traitsIcESaIcEED2Ev.exit550

_ZNSt7__cxx1112basic_stringIcSt11char_traitsIcESaIcEED2Ev.exit550: ; preds = %1282, %1274, %1270, %1269, %_ZNSt7__cxx1112basic_stringIcSt11char_traitsIcESaIcEED2Ev.exit412, %1254, %_ZNSt7__cxx1112basic_stringIcSt11char_traitsIcESaIcEED2Ev.exit430, %1239, %_ZNSt7__cxx1112basic_stringIcSt11char_traitsIcESaIcEED2Ev.exit448, %1224, %_ZNSt7__cxx1112basic_stringIcSt11char_traitsIcESaIcEED2Ev.exit466, %1209, %_ZNSt7__cxx1112basic_stringIcSt11char_traitsIcESaIcEED2Ev.exit484, %1197, %_ZNSt7__cxx1112basic_stringIcSt11char_traitsIcESaIcEED2Ev.exit502, %1182, %_ZNSt7__cxx1112basic_stringIcSt11char_traitsIcESaIcEED2Ev.exit520, %1167, %_ZNSt7__cxx1112basic_stringIcSt11char_traitsIcESaIcEED2Ev.exit541, %1152, %_ZNSt7__cxx1112basic_stringIcSt11char_traitsIcESaIcEED2Ev.exit545, %1137, %_ZNSt7__cxx1112basic_stringIcSt11char_traitsIcESaIcEED2Ev.exit549, %1125, %_ZNSt7__cxx1112basic_stringIcSt11char_traitsIcESaIcEED2Ev.exit553, %1110, %_ZNSt7__cxx1112basic_stringIcSt11char_traitsIcESaIcEED2Ev.exit557, %1095, %_ZNSt7__cxx1112basic_stringIcSt11char_traitsIcESaIcEED2Ev.exit561, %1080, %_ZNSt7__cxx1112basic_stringIcSt11char_traitsIcESaIcEED2Ev.exit565, %1065, %_ZNSt7__cxx1112basic_stringIcSt11char_traitsIcESaIcEED2Ev.exit569, %1053, %_ZNSt7__cxx1112basic_stringIcSt11char_traitsIcESaIcEED2Ev.exit573, %1039, %1038, %1031, %1030, %1024, %1020, %1019, %_ZNSt7__cxx1112basic_stringIcSt11char_traitsIcESaIcEED2Ev.exit576, %1004, %_ZNSt7__cxx1112basic_stringIcSt11char_traitsIcESaIcEED2Ev.exit572, %989, %_ZNSt7__cxx1112basic_stringIcSt11char_traitsIcESaIcEED2Ev.exit568, %974, %_ZNSt7__cxx1112basic_stringIcSt11char_traitsIcESaIcEED2Ev.exit564, %962, %_ZNSt7__cxx1112basic_stringIcSt11char_traitsIcESaIcEED2Ev.exit560, %939, %_ZNSt7__cxx1112basic_stringIcSt11char_traitsIcESaIcEED2Ev.exit554, %919, %_ZNSt7__cxx1112basic_stringIcSt11char_traitsIcESaIcEED2Ev.exit548
  %.7180 = phi i8* [ %1272, %1270 ], [ %910, %_ZNSt7__cxx1112basic_stringIcSt11char_traitsIcESaIcEED2Ev.exit548 ], [ %910, %919 ], [ %.817, %_ZNSt7__cxx1112basic_stringIcSt11char_traitsIcESaIcEED2Ev.exit554 ], [ %.817, %939 ], [ %.1221, %_ZNSt7__cxx1112basic_stringIcSt11char_traitsIcESaIcEED2Ev.exit560 ], [ %.1221, %962 ], [ %965, %_ZNSt7__cxx1112basic_stringIcSt11char_traitsIcESaIcEED2Ev.exit564 ], [ %965, %974 ], [ %.1726, %_ZNSt7__cxx1112basic_stringIcSt11char_traitsIcESaIcEED2Ev.exit568 ], [ %.1726, %989 ], [ %.2029, %_ZNSt7__cxx1112basic_stringIcSt11char_traitsIcESaIcEED2Ev.exit572 ], [ %.2029, %1004 ], [ %.2332, %_ZNSt7__cxx1112basic_stringIcSt11char_traitsIcESaIcEED2Ev.exit576 ], [ %.2332, %1019 ], [ %1022, %1020 ], [ %1026, %1024 ], [ %1026, %1030 ], [ %1033, %1031 ], [ %1033, %1038 ], [ %1041, %1039 ], [ %1045, %_ZNSt7__cxx1112basic_stringIcSt11char_traitsIcESaIcEED2Ev.exit573 ], [ %1045, %1053 ], [ %1056, %_ZNSt7__cxx1112basic_stringIcSt11char_traitsIcESaIcEED2Ev.exit569 ], [ %1056, %1065 ], [ %.3241, %_ZNSt7__cxx1112basic_stringIcSt11char_traitsIcESaIcEED2Ev.exit565 ], [ %.3241, %1080 ], [ %.3544, %_ZNSt7__cxx1112basic_stringIcSt11char_traitsIcESaIcEED2Ev.exit561 ], [ %.3544, %1095 ], [ %.3847, %_ZNSt7__cxx1112basic_stringIcSt11char_traitsIcESaIcEED2Ev.exit557 ], [ %.3847, %1110 ], [ %.4150, %_ZNSt7__cxx1112basic_stringIcSt11char_traitsIcESaIcEED2Ev.exit553 ], [ %.4150, %1125 ], [ %1128, %_ZNSt7__cxx1112basic_stringIcSt11char_traitsIcESaIcEED2Ev.exit549 ], [ %1128, %1137 ], [ %.4655, %_ZNSt7__cxx1112basic_stringIcSt11char_traitsIcESaIcEED2Ev.exit545 ], [ %.4655, %1152 ], [ %.4958, %_ZNSt7__cxx1112basic_stringIcSt11char_traitsIcESaIcEED2Ev.exit541 ], [ %.4958, %1167 ], [ %.5261, %_ZNSt7__cxx1112basic_stringIcSt11char_traitsIcESaIcEED2Ev.exit520 ], [ %.5261, %1182 ], [ %.5564, %_ZNSt7__cxx1112basic_stringIcSt11char_traitsIcESaIcEED2Ev.exit502 ], [ %.5564, %1197 ], [ %1200, %_ZNSt7__cxx1112basic_stringIcSt11char_traitsIcESaIcEED2Ev.exit484 ], [ %1200, %1209 ], [ %.6069, %_ZNSt7__cxx1112basic_stringIcSt11char_traitsIcESaIcEED2Ev.exit466 ], [ %.6069, %1224 ], [ %.6372, %_ZNSt7__cxx1112basic_stringIcSt11char_traitsIcESaIcEED2Ev.exit448 ], [ %.6372, %1239 ], [ %.6675, %_ZNSt7__cxx1112basic_stringIcSt11char_traitsIcESaIcEED2Ev.exit430 ], [ %.6675, %1254 ], [ %.6978, %_ZNSt7__cxx1112basic_stringIcSt11char_traitsIcESaIcEED2Ev.exit412 ], [ %.6978, %1269 ], [ %1276, %1274 ], [ %1276, %1282 ]
  %.71 = phi i32 [ %1273, %1270 ], [ %911, %_ZNSt7__cxx1112basic_stringIcSt11char_traitsIcESaIcEED2Ev.exit548 ], [ %911, %919 ], [ %.8, %_ZNSt7__cxx1112basic_stringIcSt11char_traitsIcESaIcEED2Ev.exit554 ], [ %.8, %939 ], [ %.12, %_ZNSt7__cxx1112basic_stringIcSt11char_traitsIcESaIcEED2Ev.exit560 ], [ %.12, %962 ], [ %966, %_ZNSt7__cxx1112basic_stringIcSt11char_traitsIcESaIcEED2Ev.exit564 ], [ %966, %974 ], [ %.17, %_ZNSt7__cxx1112basic_stringIcSt11char_traitsIcESaIcEED2Ev.exit568 ], [ %.17, %989 ], [ %.20, %_ZNSt7__cxx1112basic_stringIcSt11char_traitsIcESaIcEED2Ev.exit572 ], [ %.20, %1004 ], [ %.23, %_ZNSt7__cxx1112basic_stringIcSt11char_traitsIcESaIcEED2Ev.exit576 ], [ %.23, %1019 ], [ %1023, %1020 ], [ %1027, %1024 ], [ %1027, %1030 ], [ %1034, %1031 ], [ %1034, %1038 ], [ %1042, %1039 ], [ %1046, %_ZNSt7__cxx1112basic_stringIcSt11char_traitsIcESaIcEED2Ev.exit573 ], [ %1046, %1053 ], [ %1057, %_ZNSt7__cxx1112basic_stringIcSt11char_traitsIcESaIcEED2Ev.exit569 ], [ %1057, %1065 ], [ %.32, %_ZNSt7__cxx1112basic_stringIcSt11char_traitsIcESaIcEED2Ev.exit565 ], [ %.32, %1080 ], [ %.35, %_ZNSt7__cxx1112basic_stringIcSt11char_traitsIcESaIcEED2Ev.exit561 ], [ %.35, %1095 ], [ %.38, %_ZNSt7__cxx1112basic_stringIcSt11char_traitsIcESaIcEED2Ev.exit557 ], [ %.38, %1110 ], [ %.41, %_ZNSt7__cxx1112basic_stringIcSt11char_traitsIcESaIcEED2Ev.exit553 ], [ %.41, %1125 ], [ %1129, %_ZNSt7__cxx1112basic_stringIcSt11char_traitsIcESaIcEED2Ev.exit549 ], [ %1129, %1137 ], [ %.46, %_ZNSt7__cxx1112basic_stringIcSt11char_traitsIcESaIcEED2Ev.exit545 ], [ %.46, %1152 ], [ %.49, %_ZNSt7__cxx1112basic_stringIcSt11char_traitsIcESaIcEED2Ev.exit541 ], [ %.49, %1167 ], [ %.52, %_ZNSt7__cxx1112basic_stringIcSt11char_traitsIcESaIcEED2Ev.exit520 ], [ %.52, %1182 ], [ %.55, %_ZNSt7__cxx1112basic_stringIcSt11char_traitsIcESaIcEED2Ev.exit502 ], [ %.55, %1197 ], [ %1201, %_ZNSt7__cxx1112basic_stringIcSt11char_traitsIcESaIcEED2Ev.exit484 ], [ %1201, %1209 ], [ %.60, %_ZNSt7__cxx1112basic_stringIcSt11char_traitsIcESaIcEED2Ev.exit466 ], [ %.60, %1224 ], [ %.63, %_ZNSt7__cxx1112basic_stringIcSt11char_traitsIcESaIcEED2Ev.exit448 ], [ %.63, %1239 ], [ %.66, %_ZNSt7__cxx1112basic_stringIcSt11char_traitsIcESaIcEED2Ev.exit430 ], [ %.66, %1254 ], [ %.69, %_ZNSt7__cxx1112basic_stringIcSt11char_traitsIcESaIcEED2Ev.exit412 ], [ %.69, %1269 ], [ %1277, %1274 ], [ %1277, %1282 ]
  invoke void @_ZN8YAML_DocD1Ev(%class.YAML_Doc* nonnull %doc)
          to label %_ZNSt7__cxx1112basic_stringIcSt11char_traitsIcESaIcEED2Ev.exit546 unwind label %1285

_ZNSt7__cxx1112basic_stringIcSt11char_traitsIcESaIcEED2Ev.exit546: ; preds = %_ZNSt7__cxx1112basic_stringIcSt11char_traitsIcESaIcEED2Ev.exit550, %907, %_ZNSt7__cxx1112basic_stringIcSt11char_traitsIcESaIcEED2Ev.exit544
  %.7281 = phi i8* [ %.7180, %_ZNSt7__cxx1112basic_stringIcSt11char_traitsIcESaIcEED2Ev.exit550 ], [ %890, %_ZNSt7__cxx1112basic_stringIcSt11char_traitsIcESaIcEED2Ev.exit544 ], [ %890, %907 ]
  %.72 = phi i32 [ %.71, %_ZNSt7__cxx1112basic_stringIcSt11char_traitsIcESaIcEED2Ev.exit550 ], [ %891, %_ZNSt7__cxx1112basic_stringIcSt11char_traitsIcESaIcEED2Ev.exit544 ], [ %891, %907 ]
  %1283 = insertvalue { i8*, i32 } undef, i8* %.7281, 0
  %1284 = insertvalue { i8*, i32 } %1283, i32 %.72, 1
  resume { i8*, i32 } %1284

; <label>:1285                                    ; preds = %_ZNSt7__cxx1112basic_stringIcSt11char_traitsIcESaIcEED2Ev.exit550
  %1286 = landingpad { i8*, i32 }
          catch i8* null
  %1287 = extractvalue { i8*, i32 } %1286, 0
  call void @__clang_call_terminate(i8* %1287) #18
  unreachable
}

declare i32 @__gxx_personality_v0(...)

; Function Attrs: argmemonly nounwind
declare void @llvm.lifetime.start(i64, i8* nocapture) #4

declare dereferenceable(272) %"class.std::basic_ostream"* @_ZSt16__ostream_insertIcSt11char_traitsIcEERSt13basic_ostreamIT_T0_ES6_PKS3_l(%"class.std::basic_ostream"* dereferenceable(272), i8*, i64) #1

; Function Attrs: noreturn
declare void @_ZSt16__throw_bad_castv() #5

declare void @_ZNKSt5ctypeIcE13_M_widen_initEv(%"class.std::ctype"*) #1

declare dereferenceable(272) %"class.std::basic_ostream"* @_ZNSo3putEc(%"class.std::basic_ostream"*, i8 signext) #1

declare dereferenceable(272) %"class.std::basic_ostream"* @_ZNSo5flushEv(%"class.std::basic_ostream"*) #1

declare void @_ZNSt9basic_iosIcSt11char_traitsIcEE5clearESt12_Ios_Iostate(%"class.std::basic_ios"*, i32) #1

; Function Attrs: nounwind readonly
declare i64 @strlen(i8* nocapture) #6

; Function Attrs: noreturn nounwind
declare void @exit(i32) #7

; Function Attrs: nounwind
declare i64 @strtol(i8* readonly, i8** nocapture, i32) #8

declare dereferenceable(272) %"class.std::basic_ostream"* @_ZNSolsEi(%"class.std::basic_ostream"*, i32) #1

; Function Attrs: argmemonly nounwind
declare void @llvm.memcpy.p0i8.p0i8.i64(i8* nocapture, i8* nocapture readonly, i64, i32, i1) #4

; Function Attrs: nobuiltin nounwind
declare void @_ZdlPv(i8*) #9

declare i8* @_ZNSt7__cxx1112basic_stringIcSt11char_traitsIcESaIcEE9_M_createERmm(%"class.std::__cxx11::basic_string"*, i64* dereferenceable(8), i64) #1

; Function Attrs: argmemonly nounwind
declare void @llvm.lifetime.end(i64, i8* nocapture) #4

; Function Attrs: noinline noreturn nounwind
define linkonce_odr hidden void @__clang_call_terminate(i8*) #10 comdat {
  %2 = tail call i8* @__cxa_begin_catch(i8* %0) #2
  tail call void @_ZSt9terminatev() #18
  unreachable
}

declare i8* @__cxa_begin_catch(i8*)

declare void @_ZSt9terminatev()

; Function Attrs: uwtable
define internal void @_GLOBAL__sub_I_generate_matrix.cpp() #0 section ".text.startup" {
  tail call void @_ZNSt8ios_base4InitC1Ev(%"class.std::ios_base::Init"* nonnull @_ZStL8__ioinit.2)
  %1 = tail call i32 @__cxa_atexit(void (i8*)* bitcast (void (%"class.std::ios_base::Init"*)* @_ZNSt8ios_base4InitD1Ev to void (i8*)*), i8* getelementptr inbounds (%"class.std::ios_base::Init", %"class.std::ios_base::Init"* @_ZStL8__ioinit.2, i64 0, i32 0), i8* nonnull @__dso_handle) #2
  ret void
}

; Function Attrs: uwtable
define void @_Z15generate_matrixiiiPP24HPC_Sparse_Matrix_STRUCTPPdS3_S3_(i32 %nx, i32 %ny, i32 %nz, %struct.HPC_Sparse_Matrix_STRUCT** nocapture %A, double** nocapture %x, double** nocapture %b, double** nocapture %xexact) #0 {
  %1 = tail call noalias i8* @_Znwm(i64 96) #19
  %2 = bitcast %struct.HPC_Sparse_Matrix_STRUCT** %A to i8**
  store i8* %1, i8** %2, align 8, !tbaa !12
  %3 = bitcast i8* %1 to i8**
  store i8* null, i8** %3, align 8, !tbaa !34
  %4 = mul nsw i32 %ny, %nx
  %5 = mul nsw i32 %4, %nz
  %6 = icmp sgt i32 %5, 0
  %7 = ptrtoint i8* %1 to i64
  %8 = inttoptr i64 %7 to %struct.HPC_Sparse_Matrix_STRUCT*
  br i1 %6, label %10, label %9

; <label>:9                                       ; preds = %0
  tail call void @__assert_fail(i8* nonnull getelementptr inbounds ([15 x i8], [15 x i8]* @.str.11, i64 0, i64 0), i8* nonnull getelementptr inbounds ([20 x i8], [20 x i8]* @.str.1.12, i64 0, i64 0), i32 85, i8* nonnull getelementptr inbounds ([91 x i8], [91 x i8]* @__PRETTY_FUNCTION__._Z15generate_matrixiiiPP24HPC_Sparse_Matrix_STRUCTPPdS3_S3_, i64 0, i64 0)) #18
  unreachable

; <label>:10                                      ; preds = %0
  %11 = mul nsw i32 %5, 27
  %12 = sext i32 %5 to i64
  %13 = mul nsw i64 %12, 27
  %14 = add nsw i32 %5, -1
  %15 = tail call { i64, i1 } @llvm.umul.with.overflow.i64(i64 %12, i64 4)
  %16 = extractvalue { i64, i1 } %15, 1
  %17 = extractvalue { i64, i1 } %15, 0
  %18 = select i1 %16, i64 -1, i64 %17
  %19 = tail call noalias i8* @_Znam(i64 %18) #19
  %20 = getelementptr inbounds i8, i8* %1, i64 48
  %21 = bitcast i8* %20 to i8**
  store i8* %19, i8** %21, align 8, !tbaa !35
  %22 = tail call { i64, i1 } @llvm.umul.with.overflow.i64(i64 %12, i64 8)
  %23 = extractvalue { i64, i1 } %22, 1
  %24 = extractvalue { i64, i1 } %22, 0
  %25 = select i1 %23, i64 -1, i64 %24
  %26 = tail call noalias i8* @_Znam(i64 %25) #19
  %27 = getelementptr inbounds %struct.HPC_Sparse_Matrix_STRUCT, %struct.HPC_Sparse_Matrix_STRUCT* %8, i64 0, i32 9
  %28 = bitcast double*** %27 to i8**
  store i8* %26, i8** %28, align 8, !tbaa !36
  %29 = tail call noalias i8* @_Znam(i64 %25) #19
  %30 = load %struct.HPC_Sparse_Matrix_STRUCT*, %struct.HPC_Sparse_Matrix_STRUCT** %A, align 8, !tbaa !12
  %31 = getelementptr inbounds %struct.HPC_Sparse_Matrix_STRUCT, %struct.HPC_Sparse_Matrix_STRUCT* %30, i64 0, i32 10
  %32 = bitcast i32*** %31 to i8**
  store i8* %29, i8** %32, align 8, !tbaa !37
  %33 = tail call noalias i8* @_Znam(i64 %25) #19
  %34 = load %struct.HPC_Sparse_Matrix_STRUCT*, %struct.HPC_Sparse_Matrix_STRUCT** %A, align 8, !tbaa !12
  %35 = getelementptr inbounds %struct.HPC_Sparse_Matrix_STRUCT, %struct.HPC_Sparse_Matrix_STRUCT* %34, i64 0, i32 11
  %36 = bitcast double*** %35 to i8**
  store i8* %33, i8** %36, align 8, !tbaa !38
  %37 = tail call noalias i8* @_Znam(i64 %25) #19
  %38 = bitcast double** %x to i8**
  store i8* %37, i8** %38, align 8, !tbaa !12
  %39 = tail call noalias i8* @_Znam(i64 %25) #19
  %40 = bitcast double** %b to i8**
  store i8* %39, i8** %40, align 8, !tbaa !12
  %41 = tail call noalias i8* @_Znam(i64 %25) #19
  %42 = bitcast double** %xexact to i8**
  store i8* %41, i8** %42, align 8, !tbaa !12
  %43 = sext i32 %11 to i64
  %44 = tail call { i64, i1 } @llvm.umul.with.overflow.i64(i64 %43, i64 8)
  %45 = extractvalue { i64, i1 } %44, 1
  %46 = extractvalue { i64, i1 } %44, 0
  %47 = select i1 %45, i64 -1, i64 %46
  %48 = tail call noalias i8* @_Znam(i64 %47) #19
  %49 = load %struct.HPC_Sparse_Matrix_STRUCT*, %struct.HPC_Sparse_Matrix_STRUCT** %A, align 8, !tbaa !12
  %50 = getelementptr inbounds %struct.HPC_Sparse_Matrix_STRUCT, %struct.HPC_Sparse_Matrix_STRUCT* %49, i64 0, i32 12
  %51 = bitcast double** %50 to i8**
  store i8* %48, i8** %51, align 8, !tbaa !39
  %52 = tail call { i64, i1 } @llvm.umul.with.overflow.i64(i64 %43, i64 4)
  %53 = extractvalue { i64, i1 } %52, 1
  %54 = extractvalue { i64, i1 } %52, 0
  %55 = select i1 %53, i64 -1, i64 %54
  %56 = tail call noalias i8* @_Znam(i64 %55) #19
  %57 = load %struct.HPC_Sparse_Matrix_STRUCT*, %struct.HPC_Sparse_Matrix_STRUCT** %A, align 8, !tbaa !12
  %58 = getelementptr inbounds %struct.HPC_Sparse_Matrix_STRUCT, %struct.HPC_Sparse_Matrix_STRUCT* %57, i64 0, i32 13
  %59 = bitcast i32** %58 to i8**
  store i8* %56, i8** %59, align 8, !tbaa !40
  %60 = load %struct.HPC_Sparse_Matrix_STRUCT*, %struct.HPC_Sparse_Matrix_STRUCT** %A, align 8, !tbaa !12
  %61 = icmp sgt i32 %nz, 0
  br i1 %61, label %.preheader9.lr.ph, label %._crit_edge42

.preheader9.lr.ph:                                ; preds = %10
  %62 = getelementptr inbounds %struct.HPC_Sparse_Matrix_STRUCT, %struct.HPC_Sparse_Matrix_STRUCT* %60, i64 0, i32 13
  %63 = load i32*, i32** %62, align 8, !tbaa !40
  %64 = getelementptr inbounds %struct.HPC_Sparse_Matrix_STRUCT, %struct.HPC_Sparse_Matrix_STRUCT* %60, i64 0, i32 12
  %65 = load double*, double** %64, align 8, !tbaa !39
  %66 = icmp sgt i32 %ny, 0
  %67 = icmp sgt i32 %nx, 0
  br label %.preheader9

.preheader9:                                      ; preds = %._crit_edge33, %.preheader9.lr.ph
  %68 = phi %struct.HPC_Sparse_Matrix_STRUCT* [ %60, %.preheader9.lr.ph ], [ %71, %._crit_edge33 ]
  %curvalptr.041 = phi double* [ %65, %.preheader9.lr.ph ], [ %curvalptr.1.lcssa, %._crit_edge33 ]
  %curindptr.040 = phi i32* [ %63, %.preheader9.lr.ph ], [ %curindptr.1.lcssa, %._crit_edge33 ]
  %iz.037 = phi i32 [ 0, %.preheader9.lr.ph ], [ %72, %._crit_edge33 ]
  br i1 %66, label %.preheader8.lr.ph, label %._crit_edge33

.preheader8.lr.ph:                                ; preds = %.preheader9
  %69 = mul i32 %iz.037, %ny
  br label %.preheader8

.preheader8:                                      ; preds = %._crit_edge, %.preheader8.lr.ph
  %70 = phi %struct.HPC_Sparse_Matrix_STRUCT* [ %68, %.preheader8.lr.ph ], [ %73, %._crit_edge ]
  %curvalptr.132 = phi double* [ %curvalptr.041, %.preheader8.lr.ph ], [ %curvalptr.2.lcssa, %._crit_edge ]
  %curindptr.131 = phi i32* [ %curindptr.040, %.preheader8.lr.ph ], [ %curindptr.2.lcssa, %._crit_edge ]
  %iy.028 = phi i32 [ 0, %.preheader8.lr.ph ], [ %74, %._crit_edge ]
  br i1 %67, label %.lr.ph, label %._crit_edge

.lr.ph:                                           ; preds = %.preheader8
  %tmp = add i32 %iy.028, %69
  %tmp4 = mul i32 %tmp, %nx
  br label %75

._crit_edge33.loopexit:                           ; preds = %._crit_edge
  br label %._crit_edge33

._crit_edge33:                                    ; preds = %._crit_edge33.loopexit, %.preheader9
  %71 = phi %struct.HPC_Sparse_Matrix_STRUCT* [ %68, %.preheader9 ], [ %73, %._crit_edge33.loopexit ]
  %curvalptr.1.lcssa = phi double* [ %curvalptr.041, %.preheader9 ], [ %curvalptr.2.lcssa, %._crit_edge33.loopexit ]
  %curindptr.1.lcssa = phi i32* [ %curindptr.040, %.preheader9 ], [ %curindptr.2.lcssa, %._crit_edge33.loopexit ]
  %72 = add nuw nsw i32 %iz.037, 1
  %exitcond65 = icmp eq i32 %72, %nz
  br i1 %exitcond65, label %._crit_edge42.loopexit, label %.preheader9

._crit_edge.loopexit:                             ; preds = %95
  br label %._crit_edge

._crit_edge:                                      ; preds = %._crit_edge.loopexit, %.preheader8
  %73 = phi %struct.HPC_Sparse_Matrix_STRUCT* [ %70, %.preheader8 ], [ %96, %._crit_edge.loopexit ]
  %curvalptr.2.lcssa = phi double* [ %curvalptr.132, %.preheader8 ], [ %curvalptr.5.lcssa, %._crit_edge.loopexit ]
  %curindptr.2.lcssa = phi i32* [ %curindptr.131, %.preheader8 ], [ %curindptr.5.lcssa, %._crit_edge.loopexit ]
  %74 = add nuw nsw i32 %iy.028, 1
  %exitcond64 = icmp eq i32 %74, %ny
  br i1 %exitcond64, label %._crit_edge33.loopexit, label %.preheader8

; <label>:75                                      ; preds = %95, %.lr.ph
  %76 = phi %struct.HPC_Sparse_Matrix_STRUCT* [ %70, %.lr.ph ], [ %96, %95 ]
  %indvars.iv = phi i64 [ 0, %.lr.ph ], [ %indvars.iv.next, %95 ]
  %curvalptr.225 = phi double* [ %curvalptr.132, %.lr.ph ], [ %curvalptr.5.lcssa, %95 ]
  %curindptr.224 = phi i32* [ %curindptr.131, %.lr.ph ], [ %curindptr.5.lcssa, %95 ]
  %77 = trunc i64 %indvars.iv to i32
  %78 = add i32 %77, %tmp4
  %79 = sext i32 %78 to i64
  %80 = getelementptr inbounds %struct.HPC_Sparse_Matrix_STRUCT, %struct.HPC_Sparse_Matrix_STRUCT* %76, i64 0, i32 9
  %81 = load double**, double*** %80, align 8, !tbaa !36
  %82 = getelementptr inbounds double*, double** %81, i64 %79
  store double* %curvalptr.225, double** %82, align 8, !tbaa !12
  %83 = load %struct.HPC_Sparse_Matrix_STRUCT*, %struct.HPC_Sparse_Matrix_STRUCT** %A, align 8, !tbaa !12
  %84 = getelementptr inbounds %struct.HPC_Sparse_Matrix_STRUCT, %struct.HPC_Sparse_Matrix_STRUCT* %83, i64 0, i32 10
  %85 = load i32**, i32*** %84, align 8, !tbaa !37
  %86 = getelementptr inbounds i32*, i32** %85, i64 %79
  store i32* %curindptr.224, i32** %86, align 8, !tbaa !12
  %87 = icmp sgt i32 %77, 0
  %88 = icmp sle i32 %77, %nx
  %or.cond2.us.us = and i1 %87, %88
  %89 = icmp sgt i32 %77, -1
  %90 = icmp slt i32 %77, %nx
  %or.cond2.us.us.1 = and i1 %89, %90
  %91 = add nsw i32 %77, 1
  %92 = icmp sgt i32 %77, -2
  %93 = icmp slt i32 %91, %nx
  %or.cond2.us.us.2 = and i1 %92, %93
  br label %.preheader7

.preheader7:                                      ; preds = %125, %75
  %curvalptr.321 = phi double* [ %curvalptr.225, %75 ], [ %curvalptr.5.lcssa, %125 ]
  %sz.020 = phi i32 [ -1, %75 ], [ %126, %125 ]
  %nnzrow.019 = phi i32 [ 0, %75 ], [ %nnzrow.2.lcssa, %125 ]
  %curindptr.318 = phi i32* [ %curindptr.224, %75 ], [ %curindptr.5.lcssa, %125 ]
  %94 = mul i32 %sz.020, %ny
  br label %.preheader

; <label>:95                                      ; preds = %125
  %96 = load %struct.HPC_Sparse_Matrix_STRUCT*, %struct.HPC_Sparse_Matrix_STRUCT** %A, align 8, !tbaa !12
  %97 = getelementptr inbounds %struct.HPC_Sparse_Matrix_STRUCT, %struct.HPC_Sparse_Matrix_STRUCT* %96, i64 0, i32 8
  %98 = load i32*, i32** %97, align 8, !tbaa !35
  %99 = getelementptr inbounds i32, i32* %98, i64 %79
  store i32 %nnzrow.2.lcssa, i32* %99, align 4, !tbaa !21
  %100 = load double*, double** %x, align 8, !tbaa !12
  %101 = getelementptr inbounds double, double* %100, i64 %79
  store double 0.000000e+00, double* %101, align 8, !tbaa !22
  %102 = add nsw i32 %nnzrow.2.lcssa, -1
  %103 = sitofp i32 %102 to double
  %104 = fsub double 2.700000e+01, %103
  %105 = load double*, double** %b, align 8, !tbaa !12
  %106 = getelementptr inbounds double, double* %105, i64 %79
  store double %104, double* %106, align 8, !tbaa !22
  %107 = load double*, double** %xexact, align 8, !tbaa !12
  %108 = getelementptr inbounds double, double* %107, i64 %79
  store double 1.000000e+00, double* %108, align 8, !tbaa !22
  %indvars.iv.next = add nuw nsw i64 %indvars.iv, 1
  %lftr.wideiv = trunc i64 %indvars.iv.next to i32
  %exitcond63 = icmp eq i32 %lftr.wideiv, %nx
  br i1 %exitcond63, label %._crit_edge.loopexit, label %75

.preheader:                                       ; preds = %.us-lcssa.us, %.preheader7
  %curvalptr.417 = phi double* [ %curvalptr.321, %.preheader7 ], [ %curvalptr.5.lcssa, %.us-lcssa.us ]
  %sy.016 = phi i32 [ -1, %.preheader7 ], [ %127, %.us-lcssa.us ]
  %nnzrow.115 = phi i32 [ %nnzrow.019, %.preheader7 ], [ %nnzrow.2.lcssa, %.us-lcssa.us ]
  %curindptr.414 = phi i32* [ %curindptr.318, %.preheader7 ], [ %curindptr.5.lcssa, %.us-lcssa.us ]
  %tmp5 = add i32 %sy.016, %94
  %tmp6 = mul i32 %tmp5, %nx
  %109 = add i32 %tmp6, %78
  %110 = add nsw i32 %sy.016, %iy.028
  %.not = icmp slt i32 %110, 0
  %.not71 = icmp sge i32 %110, %ny
  %brmerge = or i1 %.not, %.not71
  br i1 %brmerge, label %.us-lcssa.us, label %.preheader.split.us.split.us.preheader

.preheader.split.us.split.us.preheader:           ; preds = %.preheader
  %111 = add i32 %109, -1
  br i1 %or.cond2.us.us, label %112, label %.preheader.split.us.split.us.166

; <label>:112                                     ; preds = %.preheader.split.us.split.us.preheader
  %113 = icmp sgt i32 %111, -1
  %114 = icmp slt i32 %111, %5
  %or.cond3.us.us = and i1 %114, %113
  br i1 %or.cond3.us.us, label %115, label %.preheader.split.us.split.us.166

; <label>:115                                     ; preds = %112
  %116 = icmp eq i32 %111, %78
  br i1 %116, label %117, label %122

; <label>:117                                     ; preds = %115
  %118 = load %struct.HPC_Sparse_Matrix_STRUCT*, %struct.HPC_Sparse_Matrix_STRUCT** %A, align 8, !tbaa !12
  %119 = getelementptr inbounds %struct.HPC_Sparse_Matrix_STRUCT, %struct.HPC_Sparse_Matrix_STRUCT* %118, i64 0, i32 11
  %120 = load double**, double*** %119, align 8, !tbaa !38
  %121 = getelementptr inbounds double*, double** %120, i64 %79
  store double* %curvalptr.417, double** %121, align 8, !tbaa !12
  br label %122

; <label>:122                                     ; preds = %117, %115
  %storemerge.us.us = phi double [ 2.700000e+01, %117 ], [ -1.000000e+00, %115 ]
  %curvalptr.6.us.us = getelementptr inbounds double, double* %curvalptr.417, i64 1
  store double %storemerge.us.us, double* %curvalptr.417, align 8, !tbaa !22
  %123 = getelementptr inbounds i32, i32* %curindptr.414, i64 1
  store i32 %111, i32* %curindptr.414, align 4, !tbaa !21
  %124 = add nsw i32 %nnzrow.115, 1
  br label %.preheader.split.us.split.us.166

.preheader.split.us.split.us.166:                 ; preds = %122, %112, %.preheader.split.us.split.us.preheader
  %curindptr.6.us.us = phi i32* [ %123, %122 ], [ %curindptr.414, %112 ], [ %curindptr.414, %.preheader.split.us.split.us.preheader ]
  %nnzrow.3.us.us = phi i32 [ %124, %122 ], [ %nnzrow.115, %112 ], [ %nnzrow.115, %.preheader.split.us.split.us.preheader ]
  %curvalptr.7.us.us = phi double* [ %curvalptr.6.us.us, %122 ], [ %curvalptr.417, %112 ], [ %curvalptr.417, %.preheader.split.us.split.us.preheader ]
  br i1 %or.cond2.us.us.1, label %136, label %.preheader.split.us.split.us.267

; <label>:125                                     ; preds = %.us-lcssa.us
  %126 = add nsw i32 %sz.020, 1
  %exitcond62 = icmp eq i32 %126, 2
  br i1 %exitcond62, label %95, label %.preheader7

.us-lcssa.us:                                     ; preds = %160, %150, %.preheader.split.us.split.us.267, %.preheader
  %curvalptr.5.lcssa = phi double* [ %curvalptr.6.us.us.2, %160 ], [ %curvalptr.7.us.us.1, %150 ], [ %curvalptr.7.us.us.1, %.preheader.split.us.split.us.267 ], [ %curvalptr.417, %.preheader ]
  %nnzrow.2.lcssa = phi i32 [ %162, %160 ], [ %nnzrow.3.us.us.1, %150 ], [ %nnzrow.3.us.us.1, %.preheader.split.us.split.us.267 ], [ %nnzrow.115, %.preheader ]
  %curindptr.5.lcssa = phi i32* [ %161, %160 ], [ %curindptr.6.us.us.1, %150 ], [ %curindptr.6.us.us.1, %.preheader.split.us.split.us.267 ], [ %curindptr.414, %.preheader ]
  %127 = add nsw i32 %sy.016, 1
  %exitcond61 = icmp eq i32 %127, 2
  br i1 %exitcond61, label %125, label %.preheader

._crit_edge42.loopexit:                           ; preds = %._crit_edge33
  br label %._crit_edge42

._crit_edge42:                                    ; preds = %._crit_edge42.loopexit, %10
  %128 = phi %struct.HPC_Sparse_Matrix_STRUCT* [ %60, %10 ], [ %71, %._crit_edge42.loopexit ]
  %129 = getelementptr inbounds %struct.HPC_Sparse_Matrix_STRUCT, %struct.HPC_Sparse_Matrix_STRUCT* %128, i64 0, i32 1
  store i32 0, i32* %129, align 8, !tbaa !41
  %130 = getelementptr inbounds %struct.HPC_Sparse_Matrix_STRUCT, %struct.HPC_Sparse_Matrix_STRUCT* %128, i64 0, i32 2
  store i32 %14, i32* %130, align 4, !tbaa !42
  %131 = getelementptr inbounds %struct.HPC_Sparse_Matrix_STRUCT, %struct.HPC_Sparse_Matrix_STRUCT* %128, i64 0, i32 3
  store i32 %5, i32* %131, align 8, !tbaa !24
  %132 = getelementptr inbounds %struct.HPC_Sparse_Matrix_STRUCT, %struct.HPC_Sparse_Matrix_STRUCT* %128, i64 0, i32 4
  store i64 %13, i64* %132, align 8, !tbaa !27
  %133 = getelementptr inbounds %struct.HPC_Sparse_Matrix_STRUCT, %struct.HPC_Sparse_Matrix_STRUCT* %128, i64 0, i32 5
  store i32 %5, i32* %133, align 8, !tbaa !43
  %134 = getelementptr inbounds %struct.HPC_Sparse_Matrix_STRUCT, %struct.HPC_Sparse_Matrix_STRUCT* %128, i64 0, i32 6
  store i32 %5, i32* %134, align 4, !tbaa !44
  %135 = getelementptr inbounds %struct.HPC_Sparse_Matrix_STRUCT, %struct.HPC_Sparse_Matrix_STRUCT* %128, i64 0, i32 7
  store i32 %11, i32* %135, align 8, !tbaa !45
  ret void

; <label>:136                                     ; preds = %.preheader.split.us.split.us.166
  %137 = icmp sgt i32 %109, -1
  %138 = icmp slt i32 %109, %5
  %or.cond3.us.us.1 = and i1 %138, %137
  br i1 %or.cond3.us.us.1, label %139, label %.preheader.split.us.split.us.267

; <label>:139                                     ; preds = %136
  %140 = icmp eq i32 %tmp6, 0
  br i1 %140, label %141, label %146

; <label>:141                                     ; preds = %139
  %142 = load %struct.HPC_Sparse_Matrix_STRUCT*, %struct.HPC_Sparse_Matrix_STRUCT** %A, align 8, !tbaa !12
  %143 = getelementptr inbounds %struct.HPC_Sparse_Matrix_STRUCT, %struct.HPC_Sparse_Matrix_STRUCT* %142, i64 0, i32 11
  %144 = load double**, double*** %143, align 8, !tbaa !38
  %145 = getelementptr inbounds double*, double** %144, i64 %79
  store double* %curvalptr.7.us.us, double** %145, align 8, !tbaa !12
  br label %146

; <label>:146                                     ; preds = %141, %139
  %storemerge.us.us.1 = phi double [ 2.700000e+01, %141 ], [ -1.000000e+00, %139 ]
  %curvalptr.6.us.us.1 = getelementptr inbounds double, double* %curvalptr.7.us.us, i64 1
  store double %storemerge.us.us.1, double* %curvalptr.7.us.us, align 8, !tbaa !22
  %147 = getelementptr inbounds i32, i32* %curindptr.6.us.us, i64 1
  store i32 %109, i32* %curindptr.6.us.us, align 4, !tbaa !21
  %148 = add nsw i32 %nnzrow.3.us.us, 1
  br label %.preheader.split.us.split.us.267

.preheader.split.us.split.us.267:                 ; preds = %146, %136, %.preheader.split.us.split.us.166
  %curindptr.6.us.us.1 = phi i32* [ %147, %146 ], [ %curindptr.6.us.us, %136 ], [ %curindptr.6.us.us, %.preheader.split.us.split.us.166 ]
  %nnzrow.3.us.us.1 = phi i32 [ %148, %146 ], [ %nnzrow.3.us.us, %136 ], [ %nnzrow.3.us.us, %.preheader.split.us.split.us.166 ]
  %curvalptr.7.us.us.1 = phi double* [ %curvalptr.6.us.us.1, %146 ], [ %curvalptr.7.us.us, %136 ], [ %curvalptr.7.us.us, %.preheader.split.us.split.us.166 ]
  %149 = add i32 %109, 1
  br i1 %or.cond2.us.us.2, label %150, label %.us-lcssa.us

; <label>:150                                     ; preds = %.preheader.split.us.split.us.267
  %151 = icmp sgt i32 %149, -1
  %152 = icmp slt i32 %149, %5
  %or.cond3.us.us.2 = and i1 %152, %151
  br i1 %or.cond3.us.us.2, label %153, label %.us-lcssa.us

; <label>:153                                     ; preds = %150
  %154 = icmp eq i32 %149, %78
  br i1 %154, label %155, label %160

; <label>:155                                     ; preds = %153
  %156 = load %struct.HPC_Sparse_Matrix_STRUCT*, %struct.HPC_Sparse_Matrix_STRUCT** %A, align 8, !tbaa !12
  %157 = getelementptr inbounds %struct.HPC_Sparse_Matrix_STRUCT, %struct.HPC_Sparse_Matrix_STRUCT* %156, i64 0, i32 11
  %158 = load double**, double*** %157, align 8, !tbaa !38
  %159 = getelementptr inbounds double*, double** %158, i64 %79
  store double* %curvalptr.7.us.us.1, double** %159, align 8, !tbaa !12
  br label %160

; <label>:160                                     ; preds = %155, %153
  %storemerge.us.us.2 = phi double [ 2.700000e+01, %155 ], [ -1.000000e+00, %153 ]
  %curvalptr.6.us.us.2 = getelementptr inbounds double, double* %curvalptr.7.us.us.1, i64 1
  store double %storemerge.us.us.2, double* %curvalptr.7.us.us.1, align 8, !tbaa !22
  %161 = getelementptr inbounds i32, i32* %curindptr.6.us.us.1, i64 1
  store i32 %149, i32* %curindptr.6.us.us.1, align 4, !tbaa !21
  %162 = add nsw i32 %nnzrow.3.us.us.1, 1
  br label %.us-lcssa.us
}

; Function Attrs: nobuiltin
declare noalias nonnull i8* @_Znwm(i64) #11

; Function Attrs: noreturn nounwind
declare void @__assert_fail(i8*, i8*, i32, i8*) #7

; Function Attrs: nounwind readnone
declare { i64, i1 } @llvm.umul.with.overflow.i64(i64, i64) #12

; Function Attrs: nobuiltin
declare noalias nonnull i8* @_Znam(i64) #11

; Function Attrs: uwtable
define internal void @_GLOBAL__sub_I_read_HPC_row.cpp() #0 section ".text.startup" {
  tail call void @_ZNSt8ios_base4InitC1Ev(%"class.std::ios_base::Init"* nonnull @_ZStL8__ioinit.14)
  %1 = tail call i32 @__cxa_atexit(void (i8*)* bitcast (void (%"class.std::ios_base::Init"*)* @_ZNSt8ios_base4InitD1Ev to void (i8*)*), i8* getelementptr inbounds (%"class.std::ios_base::Init", %"class.std::ios_base::Init"* @_ZStL8__ioinit.14, i64 0, i32 0), i8* nonnull @__dso_handle) #2
  ret void
}

; Function Attrs: uwtable
define void @_Z12read_HPC_rowPcPP24HPC_Sparse_Matrix_STRUCTPPdS4_S4_(i8* %data_file, %struct.HPC_Sparse_Matrix_STRUCT** nocapture %A, double** nocapture %x, double** nocapture %b, double** nocapture %xexact) #0 {
  %total_nrow = alloca i32, align 4
  %total_nnz = alloca i64, align 8
  %l = alloca i32, align 4
  %v = alloca double, align 8
  %cur_nnz = alloca i32, align 4
  %xt = alloca double, align 8
  %bt = alloca double, align 8
  %xxt = alloca double, align 8
  %1 = bitcast i32* %total_nrow to i8*
  call void @llvm.lifetime.start(i64 4, i8* %1) #2
  %2 = bitcast i64* %total_nnz to i8*
  call void @llvm.lifetime.start(i64 8, i8* %2) #2
  %3 = bitcast i32* %l to i8*
  call void @llvm.lifetime.start(i64 4, i8* %3) #2
  %4 = bitcast double* %v to i8*
  call void @llvm.lifetime.start(i64 8, i8* %4) #2
  %5 = tail call i32 (i8*, ...) @printf(i8* getelementptr inbounds ([32 x i8], [32 x i8]* @.str.17, i64 0, i64 0), i8* %data_file)
  %6 = tail call %struct._IO_FILE* @fopen(i8* %data_file, i8* getelementptr inbounds ([2 x i8], [2 x i8]* @.str.1.18, i64 0, i64 0))
  %7 = icmp eq %struct._IO_FILE* %6, null
  br i1 %7, label %8, label %10

; <label>:8                                       ; preds = %0
  %9 = tail call i32 (i8*, ...) @printf(i8* nonnull getelementptr inbounds ([29 x i8], [29 x i8]* @.str.2.19, i64 0, i64 0), i8* %data_file)
  tail call void @exit(i32 1) #18
  unreachable

; <label>:10                                      ; preds = %0
  %11 = call i32 (%struct._IO_FILE*, i8*, ...) @fscanf(%struct._IO_FILE* nonnull %6, i8* nonnull getelementptr inbounds ([3 x i8], [3 x i8]* @.str.3.20, i64 0, i64 0), i32* nonnull %total_nrow)
  %12 = call i32 (%struct._IO_FILE*, i8*, ...) @fscanf(%struct._IO_FILE* nonnull %6, i8* nonnull getelementptr inbounds ([5 x i8], [5 x i8]* @.str.4.21, i64 0, i64 0), i64* nonnull %total_nnz)
  %13 = load i32, i32* %total_nrow, align 4, !tbaa !21
  %14 = add nsw i32 %13, -1
  %15 = sext i32 %13 to i64
  %16 = call { i64, i1 } @llvm.umul.with.overflow.i64(i64 %15, i64 4)
  %17 = extractvalue { i64, i1 } %16, 1
  %18 = extractvalue { i64, i1 } %16, 0
  %19 = select i1 %17, i64 -1, i64 %18
  %20 = call noalias i8* @_Znam(i64 %19) #19
  %21 = bitcast i8* %20 to i32*
  %22 = call { i64, i1 } @llvm.umul.with.overflow.i64(i64 %15, i64 8)
  %23 = extractvalue { i64, i1 } %22, 1
  %24 = extractvalue { i64, i1 } %22, 0
  %25 = select i1 %23, i64 -1, i64 %24
  %26 = call noalias i8* @_Znam(i64 %25) #19
  %27 = bitcast i8* %26 to double**
  %28 = call noalias i8* @_Znam(i64 %25) #19
  %29 = bitcast i8* %28 to i32**
  %30 = call noalias i8* @_Znam(i64 %25) #19
  %31 = call noalias i8* @_Znam(i64 %25) #19
  %32 = bitcast double** %x to i8**
  store i8* %31, i8** %32, align 8, !tbaa !12
  %33 = call noalias i8* @_Znam(i64 %25) #19
  %34 = bitcast double** %b to i8**
  store i8* %33, i8** %34, align 8, !tbaa !12
  %35 = call noalias i8* @_Znam(i64 %25) #19
  %36 = bitcast double** %xexact to i8**
  store i8* %35, i8** %36, align 8, !tbaa !12
  %37 = icmp sgt i32 %13, 0
  br i1 %37, label %.lr.ph23.preheader, label %._crit_edge24

.lr.ph23.preheader:                               ; preds = %10
  br label %.lr.ph23

.lr.ph23:                                         ; preds = %46, %.lr.ph23.preheader
  %i.021 = phi i32 [ %47, %46 ], [ 0, %.lr.ph23.preheader ]
  %cur_local_row.020 = phi i32 [ %cur_local_row.1, %46 ], [ 0, %.lr.ph23.preheader ]
  %local_nnz.019 = phi i32 [ %local_nnz.1, %46 ], [ 0, %.lr.ph23.preheader ]
  %38 = call i32 (%struct._IO_FILE*, i8*, ...) @fscanf(%struct._IO_FILE* nonnull %6, i8* nonnull getelementptr inbounds ([3 x i8], [3 x i8]* @.str.3.20, i64 0, i64 0), i32* nonnull %l)
  %39 = icmp slt i32 %i.021, %13
  br i1 %39, label %40, label %46

; <label>:40                                      ; preds = %.lr.ph23
  %41 = load i32, i32* %l, align 4, !tbaa !21
  %42 = add nsw i32 %41, %local_nnz.019
  %43 = sext i32 %cur_local_row.020 to i64
  %44 = getelementptr inbounds i32, i32* %21, i64 %43
  store i32 %41, i32* %44, align 4, !tbaa !21
  %45 = add nsw i32 %cur_local_row.020, 1
  br label %46

; <label>:46                                      ; preds = %40, %.lr.ph23
  %local_nnz.1 = phi i32 [ %42, %40 ], [ %local_nnz.019, %.lr.ph23 ]
  %cur_local_row.1 = phi i32 [ %45, %40 ], [ %cur_local_row.020, %.lr.ph23 ]
  %47 = add nuw nsw i32 %i.021, 1
  %48 = load i32, i32* %total_nrow, align 4, !tbaa !21
  %49 = icmp slt i32 %47, %48
  br i1 %49, label %.lr.ph23, label %._crit_edge24.loopexit

._crit_edge24.loopexit:                           ; preds = %46
  br label %._crit_edge24

._crit_edge24:                                    ; preds = %._crit_edge24.loopexit, %10
  %50 = phi i32 [ %13, %10 ], [ %48, %._crit_edge24.loopexit ]
  %cur_local_row.0.lcssa = phi i32 [ 0, %10 ], [ %cur_local_row.1, %._crit_edge24.loopexit ]
  %local_nnz.0.lcssa = phi i32 [ 0, %10 ], [ %local_nnz.1, %._crit_edge24.loopexit ]
  %51 = icmp eq i32 %cur_local_row.0.lcssa, %13
  br i1 %51, label %53, label %52

; <label>:52                                      ; preds = %._crit_edge24
  call void @__assert_fail(i8* nonnull getelementptr inbounds ([26 x i8], [26 x i8]* @.str.5.22, i64 0, i64 0), i8* nonnull getelementptr inbounds ([17 x i8], [17 x i8]* @.str.6.23, i64 0, i64 0), i32 135, i8* nonnull getelementptr inbounds ([81 x i8], [81 x i8]* @__PRETTY_FUNCTION__._Z12read_HPC_rowPcPP24HPC_Sparse_Matrix_STRUCTPPdS4_S4_, i64 0, i64 0)) #18
  unreachable

; <label>:53                                      ; preds = %._crit_edge24
  %54 = sext i32 %local_nnz.0.lcssa to i64
  %55 = call { i64, i1 } @llvm.umul.with.overflow.i64(i64 %54, i64 8)
  %56 = extractvalue { i64, i1 } %55, 1
  %57 = extractvalue { i64, i1 } %55, 0
  %58 = select i1 %56, i64 -1, i64 %57
  %59 = call noalias i8* @_Znam(i64 %58) #19
  %60 = call { i64, i1 } @llvm.umul.with.overflow.i64(i64 %54, i64 4)
  %61 = extractvalue { i64, i1 } %60, 1
  %62 = extractvalue { i64, i1 } %60, 0
  %63 = select i1 %61, i64 -1, i64 %62
  %64 = call noalias i8* @_Znam(i64 %63) #19
  %65 = bitcast i8* %26 to i8**
  store i8* %59, i8** %65, align 8, !tbaa !12
  %66 = bitcast i8* %28 to i8**
  store i8* %64, i8** %66, align 8, !tbaa !12
  %67 = icmp sgt i32 %13, 1
  br i1 %67, label %.lr.ph18.preheader, label %.preheader4

.lr.ph18.preheader:                               ; preds = %53
  %68 = bitcast i8* %64 to i32*
  %69 = bitcast i8* %59 to double*
  %70 = add i32 %13, 3
  %71 = add i32 %13, -2
  %xtraiter = and i32 %70, 3
  %lcmp.mod = icmp eq i32 %xtraiter, 0
  br i1 %lcmp.mod, label %.lr.ph18.preheader.split, label %.lr.ph18.prol.preheader

.lr.ph18.prol.preheader:                          ; preds = %.lr.ph18.preheader
  br label %.lr.ph18.prol

.lr.ph18.prol:                                    ; preds = %.lr.ph18.prol, %.lr.ph18.prol.preheader
  %72 = phi i32* [ %80, %.lr.ph18.prol ], [ %68, %.lr.ph18.prol.preheader ]
  %73 = phi double* [ %78, %.lr.ph18.prol ], [ %69, %.lr.ph18.prol.preheader ]
  %indvars.iv26.prol = phi i64 [ %indvars.iv.next27.prol, %.lr.ph18.prol ], [ 1, %.lr.ph18.prol.preheader ]
  %prol.iter = phi i32 [ %prol.iter.sub, %.lr.ph18.prol ], [ %xtraiter, %.lr.ph18.prol.preheader ]
  %74 = add nsw i64 %indvars.iv26.prol, -1
  %75 = getelementptr inbounds i32, i32* %21, i64 %74
  %76 = load i32, i32* %75, align 4, !tbaa !21
  %77 = sext i32 %76 to i64
  %78 = getelementptr inbounds double, double* %73, i64 %77
  %79 = getelementptr inbounds double*, double** %27, i64 %indvars.iv26.prol
  store double* %78, double** %79, align 8, !tbaa !12
  %80 = getelementptr inbounds i32, i32* %72, i64 %77
  %81 = getelementptr inbounds i32*, i32** %29, i64 %indvars.iv26.prol
  store i32* %80, i32** %81, align 8, !tbaa !12
  %indvars.iv.next27.prol = add nuw nsw i64 %indvars.iv26.prol, 1
  %prol.iter.sub = add i32 %prol.iter, -1
  %prol.iter.cmp = icmp eq i32 %prol.iter.sub, 0
  br i1 %prol.iter.cmp, label %.lr.ph18.preheader.split.loopexit, label %.lr.ph18.prol, !llvm.loop !46

.lr.ph18.preheader.split.loopexit:                ; preds = %.lr.ph18.prol
  br label %.lr.ph18.preheader.split

.lr.ph18.preheader.split:                         ; preds = %.lr.ph18.preheader.split.loopexit, %.lr.ph18.preheader
  %.unr = phi i32* [ %68, %.lr.ph18.preheader ], [ %80, %.lr.ph18.preheader.split.loopexit ]
  %.unr31 = phi double* [ %69, %.lr.ph18.preheader ], [ %78, %.lr.ph18.preheader.split.loopexit ]
  %indvars.iv26.unr = phi i64 [ 1, %.lr.ph18.preheader ], [ %indvars.iv.next27.prol, %.lr.ph18.preheader.split.loopexit ]
  %82 = icmp ult i32 %71, 3
  br i1 %82, label %.preheader4.loopexit, label %.lr.ph18.preheader.split.split

.lr.ph18.preheader.split.split:                   ; preds = %.lr.ph18.preheader.split
  br label %.lr.ph18

.preheader4.loopexit.unr-lcssa:                   ; preds = %.lr.ph18
  br label %.preheader4.loopexit

.preheader4.loopexit:                             ; preds = %.preheader4.loopexit.unr-lcssa, %.lr.ph18.preheader.split
  br label %.preheader4

.preheader4:                                      ; preds = %.preheader4.loopexit, %53
  %83 = icmp sgt i32 %50, 0
  br i1 %83, label %.lr.ph14, label %._crit_edge15

.lr.ph14:                                         ; preds = %.preheader4
  %84 = bitcast i32* %cur_nnz to i8*
  %85 = bitcast double* %v to i64*
  br label %117

.lr.ph18:                                         ; preds = %.lr.ph18, %.lr.ph18.preheader.split.split
  %86 = phi i32* [ %.unr, %.lr.ph18.preheader.split.split ], [ %115, %.lr.ph18 ]
  %87 = phi double* [ %.unr31, %.lr.ph18.preheader.split.split ], [ %113, %.lr.ph18 ]
  %indvars.iv26 = phi i64 [ %indvars.iv26.unr, %.lr.ph18.preheader.split.split ], [ %indvars.iv.next27.3, %.lr.ph18 ]
  %88 = add nsw i64 %indvars.iv26, -1
  %89 = getelementptr inbounds i32, i32* %21, i64 %88
  %90 = load i32, i32* %89, align 4, !tbaa !21
  %91 = sext i32 %90 to i64
  %92 = getelementptr inbounds double, double* %87, i64 %91
  %93 = getelementptr inbounds double*, double** %27, i64 %indvars.iv26
  store double* %92, double** %93, align 8, !tbaa !12
  %94 = getelementptr inbounds i32, i32* %86, i64 %91
  %95 = getelementptr inbounds i32*, i32** %29, i64 %indvars.iv26
  store i32* %94, i32** %95, align 8, !tbaa !12
  %indvars.iv.next27 = add nuw nsw i64 %indvars.iv26, 1
  %96 = getelementptr inbounds i32, i32* %21, i64 %indvars.iv26
  %97 = load i32, i32* %96, align 4, !tbaa !21
  %98 = sext i32 %97 to i64
  %99 = getelementptr inbounds double, double* %92, i64 %98
  %100 = getelementptr inbounds double*, double** %27, i64 %indvars.iv.next27
  store double* %99, double** %100, align 8, !tbaa !12
  %101 = getelementptr inbounds i32, i32* %94, i64 %98
  %102 = getelementptr inbounds i32*, i32** %29, i64 %indvars.iv.next27
  store i32* %101, i32** %102, align 8, !tbaa !12
  %indvars.iv.next27.1 = add nsw i64 %indvars.iv26, 2
  %103 = getelementptr inbounds i32, i32* %21, i64 %indvars.iv.next27
  %104 = load i32, i32* %103, align 4, !tbaa !21
  %105 = sext i32 %104 to i64
  %106 = getelementptr inbounds double, double* %99, i64 %105
  %107 = getelementptr inbounds double*, double** %27, i64 %indvars.iv.next27.1
  store double* %106, double** %107, align 8, !tbaa !12
  %108 = getelementptr inbounds i32, i32* %101, i64 %105
  %109 = getelementptr inbounds i32*, i32** %29, i64 %indvars.iv.next27.1
  store i32* %108, i32** %109, align 8, !tbaa !12
  %indvars.iv.next27.2 = add nsw i64 %indvars.iv26, 3
  %110 = getelementptr inbounds i32, i32* %21, i64 %indvars.iv.next27.1
  %111 = load i32, i32* %110, align 4, !tbaa !21
  %112 = sext i32 %111 to i64
  %113 = getelementptr inbounds double, double* %106, i64 %112
  %114 = getelementptr inbounds double*, double** %27, i64 %indvars.iv.next27.2
  store double* %113, double** %114, align 8, !tbaa !12
  %115 = getelementptr inbounds i32, i32* %108, i64 %112
  %116 = getelementptr inbounds i32*, i32** %29, i64 %indvars.iv.next27.2
  store i32* %115, i32** %116, align 8, !tbaa !12
  %indvars.iv.next27.3 = add nsw i64 %indvars.iv26, 4
  %lftr.wideiv.3 = trunc i64 %indvars.iv.next27.3 to i32
  %exitcond.3 = icmp eq i32 %lftr.wideiv.3, %13
  br i1 %exitcond.3, label %.preheader4.loopexit.unr-lcssa, label %.lr.ph18

; <label>:117                                     ; preds = %.loopexit, %.lr.ph14
  %i.213 = phi i32 [ 0, %.lr.ph14 ], [ %142, %.loopexit ]
  %cur_local_row.212 = phi i32 [ 0, %.lr.ph14 ], [ %cur_local_row.3, %.loopexit ]
  call void @llvm.lifetime.start(i64 4, i8* %84) #2
  %118 = call i32 (%struct._IO_FILE*, i8*, ...) @fscanf(%struct._IO_FILE* nonnull %6, i8* nonnull getelementptr inbounds ([3 x i8], [3 x i8]* @.str.3.20, i64 0, i64 0), i32* nonnull %cur_nnz)
  %119 = icmp slt i32 %i.213, %13
  %120 = load i32, i32* %cur_nnz, align 4, !tbaa !21
  %121 = icmp sgt i32 %120, 0
  br i1 %119, label %.preheader, label %.preheader3

.preheader3:                                      ; preds = %117
  br i1 %121, label %.lr.ph8.preheader, label %.loopexit

.lr.ph8.preheader:                                ; preds = %.preheader3
  br label %.lr.ph8

.preheader:                                       ; preds = %117
  br i1 %121, label %.lr.ph10, label %._crit_edge11

.lr.ph10:                                         ; preds = %.preheader
  %122 = sext i32 %cur_local_row.212 to i64
  %123 = getelementptr inbounds double*, double** %27, i64 %122
  %124 = getelementptr inbounds i32*, i32** %29, i64 %122
  br label %125

; <label>:125                                     ; preds = %125, %.lr.ph10
  %indvars.iv = phi i64 [ 0, %.lr.ph10 ], [ %indvars.iv.next, %125 ]
  %126 = call i32 (%struct._IO_FILE*, i8*, ...) @fscanf(%struct._IO_FILE* nonnull %6, i8* nonnull getelementptr inbounds ([7 x i8], [7 x i8]* @.str.10.24, i64 0, i64 0), double* nonnull %v, i32* nonnull %l)
  %127 = load i64, i64* %85, align 8, !tbaa !22
  %128 = load double*, double** %123, align 8, !tbaa !12
  %129 = getelementptr inbounds double, double* %128, i64 %indvars.iv
  %130 = bitcast double* %129 to i64*
  store i64 %127, i64* %130, align 8, !tbaa !22
  %131 = load i32, i32* %l, align 4, !tbaa !21
  %132 = load i32*, i32** %124, align 8, !tbaa !12
  %133 = getelementptr inbounds i32, i32* %132, i64 %indvars.iv
  store i32 %131, i32* %133, align 4, !tbaa !21
  %indvars.iv.next = add nuw nsw i64 %indvars.iv, 1
  %134 = load i32, i32* %cur_nnz, align 4, !tbaa !21
  %135 = sext i32 %134 to i64
  %136 = icmp slt i64 %indvars.iv.next, %135
  br i1 %136, label %125, label %._crit_edge11.loopexit

._crit_edge11.loopexit:                           ; preds = %125
  br label %._crit_edge11

._crit_edge11:                                    ; preds = %._crit_edge11.loopexit, %.preheader
  %137 = add nsw i32 %cur_local_row.212, 1
  br label %.loopexit

.lr.ph8:                                          ; preds = %.lr.ph8, %.lr.ph8.preheader
  %j.17 = phi i32 [ %139, %.lr.ph8 ], [ 0, %.lr.ph8.preheader ]
  %138 = call i32 (%struct._IO_FILE*, i8*, ...) @fscanf(%struct._IO_FILE* nonnull %6, i8* nonnull getelementptr inbounds ([7 x i8], [7 x i8]* @.str.10.24, i64 0, i64 0), double* nonnull %v, i32* nonnull %l)
  %139 = add nuw nsw i32 %j.17, 1
  %140 = load i32, i32* %cur_nnz, align 4, !tbaa !21
  %141 = icmp slt i32 %139, %140
  br i1 %141, label %.lr.ph8, label %.loopexit.loopexit

.loopexit.loopexit:                               ; preds = %.lr.ph8
  br label %.loopexit

.loopexit:                                        ; preds = %.loopexit.loopexit, %._crit_edge11, %.preheader3
  %cur_local_row.3 = phi i32 [ %137, %._crit_edge11 ], [ %cur_local_row.212, %.preheader3 ], [ %cur_local_row.212, %.loopexit.loopexit ]
  call void @llvm.lifetime.end(i64 4, i8* nonnull %84) #2
  %142 = add nuw nsw i32 %i.213, 1
  %143 = load i32, i32* %total_nrow, align 4, !tbaa !21
  %144 = icmp slt i32 %142, %143
  br i1 %144, label %117, label %._crit_edge15.loopexit

._crit_edge15.loopexit:                           ; preds = %.loopexit
  br label %._crit_edge15

._crit_edge15:                                    ; preds = %._crit_edge15.loopexit, %.preheader4
  %145 = phi i32 [ %50, %.preheader4 ], [ %143, %._crit_edge15.loopexit ]
  %146 = bitcast double* %xt to i8*
  call void @llvm.lifetime.start(i64 8, i8* %146) #2
  %147 = bitcast double* %bt to i8*
  call void @llvm.lifetime.start(i64 8, i8* %147) #2
  %148 = bitcast double* %xxt to i8*
  call void @llvm.lifetime.start(i64 8, i8* %148) #2
  %149 = icmp sgt i32 %145, 0
  br i1 %149, label %.lr.ph, label %._crit_edge

.lr.ph:                                           ; preds = %._crit_edge15
  %150 = bitcast double* %xt to i64*
  %151 = bitcast double* %bt to i64*
  %152 = bitcast double* %xxt to i64*
  br label %153

; <label>:153                                     ; preds = %173, %.lr.ph
  %i.36 = phi i32 [ 0, %.lr.ph ], [ %174, %173 ]
  %cur_local_row.45 = phi i32 [ 0, %.lr.ph ], [ %cur_local_row.5, %173 ]
  %154 = icmp slt i32 %i.36, %13
  br i1 %154, label %155, label %171

; <label>:155                                     ; preds = %153
  %156 = call i32 (%struct._IO_FILE*, i8*, ...) @fscanf(%struct._IO_FILE* nonnull %6, i8* nonnull getelementptr inbounds ([12 x i8], [12 x i8]* @.str.12.25, i64 0, i64 0), double* nonnull %xt, double* nonnull %bt, double* nonnull %xxt)
  %157 = load i64, i64* %150, align 8, !tbaa !22
  %158 = sext i32 %cur_local_row.45 to i64
  %159 = load double*, double** %x, align 8, !tbaa !12
  %160 = getelementptr inbounds double, double* %159, i64 %158
  %161 = bitcast double* %160 to i64*
  store i64 %157, i64* %161, align 8, !tbaa !22
  %162 = load i64, i64* %151, align 8, !tbaa !22
  %163 = load double*, double** %b, align 8, !tbaa !12
  %164 = getelementptr inbounds double, double* %163, i64 %158
  %165 = bitcast double* %164 to i64*
  store i64 %162, i64* %165, align 8, !tbaa !22
  %166 = load i64, i64* %152, align 8, !tbaa !22
  %167 = load double*, double** %xexact, align 8, !tbaa !12
  %168 = getelementptr inbounds double, double* %167, i64 %158
  %169 = bitcast double* %168 to i64*
  store i64 %166, i64* %169, align 8, !tbaa !22
  %170 = add nsw i32 %cur_local_row.45, 1
  br label %173

; <label>:171                                     ; preds = %153
  %172 = call i32 (%struct._IO_FILE*, i8*, ...) @fscanf(%struct._IO_FILE* nonnull %6, i8* nonnull getelementptr inbounds ([12 x i8], [12 x i8]* @.str.12.25, i64 0, i64 0), double* nonnull %v, double* nonnull %v, double* nonnull %v)
  br label %173

; <label>:173                                     ; preds = %171, %155
  %cur_local_row.5 = phi i32 [ %170, %155 ], [ %cur_local_row.45, %171 ]
  %174 = add nuw nsw i32 %i.36, 1
  %175 = load i32, i32* %total_nrow, align 4, !tbaa !21
  %176 = icmp slt i32 %174, %175
  br i1 %176, label %153, label %._crit_edge.loopexit

._crit_edge.loopexit:                             ; preds = %173
  br label %._crit_edge

._crit_edge:                                      ; preds = %._crit_edge.loopexit, %._crit_edge15
  %177 = call i32 @fclose(%struct._IO_FILE* nonnull %6)
  %178 = call noalias i8* @_Znwm(i64 96) #19
  %179 = bitcast %struct.HPC_Sparse_Matrix_STRUCT** %A to i8**
  store i8* %178, i8** %179, align 8, !tbaa !12
  %180 = bitcast i8* %178 to i8**
  store i8* null, i8** %180, align 8, !tbaa !34
  %181 = getelementptr inbounds i8, i8* %178, i64 8
  %182 = bitcast i8* %181 to i32*
  store i32 0, i32* %182, align 8, !tbaa !41
  %183 = getelementptr inbounds i8, i8* %178, i64 12
  %184 = bitcast i8* %183 to i32*
  store i32 %14, i32* %184, align 4, !tbaa !42
  %185 = load i32, i32* %total_nrow, align 4, !tbaa !21
  %186 = getelementptr inbounds i8, i8* %178, i64 16
  %187 = bitcast i8* %186 to i32*
  store i32 %185, i32* %187, align 8, !tbaa !24
  %188 = load i64, i64* %total_nnz, align 8, !tbaa !48
  %189 = getelementptr inbounds i8, i8* %178, i64 24
  %190 = bitcast i8* %189 to i64*
  store i64 %188, i64* %190, align 8, !tbaa !27
  %191 = getelementptr inbounds i8, i8* %178, i64 32
  %192 = bitcast i8* %191 to i32*
  store i32 %13, i32* %192, align 8, !tbaa !43
  %193 = getelementptr inbounds i8, i8* %178, i64 36
  %194 = bitcast i8* %193 to i32*
  store i32 %13, i32* %194, align 4, !tbaa !44
  %195 = getelementptr inbounds i8, i8* %178, i64 40
  %196 = bitcast i8* %195 to i32*
  store i32 %local_nnz.0.lcssa, i32* %196, align 8, !tbaa !45
  %197 = getelementptr inbounds i8, i8* %178, i64 48
  %198 = bitcast i8* %197 to i8**
  store i8* %20, i8** %198, align 8, !tbaa !35
  %199 = getelementptr inbounds i8, i8* %178, i64 56
  %200 = bitcast i8* %199 to i8**
  store i8* %26, i8** %200, align 8, !tbaa !36
  %201 = getelementptr inbounds i8, i8* %178, i64 64
  %202 = bitcast i8* %201 to i8**
  store i8* %28, i8** %202, align 8, !tbaa !37
  %203 = getelementptr inbounds i8, i8* %178, i64 72
  %204 = bitcast i8* %203 to i8**
  store i8* %30, i8** %204, align 8, !tbaa !38
  call void @llvm.lifetime.end(i64 8, i8* %148) #2
  call void @llvm.lifetime.end(i64 8, i8* %147) #2
  call void @llvm.lifetime.end(i64 8, i8* %146) #2
  call void @llvm.lifetime.end(i64 8, i8* %4) #2
  call void @llvm.lifetime.end(i64 4, i8* %3) #2
  call void @llvm.lifetime.end(i64 8, i8* %2) #2
  call void @llvm.lifetime.end(i64 4, i8* nonnull %1) #2
  ret void
}

; Function Attrs: nounwind
declare i32 @printf(i8* nocapture readonly, ...) #8

; Function Attrs: nounwind
declare noalias %struct._IO_FILE* @fopen(i8* nocapture readonly, i8* nocapture readonly) #8

; Function Attrs: nounwind
declare i32 @fscanf(%struct._IO_FILE* nocapture, i8* nocapture readonly, ...) #8

; Function Attrs: nounwind
declare i32 @fclose(%struct._IO_FILE* nocapture) #8

; Function Attrs: nounwind uwtable
define i32 @_Z16compute_residualiPKdS0_Pd(i32 %n, double* nocapture readonly %v1, double* nocapture readonly %v2, double* nocapture %residual) #13 {
  %1 = icmp sgt i32 %n, 0
  br i1 %1, label %.lr.ph.preheader, label %._crit_edge

.lr.ph.preheader:                                 ; preds = %0
  %xtraiter = and i32 %n, 1
  %lcmp.mod = icmp eq i32 %xtraiter, 0
  br i1 %lcmp.mod, label %.lr.ph.preheader.split, label %.lr.ph.prol

.lr.ph.prol:                                      ; preds = %.lr.ph.preheader
  %2 = load double, double* %v1, align 8, !tbaa !22
  %3 = load double, double* %v2, align 8, !tbaa !22
  %4 = fsub double %2, %3
  %5 = tail call double @fabs(double %4) #12
  %6 = fcmp ogt double %5, 0.000000e+00
  %local_residual.1.prol = select i1 %6, double %5, double 0.000000e+00
  br label %.lr.ph.preheader.split

.lr.ph.preheader.split:                           ; preds = %.lr.ph.prol, %.lr.ph.preheader
  %local_residual.1.lcssa.unr = phi double [ undef, %.lr.ph.preheader ], [ %local_residual.1.prol, %.lr.ph.prol ]
  %indvars.iv.unr = phi i64 [ 0, %.lr.ph.preheader ], [ 1, %.lr.ph.prol ]
  %local_residual.02.unr = phi double [ 0.000000e+00, %.lr.ph.preheader ], [ %local_residual.1.prol, %.lr.ph.prol ]
  %7 = icmp eq i32 %n, 1
  br i1 %7, label %._crit_edge.loopexit, label %.lr.ph.preheader.split.split

.lr.ph.preheader.split.split:                     ; preds = %.lr.ph.preheader.split
  br label %.lr.ph

._crit_edge.loopexit.unr-lcssa:                   ; preds = %.lr.ph
  br label %._crit_edge.loopexit

._crit_edge.loopexit:                             ; preds = %._crit_edge.loopexit.unr-lcssa, %.lr.ph.preheader.split
  %local_residual.1.lcssa = phi double [ %local_residual.1.lcssa.unr, %.lr.ph.preheader.split ], [ %local_residual.1.1, %._crit_edge.loopexit.unr-lcssa ]
  br label %._crit_edge

._crit_edge:                                      ; preds = %._crit_edge.loopexit, %0
  %local_residual.0.lcssa = phi double [ 0.000000e+00, %0 ], [ %local_residual.1.lcssa, %._crit_edge.loopexit ]
  store double %local_residual.0.lcssa, double* %residual, align 8, !tbaa !22
  ret i32 0

.lr.ph:                                           ; preds = %.lr.ph, %.lr.ph.preheader.split.split
  %indvars.iv = phi i64 [ %indvars.iv.unr, %.lr.ph.preheader.split.split ], [ %indvars.iv.next.1, %.lr.ph ]
  %local_residual.02 = phi double [ %local_residual.02.unr, %.lr.ph.preheader.split.split ], [ %local_residual.1.1, %.lr.ph ]
  %8 = getelementptr inbounds double, double* %v1, i64 %indvars.iv
  %9 = load double, double* %8, align 8, !tbaa !22
  %10 = getelementptr inbounds double, double* %v2, i64 %indvars.iv
  %11 = load double, double* %10, align 8, !tbaa !22
  %12 = fsub double %9, %11
  %13 = tail call double @fabs(double %12) #12
  %14 = fcmp ogt double %13, %local_residual.02
  %local_residual.1 = select i1 %14, double %13, double %local_residual.02
  %indvars.iv.next = add nuw nsw i64 %indvars.iv, 1
  %15 = getelementptr inbounds double, double* %v1, i64 %indvars.iv.next
  %16 = load double, double* %15, align 8, !tbaa !22
  %17 = getelementptr inbounds double, double* %v2, i64 %indvars.iv.next
  %18 = load double, double* %17, align 8, !tbaa !22
  %19 = fsub double %16, %18
  %20 = tail call double @fabs(double %19) #12
  %21 = fcmp ogt double %20, %local_residual.1
  %local_residual.1.1 = select i1 %21, double %20, double %local_residual.1
  %indvars.iv.next.1 = add nsw i64 %indvars.iv, 2
  %lftr.wideiv.1 = trunc i64 %indvars.iv.next.1 to i32
  %exitcond.1 = icmp eq i32 %lftr.wideiv.1, %n
  br i1 %exitcond.1, label %._crit_edge.loopexit.unr-lcssa, label %.lr.ph
}

; Function Attrs: nounwind readnone
declare double @fabs(double) #14

; Function Attrs: nounwind uwtable
define double @_Z7mytimerv() #13 {
  %ruse = alloca %struct.rusage, align 8
  %1 = bitcast %struct.rusage* %ruse to i8*
  call void @llvm.lifetime.start(i64 144, i8* %1) #2
  %2 = call i32 @getrusage(i32 0, %struct.rusage* nonnull %ruse) #2
  %3 = getelementptr inbounds %struct.rusage, %struct.rusage* %ruse, i64 0, i32 0, i32 0
  %4 = load i64, i64* %3, align 8, !tbaa !49
  %5 = sitofp i64 %4 to double
  %6 = getelementptr inbounds %struct.rusage, %struct.rusage* %ruse, i64 0, i32 0, i32 1
  %7 = load i64, i64* %6, align 8, !tbaa !52
  %8 = sitofp i64 %7 to double
  %9 = fdiv double %8, 1.000000e+06
  %10 = fadd double %5, %9
  call void @llvm.lifetime.end(i64 144, i8* %1) #2
  ret double %10
}

; Function Attrs: nounwind
declare i32 @getrusage(i32, %struct.rusage*) #8

; Function Attrs: nounwind uwtable
define i32 @_Z18dump_matlab_matrixP24HPC_Sparse_Matrix_STRUCTi(%struct.HPC_Sparse_Matrix_STRUCT* nocapture readonly %A, i32 %rank) #13 {
  %1 = getelementptr inbounds %struct.HPC_Sparse_Matrix_STRUCT, %struct.HPC_Sparse_Matrix_STRUCT* %A, i64 0, i32 5
  %2 = load i32, i32* %1, align 8, !tbaa !43
  %3 = mul nsw i32 %2, %rank
  switch i32 %rank, label %39 [
    i32 0, label %4
    i32 1, label %6
    i32 2, label %8
    i32 3, label %10
  ]

; <label>:4                                       ; preds = %0
  %5 = tail call %struct._IO_FILE* @fopen(i8* nonnull getelementptr inbounds ([9 x i8], [9 x i8]* @.str.29, i64 0, i64 0), i8* nonnull getelementptr inbounds ([2 x i8], [2 x i8]* @.str.1.30, i64 0, i64 0))
  br label %12

; <label>:6                                       ; preds = %0
  %7 = tail call %struct._IO_FILE* @fopen(i8* nonnull getelementptr inbounds ([9 x i8], [9 x i8]* @.str.2.31, i64 0, i64 0), i8* nonnull getelementptr inbounds ([2 x i8], [2 x i8]* @.str.1.30, i64 0, i64 0))
  br label %12

; <label>:8                                       ; preds = %0
  %9 = tail call %struct._IO_FILE* @fopen(i8* nonnull getelementptr inbounds ([9 x i8], [9 x i8]* @.str.3.32, i64 0, i64 0), i8* nonnull getelementptr inbounds ([2 x i8], [2 x i8]* @.str.1.30, i64 0, i64 0))
  br label %12

; <label>:10                                      ; preds = %0
  %11 = tail call %struct._IO_FILE* @fopen(i8* nonnull getelementptr inbounds ([9 x i8], [9 x i8]* @.str.4.33, i64 0, i64 0), i8* nonnull getelementptr inbounds ([2 x i8], [2 x i8]* @.str.1.30, i64 0, i64 0))
  br label %12

; <label>:12                                      ; preds = %10, %8, %6, %4
  %handle.0 = phi %struct._IO_FILE* [ %5, %4 ], [ %7, %6 ], [ %9, %8 ], [ %11, %10 ]
  %13 = icmp sgt i32 %2, 0
  br i1 %13, label %.lr.ph5, label %._crit_edge6

.lr.ph5:                                          ; preds = %12
  %14 = getelementptr inbounds %struct.HPC_Sparse_Matrix_STRUCT, %struct.HPC_Sparse_Matrix_STRUCT* %A, i64 0, i32 9
  %15 = getelementptr inbounds %struct.HPC_Sparse_Matrix_STRUCT, %struct.HPC_Sparse_Matrix_STRUCT* %A, i64 0, i32 10
  %16 = getelementptr inbounds %struct.HPC_Sparse_Matrix_STRUCT, %struct.HPC_Sparse_Matrix_STRUCT* %A, i64 0, i32 8
  %17 = add i32 %3, 1
  br label %19

._crit_edge6.loopexit:                            ; preds = %._crit_edge
  br label %._crit_edge6

._crit_edge6:                                     ; preds = %._crit_edge6.loopexit, %12
  %18 = tail call i32 @fclose(%struct._IO_FILE* %handle.0)
  br label %39

; <label>:19                                      ; preds = %._crit_edge, %.lr.ph5
  %indvars.iv7 = phi i64 [ 0, %.lr.ph5 ], [ %indvars.iv.next8, %._crit_edge ]
  %20 = load double**, double*** %14, align 8, !tbaa !36
  %21 = getelementptr inbounds double*, double** %20, i64 %indvars.iv7
  %22 = load double*, double** %21, align 8, !tbaa !12
  %23 = load i32**, i32*** %15, align 8, !tbaa !37
  %24 = getelementptr inbounds i32*, i32** %23, i64 %indvars.iv7
  %25 = load i32*, i32** %24, align 8, !tbaa !12
  %26 = load i32*, i32** %16, align 8, !tbaa !35
  %27 = getelementptr inbounds i32, i32* %26, i64 %indvars.iv7
  %28 = load i32, i32* %27, align 4, !tbaa !21
  %29 = icmp sgt i32 %28, 0
  br i1 %29, label %.lr.ph, label %._crit_edge

.lr.ph:                                           ; preds = %19
  %30 = trunc i64 %indvars.iv7 to i32
  %31 = add i32 %17, %30
  br label %32

._crit_edge.loopexit:                             ; preds = %32
  br label %._crit_edge

._crit_edge:                                      ; preds = %._crit_edge.loopexit, %19
  %indvars.iv.next8 = add nuw nsw i64 %indvars.iv7, 1
  %lftr.wideiv9 = trunc i64 %indvars.iv.next8 to i32
  %exitcond10 = icmp eq i32 %lftr.wideiv9, %2
  br i1 %exitcond10, label %._crit_edge6.loopexit, label %19

; <label>:32                                      ; preds = %32, %.lr.ph
  %indvars.iv = phi i64 [ 0, %.lr.ph ], [ %indvars.iv.next, %32 ]
  %33 = getelementptr inbounds i32, i32* %25, i64 %indvars.iv
  %34 = load i32, i32* %33, align 4, !tbaa !21
  %35 = add nsw i32 %34, 1
  %36 = getelementptr inbounds double, double* %22, i64 %indvars.iv
  %37 = load double, double* %36, align 8, !tbaa !22
  %38 = tail call i32 (%struct._IO_FILE*, i8*, ...) @fprintf(%struct._IO_FILE* %handle.0, i8* nonnull getelementptr inbounds ([16 x i8], [16 x i8]* @.str.5.34, i64 0, i64 0), i32 %31, i32 %35, double %37)
  %indvars.iv.next = add nuw nsw i64 %indvars.iv, 1
  %lftr.wideiv = trunc i64 %indvars.iv.next to i32
  %exitcond = icmp eq i32 %lftr.wideiv, %28
  br i1 %exitcond, label %._crit_edge.loopexit, label %32

; <label>:39                                      ; preds = %._crit_edge6, %0
  ret i32 0
}

; Function Attrs: nounwind
declare i32 @fprintf(%struct._IO_FILE* nocapture, i8* nocapture readonly, ...) #8

; Function Attrs: uwtable
define internal void @_GLOBAL__sub_I_HPC_sparsemv.cpp() #0 section ".text.startup" {
  tail call void @_ZNSt8ios_base4InitC1Ev(%"class.std::ios_base::Init"* nonnull @_ZStL8__ioinit.36)
  %1 = tail call i32 @__cxa_atexit(void (i8*)* bitcast (void (%"class.std::ios_base::Init"*)* @_ZNSt8ios_base4InitD1Ev to void (i8*)*), i8* getelementptr inbounds (%"class.std::ios_base::Init", %"class.std::ios_base::Init"* @_ZStL8__ioinit.36, i64 0, i32 0), i8* nonnull @__dso_handle) #2
  ret void
}

; Function Attrs: norecurse nounwind uwtable
