; ModuleID = 'lulesh-O3.ll'
target datalayout = "e-m:e-i64:64-f80:128-n8:16:32:64-S128"
target triple = "x86_64-unknown-linux-gnu"

%"class.std::ios_base::Init" = type { i8 }
%struct._IO_FILE = type { i32, i8*, i8*, i8*, i8*, i8*, i8*, i8*, i8*, i8*, i8*, i8*, %struct._IO_marker*, %struct._IO_FILE*, i32, i32, i64, i16, i8, [1 x i8], i8*, i64, i8*, i8*, i8*, i8*, i64, i32, [20 x i8] }
%struct._IO_marker = type { %struct._IO_marker*, %struct._IO_FILE*, i32 }
%class.Domain = type { %"class.std::vector", %"class.std::vector", %"class.std::vector", %"class.std::vector", %"class.std::vector", %"class.std::vector", %"class.std::vector", %"class.std::vector", %"class.std::vector", %"class.std::vector", %"class.std::vector", %"class.std::vector", %"class.std::vector", %"class.std::vector.0", %"class.std::vector.0", %"class.std::vector.0", i32, i32, i32*, i32*, i32**, %"class.std::vector.0", %"class.std::vector.0", %"class.std::vector.0", %"class.std::vector.0", %"class.std::vector.0", %"class.std::vector.0", %"class.std::vector.0", %"class.std::vector.0", %"class.std::vector", %"class.std::vector", %"class.std::vector", %"class.std::vector", %"class.std::vector", %"class.std::vector", %"class.std::vector", %"class.std::vector", %"class.std::vector", %"class.std::vector", %"class.std::vector", %"class.std::vector", %"class.std::vector", %"class.std::vector", %"class.std::vector", %"class.std::vector", %"class.std::vector", %"class.std::vector", %"class.std::vector", %"class.std::vector", %"class.std::vector", %"class.std::vector", double, double, double, double, double, double, double, double, double, double, double, double, double, double, double, double, double, double, double, double, double, i32, double, double, double, double, double, double, double, i32, i32, i32, i32, i32, i32, i32, i32, i32, i32, i32, i32, i32*, i32*, i32, i32, i32, i32, i32, i32 }
%"class.std::vector.0" = type { %"struct.std::_Vector_base.1" }
%"struct.std::_Vector_base.1" = type { %"struct.std::_Vector_base<int, std::allocator<int> >::_Vector_impl" }
%"struct.std::_Vector_base<int, std::allocator<int> >::_Vector_impl" = type { i32*, i32*, i32* }
%"class.std::vector" = type { %"struct.std::_Vector_base" }
%"struct.std::_Vector_base" = type { %"struct.std::_Vector_base<double, std::allocator<double> >::_Vector_impl" }
%"struct.std::_Vector_base<double, std::allocator<double> >::_Vector_impl" = type { double*, double*, double* }
%struct.cmdLineOpts = type { i32, i32, i32, i32, i32, i32, i32, i32, i32 }
%struct.timeval = type { i64, i64 }
%struct.timezone = type { i32, i32 }

$_ZN6Domain15AllocateStrainsEi = comdat any

$_ZNSt6vectorIdSaIdEE14_M_fill_insertEN9__gnu_cxx17__normal_iteratorIPdS1_EEmRKd = comdat any

$_ZN6Domain17AllocateGradientsEii = comdat any

$_ZN6Domain22AllocateElemPersistentEi = comdat any

$_ZNSt6vectorIiSaIiEE14_M_fill_insertEN9__gnu_cxx17__normal_iteratorIPiS1_EEmRKi = comdat any

$_ZN6Domain22AllocateNodePersistentEi = comdat any

@llvm.global_ctors = appending global [1 x { i32, void ()*, i8* }] [{ i32, void ()*, i8* } { i32 65535, void ()* @_GLOBAL__sub_I_lulesh.cc, i8* null }]
@_ZStL8__ioinit = internal global %"class.std::ios_base::Init" zeroinitializer, align 1
@__dso_handle = external global i8
@.str = private unnamed_addr constant [55 x i8] c"Running problem size %d^3 per domain until completion\0A\00", align 1
@.str.1 = private unnamed_addr constant [20 x i8] c"Num processors: %d\0A\00", align 1
@.str.2 = private unnamed_addr constant [33 x i8] c"Total number of elements: %lld\0A\0A\00", align 1
@str = private unnamed_addr constant [38 x i8] c"To run other sizes, use -s <integer>.\00"
@str.14 = private unnamed_addr constant [55 x i8] c"To run a fixed number of iterations, use -i <integer>.\00"
@str.15 = private unnamed_addr constant [61 x i8] c"To run a more or less balanced region set, use -b <integer>.\00"
@str.16 = private unnamed_addr constant [59 x i8] c"To change the relative costs of regions, use -c <integer>.\00"
@str.17 = private unnamed_addr constant [30 x i8] c"To print out progress, use -p\00"
@str.18 = private unnamed_addr constant [42 x i8] c"To write an output file for VisIt, use -v\00"
@str.19 = private unnamed_addr constant [32 x i8] c"See help (-h) for more options\0A\00"
@.str.11 = private unnamed_addr constant [23 x i8] c"vector::_M_fill_insert\00", align 1
@stderr = external global %struct._IO_FILE*, align 8
@.str.12 = private unnamed_addr constant [31 x i8] c"Error in switch at %s line %d\0A\00", align 1
@.str.13 = private unnamed_addr constant [10 x i8] c"lulesh.cc\00", align 1
@.str.10 = private unnamed_addr constant [30 x i8] c"cycle = %d, time = %e, dt=%e\0A\00", align 1
@str.3 = private unnamed_addr constant [58 x i8] c"Must enable -DVIZ_MESH at compile time to call DumpDomain\00"
@.str.6 = private unnamed_addr constant [2 x i8] c"i\00", align 1
@.str.1.7 = private unnamed_addr constant [31 x i8] c"Missing integer argument to -i\00", align 1
@.str.2.8 = private unnamed_addr constant [64 x i8] c"Parse Error on option -i integer value required after argument\0A\00", align 1
@.str.3 = private unnamed_addr constant [2 x i8] c"s\00", align 1
@.str.4 = private unnamed_addr constant [32 x i8] c"Missing integer argument to -s\0A\00", align 1
@.str.5 = private unnamed_addr constant [64 x i8] c"Parse Error on option -s integer value required after argument\0A\00", align 1
@.str.6.9 = private unnamed_addr constant [3 x i8] c"-r\00", align 1
@.str.7 = private unnamed_addr constant [32 x i8] c"Missing integer argument to -r\0A\00", align 1
@.str.8 = private unnamed_addr constant [64 x i8] c"Parse Error on option -r integer value required after argument\0A\00", align 1
@.str.9 = private unnamed_addr constant [3 x i8] c"-f\00", align 1
@.str.10.10 = private unnamed_addr constant [32 x i8] c"Missing integer argument to -f\0A\00", align 1
@.str.11.11 = private unnamed_addr constant [64 x i8] c"Parse Error on option -f integer value required after argument\0A\00", align 1
@.str.12.12 = private unnamed_addr constant [3 x i8] c"-p\00", align 1
@.str.13.13 = private unnamed_addr constant [3 x i8] c"-q\00", align 1
@.str.14 = private unnamed_addr constant [3 x i8] c"-b\00", align 1
@.str.15 = private unnamed_addr constant [32 x i8] c"Missing integer argument to -b\0A\00", align 1
@.str.16 = private unnamed_addr constant [64 x i8] c"Parse Error on option -b integer value required after argument\0A\00", align 1
@.str.17 = private unnamed_addr constant [3 x i8] c"-c\00", align 1
@.str.18 = private unnamed_addr constant [32 x i8] c"Missing integer argument to -c\0A\00", align 1
@.str.19 = private unnamed_addr constant [64 x i8] c"Parse Error on option -c integer value required after argument\0A\00", align 1
@.str.20 = private unnamed_addr constant [3 x i8] c"-v\00", align 1
@.str.21 = private unnamed_addr constant [46 x i8] c"Use of -v requires compiling with -DVIZ_MESH\0A\00", align 1
@.str.22 = private unnamed_addr constant [3 x i8] c"-h\00", align 1
@.str.37 = private unnamed_addr constant [18 x i8] c"Usage: %s [opts]\0A\00", align 1
@str.20 = private unnamed_addr constant [33 x i8] c" where [opts] is one or more of:\00"
@str.50 = private unnamed_addr constant [52 x i8] c" -q              : quiet mode - suppress all stdout\00"
@str.51 = private unnamed_addr constant [43 x i8] c" -i <iterations> : number of cycles to run\00"
@str.52 = private unnamed_addr constant [50 x i8] c" -s <size>       : length of cube mesh along side\00"
@str.53 = private unnamed_addr constant [56 x i8] c" -r <numregions> : Number of distinct regions (def: 11)\00"
@str.54 = private unnamed_addr constant [69 x i8] c" -b <balance>    : Load balance between regions of a domain (def: 1)\00"
@str.55 = private unnamed_addr constant [65 x i8] c" -c <cost>       : Extra cost of more expensive regions (def: 1)\00"
@str.56 = private unnamed_addr constant [75 x i8] c" -f <numfiles>   : Number of files to split viz dump into (def: (np+10)/9)\00"
@str.57 = private unnamed_addr constant [38 x i8] c" -p              : Print out progress\00"
@str.58 = private unnamed_addr constant [71 x i8] c" -v              : Output viz file (requires compiling with -DVIZ_MESH\00"
@str.59 = private unnamed_addr constant [32 x i8] c" -h              : This message\00"
@str.60 = private unnamed_addr constant [2 x i8] c"\0A\00"
@.str.23 = private unnamed_addr constant [42 x i8] c"ERROR: Unknown command line argument: %s\0A\00", align 1
@str.61 = private unnamed_addr constant [17 x i8] c"Run completed:  \00"
@.str.25 = private unnamed_addr constant [31 x i8] c"   Problem size        =  %i \0A\00", align 1
@.str.26 = private unnamed_addr constant [31 x i8] c"   MPI tasks           =  %i \0A\00", align 1
@.str.27 = private unnamed_addr constant [31 x i8] c"   Iteration count     =  %i \0A\00", align 1
@.str.28 = private unnamed_addr constant [34 x i8] c"   Final Origin Energy = %12.6e \0A\00", align 1
@str.62 = private unnamed_addr constant [46 x i8] c"   Testing Plane 0 of Energy Array on rank 0:\00"
@.str.30 = private unnamed_addr constant [31 x i8] c"        MaxAbsDiff   = %12.6e\0A\00", align 1
@.str.31 = private unnamed_addr constant [31 x i8] c"        TotalAbsDiff = %12.6e\0A\00", align 1
@.str.32 = private unnamed_addr constant [32 x i8] c"        MaxRelDiff   = %12.6e\0A\0A\00", align 1
@.str.33 = private unnamed_addr constant [36 x i8] c"\0AElapsed time         = %10.2f (s)\0A\00", align 1
@.str.34 = private unnamed_addr constant [59 x i8] c"Grind time (us/z/c)  = %10.8g (per dom)  (%10.8g overall)\0A\00", align 1
@.str.35 = private unnamed_addr constant [38 x i8] c"FOM                  = %10.8g (z/s)\0A\0A\00", align 1
@.str.3.23 = private unnamed_addr constant [23 x i8] c"vector::_M_fill_insert\00", align 1
@str.26 = private unnamed_addr constant [60 x i8] c"Num processors must be a cube of an integer (1, 8, 27, ...)\00"

@_ZN6DomainC1Eiiiiiiiii = alias void (%class.Domain*, i32, i32, i32, i32, i32, i32, i32, i32, i32), void (%class.Domain*, i32, i32, i32, i32, i32, i32, i32, i32, i32)* @_ZN6DomainC2Eiiiiiiiii

; Function Attrs: uwtable
define internal void @_GLOBAL__sub_I_lulesh.cc() #0 section ".text.startup" {
  tail call void @_ZNSt8ios_base4InitC1Ev(%"class.std::ios_base::Init"* nonnull @_ZStL8__ioinit)
  %1 = tail call i32 @__cxa_atexit(void (i8*)* bitcast (void (%"class.std::ios_base::Init"*)* @_ZNSt8ios_base4InitD1Ev to void (i8*)*), i8* getelementptr inbounds (%"class.std::ios_base::Init", %"class.std::ios_base::Init"* @_ZStL8__ioinit, i64 0, i32 0), i8* nonnull @__dso_handle) #2
  ret void
}

declare void @_ZNSt8ios_base4InitC1Ev(%"class.std::ios_base::Init"*) #1

declare void @_ZNSt8ios_base4InitD1Ev(%"class.std::ios_base::Init"*) #1

; Function Attrs: nounwind
declare i32 @__cxa_atexit(void (i8*)*, i8*, i8*) #2

; Function Attrs: norecurse nounwind readonly uwtable
define double @_Z14CalcElemVolumePKdS0_S0_(double* nocapture readonly %x, double* nocapture readonly %y, double* nocapture readonly %z) #3 {
  %1 = load double, double* %x, align 8, !tbaa !1
  %2 = getelementptr inbounds double, double* %x, i64 1
  %3 = load double, double* %2, align 8, !tbaa !1
  %4 = getelementptr inbounds double, double* %x, i64 2
  %5 = load double, double* %4, align 8, !tbaa !1
  %6 = getelementptr inbounds double, double* %x, i64 3
  %7 = load double, double* %6, align 8, !tbaa !1
  %8 = getelementptr inbounds double, double* %x, i64 4
  %9 = load double, double* %8, align 8, !tbaa !1
  %10 = getelementptr inbounds double, double* %x, i64 5
  %11 = load double, double* %10, align 8, !tbaa !1
  %12 = getelementptr inbounds double, double* %x, i64 6
  %13 = load double, double* %12, align 8, !tbaa !1
  %14 = getelementptr inbounds double, double* %x, i64 7
  %15 = load double, double* %14, align 8, !tbaa !1
  %16 = load double, double* %y, align 8, !tbaa !1
  %17 = getelementptr inbounds double, double* %y, i64 1
  %18 = load double, double* %17, align 8, !tbaa !1
  %19 = getelementptr inbounds double, double* %y, i64 2
  %20 = load double, double* %19, align 8, !tbaa !1
  %21 = getelementptr inbounds double, double* %y, i64 3
  %22 = load double, double* %21, align 8, !tbaa !1
  %23 = getelementptr inbounds double, double* %y, i64 4
  %24 = load double, double* %23, align 8, !tbaa !1
  %25 = getelementptr inbounds double, double* %y, i64 5
  %26 = load double, double* %25, align 8, !tbaa !1
  %27 = getelementptr inbounds double, double* %y, i64 6
  %28 = load double, double* %27, align 8, !tbaa !1
  %29 = getelementptr inbounds double, double* %y, i64 7
  %30 = load double, double* %29, align 8, !tbaa !1
  %31 = load double, double* %z, align 8, !tbaa !1
  %32 = getelementptr inbounds double, double* %z, i64 1
  %33 = load double, double* %32, align 8, !tbaa !1
  %34 = getelementptr inbounds double, double* %z, i64 2
  %35 = load double, double* %34, align 8, !tbaa !1
  %36 = getelementptr inbounds double, double* %z, i64 3
  %37 = load double, double* %36, align 8, !tbaa !1
  %38 = getelementptr inbounds double, double* %z, i64 4
  %39 = load double, double* %38, align 8, !tbaa !1
  %40 = getelementptr inbounds double, double* %z, i64 5
  %41 = load double, double* %40, align 8, !tbaa !1
  %42 = getelementptr inbounds double, double* %z, i64 6
  %43 = load double, double* %42, align 8, !tbaa !1
  %44 = getelementptr inbounds double, double* %z, i64 7
  %45 = load double, double* %44, align 8, !tbaa !1
  %46 = fsub double %13, %3
  %47 = fsub double %28, %18
  %48 = fsub double %43, %33
  %49 = fsub double %15, %1
  %50 = fsub double %30, %16
  %51 = fsub double %45, %31
  %52 = fsub double %13, %7
  %53 = fsub double %28, %22
  %54 = fsub double %43, %37
  %55 = fsub double %5, %1
  %56 = fsub double %20, %16
  %57 = fsub double %35, %31
  %58 = fsub double %11, %1
  %59 = fsub double %26, %16
  %60 = fsub double %41, %31
  %61 = fsub double %13, %9
  %62 = fsub double %28, %24
  %63 = fsub double %43, %39
  %64 = fsub double %7, %3
  %65 = fsub double %22, %18
  %66 = fsub double %37, %33
  %67 = fsub double %15, %5
  %68 = fsub double %30, %20
  %69 = fsub double %45, %35
  %70 = fsub double %9, %7
  %71 = fsub double %24, %22
  %72 = fsub double %39, %37
  %73 = fsub double %11, %15
  %74 = fsub double %26, %30
  %75 = fsub double %41, %45
  %76 = fsub double %3, %9
  %77 = fsub double %18, %24
  %78 = fsub double %33, %39
  %79 = fsub double %5, %11
  %80 = fsub double %20, %26
  %81 = fsub double %35, %41
  %82 = fadd double %64, %67
  %83 = fmul double %53, %57
  %84 = fmul double %56, %54
  %85 = fsub double %83, %84
  %86 = fmul double %82, %85
  %87 = fadd double %65, %68
  %88 = fmul double %55, %54
  %89 = fmul double %52, %57
  %90 = fsub double %88, %89
  %91 = fmul double %87, %90
  %92 = fadd double %86, %91
  %93 = fadd double %66, %69
  %94 = fmul double %52, %56
  %95 = fmul double %55, %53
  %96 = fsub double %94, %95
  %97 = fmul double %96, %93
  %98 = fadd double %97, %92
  %99 = fadd double %70, %73
  %100 = fmul double %62, %51
  %101 = fmul double %50, %63
  %102 = fsub double %100, %101
  %103 = fmul double %99, %102
  %104 = fadd double %71, %74
  %105 = fmul double %49, %63
  %106 = fmul double %61, %51
  %107 = fsub double %105, %106
  %108 = fmul double %104, %107
  %109 = fadd double %103, %108
  %110 = fadd double %72, %75
  %111 = fmul double %61, %50
  %112 = fmul double %49, %62
  %113 = fsub double %111, %112
  %114 = fmul double %113, %110
  %115 = fadd double %114, %109
  %116 = fadd double %98, %115
  %117 = fadd double %76, %79
  %118 = fmul double %47, %60
  %119 = fmul double %59, %48
  %120 = fsub double %118, %119
  %121 = fmul double %117, %120
  %122 = fadd double %77, %80
  %123 = fmul double %58, %48
  %124 = fmul double %46, %60
  %125 = fsub double %123, %124
  %126 = fmul double %122, %125
  %127 = fadd double %121, %126
  %128 = fadd double %78, %81
  %129 = fmul double %46, %59
  %130 = fmul double %58, %47
  %131 = fsub double %129, %130
  %132 = fmul double %131, %128
  %133 = fadd double %132, %127
  %134 = fadd double %133, %116
  %135 = fmul double %134, 0x3FB5555555555555
  ret double %135
}

; Function Attrs: nounwind uwtable
define void @_Z22CalcKinematicsForElemsR6DomainPddi(%class.Domain* nocapture readonly dereferenceable(1456) %domain, double* nocapture %vnew, double %deltaTime, i32 %numElem) #4 {
  %a.i = alloca double, align 8
  %charLength.sroa.0.i = alloca i64, align 8
  %B = alloca [3 x [8 x double]], align 16
  %x_local = alloca [8 x double], align 16
  %y_local = alloca [8 x double], align 16
  %z_local = alloca [8 x double], align 16
  %xd_local = alloca [8 x double], align 16
  %yd_local = alloca [8 x double], align 16
  %zd_local = alloca [8 x double], align 16
  %detJ = alloca double, align 8
  %1 = icmp sgt i32 %numElem, 0
  br i1 %1, label %.lr.ph, label %._crit_edge

.lr.ph:                                           ; preds = %0
  %2 = bitcast [3 x [8 x double]]* %B to i8*
  %3 = bitcast [8 x double]* %x_local to i8*
  %4 = bitcast [8 x double]* %y_local to i8*
  %5 = bitcast [8 x double]* %z_local to i8*
  %6 = bitcast [8 x double]* %xd_local to i8*
  %7 = bitcast [8 x double]* %yd_local to i8*
  %8 = bitcast [8 x double]* %zd_local to i8*
  %9 = bitcast double* %detJ to i8*
  %10 = getelementptr inbounds %class.Domain, %class.Domain* %domain, i64 0, i32 21, i32 0, i32 0, i32 0
  %11 = getelementptr inbounds [8 x double], [8 x double]* %x_local, i64 0, i64 0
  %12 = getelementptr inbounds [8 x double], [8 x double]* %y_local, i64 0, i64 0
  %13 = getelementptr inbounds [8 x double], [8 x double]* %z_local, i64 0, i64 0
  %domain.idx = getelementptr %class.Domain, %class.Domain* %domain, i64 0, i32 0, i32 0, i32 0, i32 0
  %domain.idx1 = getelementptr %class.Domain, %class.Domain* %domain, i64 0, i32 1, i32 0, i32 0, i32 0
  %domain.idx2 = getelementptr %class.Domain, %class.Domain* %domain, i64 0, i32 2, i32 0, i32 0, i32 0
  %14 = bitcast [8 x double]* %x_local to i64*
  %15 = getelementptr inbounds [8 x double], [8 x double]* %x_local, i64 0, i64 1
  %16 = bitcast double* %15 to i64*
  %17 = getelementptr inbounds [8 x double], [8 x double]* %x_local, i64 0, i64 2
  %18 = bitcast double* %17 to i64*
  %19 = getelementptr inbounds [8 x double], [8 x double]* %x_local, i64 0, i64 3
  %20 = bitcast double* %19 to i64*
  %21 = getelementptr inbounds [8 x double], [8 x double]* %x_local, i64 0, i64 4
  %22 = bitcast double* %21 to i64*
  %23 = getelementptr inbounds [8 x double], [8 x double]* %x_local, i64 0, i64 5
  %24 = bitcast double* %23 to i64*
  %25 = getelementptr inbounds [8 x double], [8 x double]* %x_local, i64 0, i64 6
  %26 = bitcast double* %25 to i64*
  %27 = getelementptr inbounds [8 x double], [8 x double]* %x_local, i64 0, i64 7
  %28 = bitcast double* %27 to i64*
  %29 = bitcast [8 x double]* %y_local to i64*
  %30 = getelementptr inbounds [8 x double], [8 x double]* %y_local, i64 0, i64 1
  %31 = bitcast double* %30 to i64*
  %32 = getelementptr inbounds [8 x double], [8 x double]* %y_local, i64 0, i64 2
  %33 = bitcast double* %32 to i64*
  %34 = getelementptr inbounds [8 x double], [8 x double]* %y_local, i64 0, i64 3
  %35 = bitcast double* %34 to i64*
  %36 = getelementptr inbounds [8 x double], [8 x double]* %y_local, i64 0, i64 4
  %37 = bitcast double* %36 to i64*
  %38 = getelementptr inbounds [8 x double], [8 x double]* %y_local, i64 0, i64 5
  %39 = bitcast double* %38 to i64*
  %40 = getelementptr inbounds [8 x double], [8 x double]* %y_local, i64 0, i64 6
  %41 = bitcast double* %40 to i64*
  %42 = getelementptr inbounds [8 x double], [8 x double]* %y_local, i64 0, i64 7
  %43 = bitcast double* %42 to i64*
  %44 = bitcast [8 x double]* %z_local to i64*
  %45 = getelementptr inbounds [8 x double], [8 x double]* %z_local, i64 0, i64 1
  %46 = bitcast double* %45 to i64*
  %47 = getelementptr inbounds [8 x double], [8 x double]* %z_local, i64 0, i64 2
  %48 = bitcast double* %47 to i64*
  %49 = getelementptr inbounds [8 x double], [8 x double]* %z_local, i64 0, i64 3
  %50 = bitcast double* %49 to i64*
  %51 = getelementptr inbounds [8 x double], [8 x double]* %z_local, i64 0, i64 4
  %52 = bitcast double* %51 to i64*
  %53 = getelementptr inbounds [8 x double], [8 x double]* %z_local, i64 0, i64 5
  %54 = bitcast double* %53 to i64*
  %55 = getelementptr inbounds [8 x double], [8 x double]* %z_local, i64 0, i64 6
  %56 = bitcast double* %55 to i64*
  %57 = getelementptr inbounds [8 x double], [8 x double]* %z_local, i64 0, i64 7
  %58 = bitcast double* %57 to i64*
  %59 = getelementptr inbounds %class.Domain, %class.Domain* %domain, i64 0, i32 44, i32 0, i32 0, i32 0
  %60 = getelementptr inbounds %class.Domain, %class.Domain* %domain, i64 0, i32 43, i32 0, i32 0, i32 0
  %61 = getelementptr inbounds %class.Domain, %class.Domain* %domain, i64 0, i32 46, i32 0, i32 0, i32 0
  %62 = bitcast double* %a.i to i8*
  %63 = bitcast i64* %charLength.sroa.0.i to i8*
  %64 = bitcast i64* %charLength.sroa.0.i to double*
  %65 = getelementptr inbounds %class.Domain, %class.Domain* %domain, i64 0, i32 48, i32 0, i32 0, i32 0
  %66 = getelementptr inbounds %class.Domain, %class.Domain* %domain, i64 0, i32 3, i32 0, i32 0, i32 0
  %67 = getelementptr inbounds %class.Domain, %class.Domain* %domain, i64 0, i32 4, i32 0, i32 0, i32 0
  %68 = getelementptr inbounds %class.Domain, %class.Domain* %domain, i64 0, i32 5, i32 0, i32 0, i32 0
  %69 = fmul double %deltaTime, 5.000000e-01
  %70 = getelementptr inbounds [3 x [8 x double]], [3 x [8 x double]]* %B, i64 0, i64 0
  %71 = getelementptr inbounds [8 x double], [8 x double]* %xd_local, i64 0, i64 0
  %72 = getelementptr inbounds [8 x double], [8 x double]* %yd_local, i64 0, i64 0
  %73 = getelementptr inbounds [8 x double], [8 x double]* %zd_local, i64 0, i64 0
  %74 = getelementptr inbounds [3 x [8 x double]], [3 x [8 x double]]* %B, i64 0, i64 0, i64 0
  %75 = getelementptr inbounds [3 x [8 x double]], [3 x [8 x double]]* %B, i64 0, i64 1, i64 0
  %76 = getelementptr inbounds [3 x [8 x double]], [3 x [8 x double]]* %B, i64 0, i64 2, i64 0
  %77 = getelementptr inbounds [8 x double], [8 x double]* %xd_local, i64 0, i64 6
  %78 = getelementptr inbounds [3 x [8 x double]], [3 x [8 x double]]* %B, i64 0, i64 0, i64 1
  %79 = getelementptr inbounds [8 x double], [8 x double]* %xd_local, i64 0, i64 1
  %80 = getelementptr inbounds [8 x double], [8 x double]* %xd_local, i64 0, i64 7
  %81 = getelementptr inbounds [3 x [8 x double]], [3 x [8 x double]]* %B, i64 0, i64 0, i64 2
  %82 = getelementptr inbounds [8 x double], [8 x double]* %xd_local, i64 0, i64 2
  %83 = getelementptr inbounds [8 x double], [8 x double]* %xd_local, i64 0, i64 4
  %84 = getelementptr inbounds [3 x [8 x double]], [3 x [8 x double]]* %B, i64 0, i64 0, i64 3
  %85 = getelementptr inbounds [8 x double], [8 x double]* %xd_local, i64 0, i64 3
  %86 = getelementptr inbounds [8 x double], [8 x double]* %xd_local, i64 0, i64 5
  %87 = getelementptr inbounds [8 x double], [8 x double]* %yd_local, i64 0, i64 6
  %88 = getelementptr inbounds [3 x [8 x double]], [3 x [8 x double]]* %B, i64 0, i64 1, i64 1
  %89 = getelementptr inbounds [8 x double], [8 x double]* %yd_local, i64 0, i64 1
  %90 = getelementptr inbounds [8 x double], [8 x double]* %yd_local, i64 0, i64 7
  %91 = getelementptr inbounds [3 x [8 x double]], [3 x [8 x double]]* %B, i64 0, i64 1, i64 2
  %92 = getelementptr inbounds [8 x double], [8 x double]* %yd_local, i64 0, i64 2
  %93 = getelementptr inbounds [8 x double], [8 x double]* %yd_local, i64 0, i64 4
  %94 = getelementptr inbounds [3 x [8 x double]], [3 x [8 x double]]* %B, i64 0, i64 1, i64 3
  %95 = getelementptr inbounds [8 x double], [8 x double]* %yd_local, i64 0, i64 3
  %96 = getelementptr inbounds [8 x double], [8 x double]* %yd_local, i64 0, i64 5
  %97 = getelementptr inbounds [8 x double], [8 x double]* %zd_local, i64 0, i64 6
  %98 = getelementptr inbounds [3 x [8 x double]], [3 x [8 x double]]* %B, i64 0, i64 2, i64 1
  %99 = getelementptr inbounds [8 x double], [8 x double]* %zd_local, i64 0, i64 1
  %100 = getelementptr inbounds [8 x double], [8 x double]* %zd_local, i64 0, i64 7
  %101 = getelementptr inbounds [3 x [8 x double]], [3 x [8 x double]]* %B, i64 0, i64 2, i64 2
  %102 = getelementptr inbounds [8 x double], [8 x double]* %zd_local, i64 0, i64 2
  %103 = getelementptr inbounds [8 x double], [8 x double]* %zd_local, i64 0, i64 4
  %104 = getelementptr inbounds [3 x [8 x double]], [3 x [8 x double]]* %B, i64 0, i64 2, i64 3
  %105 = getelementptr inbounds [8 x double], [8 x double]* %zd_local, i64 0, i64 3
  %106 = getelementptr inbounds [8 x double], [8 x double]* %zd_local, i64 0, i64 5
  %107 = getelementptr inbounds %class.Domain, %class.Domain* %domain, i64 0, i32 29, i32 0, i32 0, i32 0
  %108 = getelementptr inbounds %class.Domain, %class.Domain* %domain, i64 0, i32 30, i32 0, i32 0, i32 0
  %109 = getelementptr inbounds %class.Domain, %class.Domain* %domain, i64 0, i32 31, i32 0, i32 0, i32 0
  %110 = bitcast [8 x double]* %xd_local to i64*
  %111 = bitcast [8 x double]* %yd_local to i64*
  %112 = bitcast [8 x double]* %zd_local to i64*
  %113 = bitcast double* %79 to i64*
  %114 = bitcast double* %89 to i64*
  %115 = bitcast double* %99 to i64*
  %116 = bitcast double* %82 to i64*
  %117 = bitcast double* %92 to i64*
  %118 = bitcast double* %102 to i64*
  %119 = bitcast double* %85 to i64*
  %120 = bitcast double* %95 to i64*
  %121 = bitcast double* %105 to i64*
  %122 = bitcast double* %83 to i64*
  %123 = bitcast double* %93 to i64*
  %124 = bitcast double* %103 to i64*
  %125 = bitcast double* %86 to i64*
  %126 = bitcast double* %96 to i64*
  %127 = bitcast double* %106 to i64*
  %128 = bitcast double* %77 to i64*
  %129 = bitcast double* %87 to i64*
  %130 = bitcast double* %97 to i64*
  %131 = bitcast double* %80 to i64*
  %132 = bitcast double* %90 to i64*
  %133 = bitcast double* %100 to i64*
  %134 = insertelement <2 x double> undef, double %69, i32 0
  %135 = insertelement <2 x double> %134, double %69, i32 1
  %136 = bitcast [8 x double]* %xd_local to <2 x double>*
  %137 = bitcast [8 x double]* %x_local to <2 x double>*
  %138 = bitcast [8 x double]* %yd_local to <2 x double>*
  %139 = bitcast [8 x double]* %y_local to <2 x double>*
  %140 = bitcast [8 x double]* %zd_local to <2 x double>*
  %141 = bitcast [8 x double]* %z_local to <2 x double>*
  %142 = bitcast double* %82 to <2 x double>*
  %143 = bitcast double* %17 to <2 x double>*
  %144 = bitcast double* %92 to <2 x double>*
  %145 = bitcast double* %32 to <2 x double>*
  %146 = bitcast double* %102 to <2 x double>*
  %147 = bitcast double* %47 to <2 x double>*
  %148 = bitcast double* %83 to <2 x double>*
  %149 = bitcast double* %21 to <2 x double>*
  %150 = bitcast double* %93 to <2 x double>*
  %151 = bitcast double* %36 to <2 x double>*
  %152 = bitcast double* %103 to <2 x double>*
  %153 = bitcast double* %51 to <2 x double>*
  %154 = bitcast double* %77 to <2 x double>*
  %155 = bitcast double* %25 to <2 x double>*
  %156 = bitcast double* %87 to <2 x double>*
  %157 = bitcast double* %40 to <2 x double>*
  %158 = bitcast double* %97 to <2 x double>*
  %159 = bitcast double* %55 to <2 x double>*
  br label %.preheader12

._crit_edge.loopexit:                             ; preds = %.preheader12
  br label %._crit_edge

._crit_edge:                                      ; preds = %._crit_edge.loopexit, %0
  ret void

.preheader12:                                     ; preds = %.preheader12, %.lr.ph
  %indvars.iv9 = phi i64 [ 0, %.lr.ph ], [ %indvars.iv.next10, %.preheader12 ]
  call void @llvm.lifetime.start(i64 192, i8* %2) #2
  call void @llvm.lifetime.start(i64 64, i8* %3) #2
  call void @llvm.lifetime.start(i64 64, i8* %4) #2
  call void @llvm.lifetime.start(i64 64, i8* %5) #2
  call void @llvm.lifetime.start(i64 64, i8* %6) #2
  call void @llvm.lifetime.start(i64 64, i8* %7) #2
  call void @llvm.lifetime.start(i64 64, i8* %8) #2
  call void @llvm.lifetime.start(i64 8, i8* %9) #2
  store double 0.000000e+00, double* %detJ, align 8, !tbaa !1
  %160 = trunc i64 %indvars.iv9 to i32
  %161 = shl nsw i32 %160, 3
  %162 = sext i32 %161 to i64
  %163 = load i32*, i32** %10, align 8, !tbaa !5
  %164 = getelementptr inbounds i32, i32* %163, i64 %162
  %domain.idx.val = load double*, double** %domain.idx, align 8, !tbaa !9
  %domain.idx1.val = load double*, double** %domain.idx1, align 8, !tbaa !9
  %domain.idx2.val = load double*, double** %domain.idx2, align 8, !tbaa !9
  %165 = load i32, i32* %164, align 4, !tbaa !12
  %166 = getelementptr inbounds i32, i32* %164, i64 1
  %167 = load i32, i32* %166, align 4, !tbaa !12
  %168 = getelementptr inbounds i32, i32* %164, i64 2
  %169 = load i32, i32* %168, align 4, !tbaa !12
  %170 = getelementptr inbounds i32, i32* %164, i64 3
  %171 = load i32, i32* %170, align 4, !tbaa !12
  %172 = getelementptr inbounds i32, i32* %164, i64 4
  %173 = load i32, i32* %172, align 4, !tbaa !12
  %174 = getelementptr inbounds i32, i32* %164, i64 5
  %175 = load i32, i32* %174, align 4, !tbaa !12
  %176 = getelementptr inbounds i32, i32* %164, i64 6
  %177 = load i32, i32* %176, align 4, !tbaa !12
  %178 = getelementptr inbounds i32, i32* %164, i64 7
  %179 = load i32, i32* %178, align 4, !tbaa !12
  %180 = sext i32 %165 to i64
  %181 = getelementptr inbounds double, double* %domain.idx.val, i64 %180
  %182 = bitcast double* %181 to i64*
  %183 = load i64, i64* %182, align 8, !tbaa !1
  store i64 %183, i64* %14, align 16, !tbaa !1
  %184 = sext i32 %167 to i64
  %185 = getelementptr inbounds double, double* %domain.idx.val, i64 %184
  %186 = bitcast double* %185 to i64*
  %187 = load i64, i64* %186, align 8, !tbaa !1
  store i64 %187, i64* %16, align 8, !tbaa !1
  %188 = sext i32 %169 to i64
  %189 = getelementptr inbounds double, double* %domain.idx.val, i64 %188
  %190 = bitcast double* %189 to i64*
  %191 = load i64, i64* %190, align 8, !tbaa !1
  store i64 %191, i64* %18, align 16, !tbaa !1
  %192 = sext i32 %171 to i64
  %193 = getelementptr inbounds double, double* %domain.idx.val, i64 %192
  %194 = bitcast double* %193 to i64*
  %195 = load i64, i64* %194, align 8, !tbaa !1
  store i64 %195, i64* %20, align 8, !tbaa !1
  %196 = sext i32 %173 to i64
  %197 = getelementptr inbounds double, double* %domain.idx.val, i64 %196
  %198 = bitcast double* %197 to i64*
  %199 = load i64, i64* %198, align 8, !tbaa !1
  store i64 %199, i64* %22, align 16, !tbaa !1
  %200 = sext i32 %175 to i64
  %201 = getelementptr inbounds double, double* %domain.idx.val, i64 %200
  %202 = bitcast double* %201 to i64*
  %203 = load i64, i64* %202, align 8, !tbaa !1
  store i64 %203, i64* %24, align 8, !tbaa !1
  %204 = sext i32 %177 to i64
  %205 = getelementptr inbounds double, double* %domain.idx.val, i64 %204
  %206 = bitcast double* %205 to i64*
  %207 = load i64, i64* %206, align 8, !tbaa !1
  store i64 %207, i64* %26, align 16, !tbaa !1
  %208 = sext i32 %179 to i64
  %209 = getelementptr inbounds double, double* %domain.idx.val, i64 %208
  %210 = bitcast double* %209 to i64*
  %211 = load i64, i64* %210, align 8, !tbaa !1
  store i64 %211, i64* %28, align 8, !tbaa !1
  %212 = getelementptr inbounds double, double* %domain.idx1.val, i64 %180
  %213 = bitcast double* %212 to i64*
  %214 = load i64, i64* %213, align 8, !tbaa !1
  store i64 %214, i64* %29, align 16, !tbaa !1
  %215 = getelementptr inbounds double, double* %domain.idx1.val, i64 %184
  %216 = bitcast double* %215 to i64*
  %217 = load i64, i64* %216, align 8, !tbaa !1
  store i64 %217, i64* %31, align 8, !tbaa !1
  %218 = getelementptr inbounds double, double* %domain.idx1.val, i64 %188
  %219 = bitcast double* %218 to i64*
  %220 = load i64, i64* %219, align 8, !tbaa !1
  store i64 %220, i64* %33, align 16, !tbaa !1
  %221 = getelementptr inbounds double, double* %domain.idx1.val, i64 %192
  %222 = bitcast double* %221 to i64*
  %223 = load i64, i64* %222, align 8, !tbaa !1
  store i64 %223, i64* %35, align 8, !tbaa !1
  %224 = getelementptr inbounds double, double* %domain.idx1.val, i64 %196
  %225 = bitcast double* %224 to i64*
  %226 = load i64, i64* %225, align 8, !tbaa !1
  store i64 %226, i64* %37, align 16, !tbaa !1
  %227 = getelementptr inbounds double, double* %domain.idx1.val, i64 %200
  %228 = bitcast double* %227 to i64*
  %229 = load i64, i64* %228, align 8, !tbaa !1
  store i64 %229, i64* %39, align 8, !tbaa !1
  %230 = getelementptr inbounds double, double* %domain.idx1.val, i64 %204
  %231 = bitcast double* %230 to i64*
  %232 = load i64, i64* %231, align 8, !tbaa !1
  store i64 %232, i64* %41, align 16, !tbaa !1
  %233 = getelementptr inbounds double, double* %domain.idx1.val, i64 %208
  %234 = bitcast double* %233 to i64*
  %235 = load i64, i64* %234, align 8, !tbaa !1
  store i64 %235, i64* %43, align 8, !tbaa !1
  %236 = getelementptr inbounds double, double* %domain.idx2.val, i64 %180
  %237 = bitcast double* %236 to i64*
  %238 = load i64, i64* %237, align 8, !tbaa !1
  store i64 %238, i64* %44, align 16, !tbaa !1
  %239 = getelementptr inbounds double, double* %domain.idx2.val, i64 %184
  %240 = bitcast double* %239 to i64*
  %241 = load i64, i64* %240, align 8, !tbaa !1
  store i64 %241, i64* %46, align 8, !tbaa !1
  %242 = getelementptr inbounds double, double* %domain.idx2.val, i64 %188
  %243 = bitcast double* %242 to i64*
  %244 = load i64, i64* %243, align 8, !tbaa !1
  store i64 %244, i64* %48, align 16, !tbaa !1
  %245 = getelementptr inbounds double, double* %domain.idx2.val, i64 %192
  %246 = bitcast double* %245 to i64*
  %247 = load i64, i64* %246, align 8, !tbaa !1
  store i64 %247, i64* %50, align 8, !tbaa !1
  %248 = getelementptr inbounds double, double* %domain.idx2.val, i64 %196
  %249 = bitcast double* %248 to i64*
  %250 = load i64, i64* %249, align 8, !tbaa !1
  store i64 %250, i64* %52, align 16, !tbaa !1
  %251 = getelementptr inbounds double, double* %domain.idx2.val, i64 %200
  %252 = bitcast double* %251 to i64*
  %253 = load i64, i64* %252, align 8, !tbaa !1
  store i64 %253, i64* %54, align 8, !tbaa !1
  %254 = getelementptr inbounds double, double* %domain.idx2.val, i64 %204
  %255 = bitcast double* %254 to i64*
  %256 = load i64, i64* %255, align 8, !tbaa !1
  store i64 %256, i64* %56, align 16, !tbaa !1
  %257 = getelementptr inbounds double, double* %domain.idx2.val, i64 %208
  %258 = bitcast double* %257 to i64*
  %259 = load i64, i64* %258, align 8, !tbaa !1
  store i64 %259, i64* %58, align 8, !tbaa !1
  %260 = call double @_Z14CalcElemVolumePKdS0_S0_(double* %11, double* %12, double* %13)
  %261 = load double*, double** %59, align 8, !tbaa !9
  %262 = getelementptr inbounds double, double* %261, i64 %indvars.iv9
  %263 = load double, double* %262, align 8, !tbaa !1
  %264 = fdiv double %260, %263
  %265 = getelementptr inbounds double, double* %vnew, i64 %indvars.iv9
  store double %264, double* %265, align 8, !tbaa !1
  %266 = load double*, double** %60, align 8, !tbaa !9
  %267 = getelementptr inbounds double, double* %266, i64 %indvars.iv9
  %268 = load double, double* %267, align 8, !tbaa !1
  %269 = fsub double %264, %268
  %270 = load double*, double** %61, align 8, !tbaa !9
  %271 = getelementptr inbounds double, double* %270, i64 %indvars.iv9
  store double %269, double* %271, align 8, !tbaa !1
  call void @llvm.lifetime.start(i64 8, i8* %62)
  call void @llvm.lifetime.start(i64 8, i8* %63)
  store i64 0, i64* %charLength.sroa.0.i, align 8
  %272 = load double, double* %11, align 16, !tbaa !1
  %273 = load double, double* %15, align 8, !tbaa !1
  %274 = load double, double* %17, align 16, !tbaa !1
  %275 = load double, double* %19, align 8, !tbaa !1
  %276 = bitcast i64 %214 to double
  %277 = bitcast i64 %217 to double
  %278 = bitcast i64 %220 to double
  %279 = bitcast i64 %223 to double
  %280 = bitcast i64 %238 to double
  %281 = bitcast i64 %241 to double
  %282 = bitcast i64 %244 to double
  %283 = bitcast i64 %247 to double
  %284 = fsub double %274, %272
  %285 = fsub double %275, %273
  %286 = fsub double %284, %285
  %287 = fsub double %278, %276
  %288 = fsub double %279, %277
  %289 = fsub double %287, %288
  %290 = fsub double %282, %280
  %291 = fsub double %283, %281
  %292 = fsub double %290, %291
  %293 = fadd double %284, %285
  %294 = fadd double %287, %288
  %295 = fadd double %290, %291
  %296 = fmul double %293, %293
  %297 = fmul double %294, %294
  %298 = fadd double %296, %297
  %299 = fmul double %295, %295
  %300 = fadd double %298, %299
  %301 = insertelement <2 x double> undef, double %286, i32 0
  %302 = insertelement <2 x double> %301, double %286, i32 1
  %303 = insertelement <2 x double> %301, double %293, i32 1
  %304 = fmul <2 x double> %302, %303
  %305 = insertelement <2 x double> undef, double %289, i32 0
  %306 = insertelement <2 x double> %305, double %289, i32 1
  %307 = insertelement <2 x double> %305, double %294, i32 1
  %308 = fmul <2 x double> %306, %307
  %309 = fadd <2 x double> %304, %308
  %310 = insertelement <2 x double> undef, double %292, i32 0
  %311 = insertelement <2 x double> %310, double %292, i32 1
  %312 = insertelement <2 x double> %310, double %295, i32 1
  %313 = fmul <2 x double> %311, %312
  %314 = fadd <2 x double> %309, %313
  %315 = insertelement <2 x double> undef, double %300, i32 0
  %316 = shufflevector <2 x double> %315, <2 x double> %314, <2 x i32> <i32 0, i32 3>
  %317 = fmul <2 x double> %314, %316
  %318 = extractelement <2 x double> %317, i32 0
  %319 = extractelement <2 x double> %317, i32 1
  %320 = fsub double %318, %319
  store double %320, double* %a.i, align 8
  %321 = fcmp olt double %320, 0.000000e+00
  %__b.__a.i.i = select i1 %321, double* %64, double* %a.i
  %322 = bitcast double* %__b.__a.i.i to i64*
  %323 = load i64, i64* %322, align 8, !tbaa !1
  store i64 %323, i64* %charLength.sroa.0.i, align 8
  %324 = load double, double* %21, align 16, !tbaa !1
  %325 = load double, double* %23, align 8, !tbaa !1
  %326 = load double, double* %25, align 16, !tbaa !1
  %327 = load double, double* %27, align 8, !tbaa !1
  %328 = load double, double* %36, align 16, !tbaa !1
  %329 = load double, double* %38, align 8, !tbaa !1
  %330 = load double, double* %40, align 16, !tbaa !1
  %331 = load double, double* %42, align 8, !tbaa !1
  %332 = bitcast i64 %250 to double
  %333 = bitcast i64 %253 to double
  %334 = bitcast i64 %256 to double
  %335 = bitcast i64 %259 to double
  %336 = fsub double %326, %324
  %337 = fsub double %327, %325
  %338 = fsub double %336, %337
  %339 = fsub double %330, %328
  %340 = fsub double %331, %329
  %341 = fsub double %339, %340
  %342 = fsub double %334, %332
  %343 = fsub double %335, %333
  %344 = fsub double %342, %343
  %345 = fadd double %336, %337
  %346 = fadd double %339, %340
  %347 = fadd double %342, %343
  %348 = fmul double %345, %345
  %349 = fmul double %346, %346
  %350 = fadd double %348, %349
  %351 = fmul double %347, %347
  %352 = fadd double %350, %351
  %353 = insertelement <2 x double> undef, double %338, i32 0
  %354 = insertelement <2 x double> %353, double %338, i32 1
  %355 = insertelement <2 x double> %353, double %345, i32 1
  %356 = fmul <2 x double> %354, %355
  %357 = insertelement <2 x double> undef, double %341, i32 0
  %358 = insertelement <2 x double> %357, double %341, i32 1
  %359 = insertelement <2 x double> %357, double %346, i32 1
  %360 = fmul <2 x double> %358, %359
  %361 = fadd <2 x double> %356, %360
  %362 = insertelement <2 x double> undef, double %344, i32 0
  %363 = insertelement <2 x double> %362, double %344, i32 1
  %364 = insertelement <2 x double> %362, double %347, i32 1
  %365 = fmul <2 x double> %363, %364
  %366 = fadd <2 x double> %361, %365
  %367 = insertelement <2 x double> undef, double %352, i32 0
  %368 = shufflevector <2 x double> %367, <2 x double> %366, <2 x i32> <i32 0, i32 3>
  %369 = fmul <2 x double> %366, %368
  %370 = extractelement <2 x double> %369, i32 0
  %371 = extractelement <2 x double> %369, i32 1
  %372 = fsub double %370, %371
  store double %372, double* %a.i, align 8
  %373 = bitcast i64 %323 to double
  %374 = fcmp olt double %372, %373
  %__b.__a.i5.i = select i1 %374, double* %64, double* %a.i
  %375 = bitcast double* %__b.__a.i5.i to i64*
  %376 = load i64, i64* %375, align 8, !tbaa !1
  store i64 %376, i64* %charLength.sroa.0.i, align 8
  %377 = load double, double* %12, align 16, !tbaa !1
  %378 = load double, double* %30, align 8, !tbaa !1
  %379 = load double, double* %13, align 16, !tbaa !1
  %380 = load double, double* %45, align 8, !tbaa !1
  %381 = fsub double %325, %272
  %382 = fsub double %324, %273
  %383 = fsub double %381, %382
  %384 = fsub double %329, %377
  %385 = fsub double %328, %378
  %386 = fsub double %384, %385
  %387 = fsub double %333, %379
  %388 = fsub double %332, %380
  %389 = fsub double %387, %388
  %390 = fadd double %381, %382
  %391 = fadd double %384, %385
  %392 = fadd double %387, %388
  %393 = fmul double %390, %390
  %394 = fmul double %391, %391
  %395 = fadd double %393, %394
  %396 = fmul double %392, %392
  %397 = fadd double %395, %396
  %398 = insertelement <2 x double> undef, double %383, i32 0
  %399 = insertelement <2 x double> %398, double %383, i32 1
  %400 = insertelement <2 x double> %398, double %390, i32 1
  %401 = fmul <2 x double> %399, %400
  %402 = insertelement <2 x double> undef, double %386, i32 0
  %403 = insertelement <2 x double> %402, double %386, i32 1
  %404 = insertelement <2 x double> %402, double %391, i32 1
  %405 = fmul <2 x double> %403, %404
  %406 = fadd <2 x double> %401, %405
  %407 = insertelement <2 x double> undef, double %389, i32 0
  %408 = insertelement <2 x double> %407, double %389, i32 1
  %409 = insertelement <2 x double> %407, double %392, i32 1
  %410 = fmul <2 x double> %408, %409
  %411 = fadd <2 x double> %406, %410
  %412 = insertelement <2 x double> undef, double %397, i32 0
  %413 = shufflevector <2 x double> %412, <2 x double> %411, <2 x i32> <i32 0, i32 3>
  %414 = fmul <2 x double> %411, %413
  %415 = extractelement <2 x double> %414, i32 0
  %416 = extractelement <2 x double> %414, i32 1
  %417 = fsub double %415, %416
  store double %417, double* %a.i, align 8
  %418 = bitcast i64 %376 to double
  %419 = fcmp olt double %417, %418
  %__b.__a.i4.i = select i1 %419, double* %64, double* %a.i
  %420 = bitcast double* %__b.__a.i4.i to i64*
  %421 = load i64, i64* %420, align 8, !tbaa !1
  store i64 %421, i64* %charLength.sroa.0.i, align 8
  %422 = load double, double* %17, align 16, !tbaa !1
  %423 = load double, double* %32, align 16, !tbaa !1
  %424 = load double, double* %47, align 16, !tbaa !1
  %425 = fsub double %326, %273
  %426 = fsub double %325, %422
  %427 = fsub double %425, %426
  %428 = fsub double %330, %378
  %429 = fsub double %329, %423
  %430 = fsub double %428, %429
  %431 = fsub double %334, %380
  %432 = fsub double %333, %424
  %433 = fsub double %431, %432
  %434 = fadd double %425, %426
  %435 = fadd double %428, %429
  %436 = fadd double %431, %432
  %437 = fmul double %434, %434
  %438 = fmul double %435, %435
  %439 = fadd double %437, %438
  %440 = fmul double %436, %436
  %441 = fadd double %439, %440
  %442 = insertelement <2 x double> undef, double %427, i32 0
  %443 = insertelement <2 x double> %442, double %427, i32 1
  %444 = insertelement <2 x double> %442, double %434, i32 1
  %445 = fmul <2 x double> %443, %444
  %446 = insertelement <2 x double> undef, double %430, i32 0
  %447 = insertelement <2 x double> %446, double %430, i32 1
  %448 = insertelement <2 x double> %446, double %435, i32 1
  %449 = fmul <2 x double> %447, %448
  %450 = fadd <2 x double> %445, %449
  %451 = insertelement <2 x double> undef, double %433, i32 0
  %452 = insertelement <2 x double> %451, double %433, i32 1
  %453 = insertelement <2 x double> %451, double %436, i32 1
  %454 = fmul <2 x double> %452, %453
  %455 = fadd <2 x double> %450, %454
  %456 = insertelement <2 x double> undef, double %441, i32 0
  %457 = shufflevector <2 x double> %456, <2 x double> %455, <2 x i32> <i32 0, i32 3>
  %458 = fmul <2 x double> %455, %457
  %459 = extractelement <2 x double> %458, i32 0
  %460 = extractelement <2 x double> %458, i32 1
  %461 = fsub double %459, %460
  store double %461, double* %a.i, align 8
  %462 = bitcast i64 %421 to double
  %463 = fcmp olt double %461, %462
  %464 = select i1 %463, double %462, double %461
  %465 = load double, double* %19, align 8, !tbaa !1
  %466 = load double, double* %27, align 8, !tbaa !1
  %467 = load double, double* %34, align 8, !tbaa !1
  %468 = load double, double* %42, align 8, !tbaa !1
  %469 = load double, double* %40, align 16, !tbaa !1
  %470 = load double, double* %49, align 8, !tbaa !1
  %471 = load double, double* %57, align 8, !tbaa !1
  %472 = load double, double* %55, align 16, !tbaa !1
  %473 = fsub double %466, %422
  %474 = fsub double %326, %465
  %475 = fsub double %473, %474
  %476 = fsub double %468, %423
  %477 = fsub double %469, %467
  %478 = fsub double %476, %477
  %479 = fsub double %471, %424
  %480 = fsub double %472, %470
  %481 = fsub double %479, %480
  %482 = fadd double %474, %473
  %483 = fadd double %476, %477
  %484 = fadd double %479, %480
  %485 = fmul double %482, %482
  %486 = fmul double %483, %483
  %487 = fadd double %485, %486
  %488 = fmul double %484, %484
  %489 = fadd double %487, %488
  %490 = insertelement <2 x double> undef, double %475, i32 0
  %491 = insertelement <2 x double> %490, double %475, i32 1
  %492 = insertelement <2 x double> %490, double %482, i32 1
  %493 = fmul <2 x double> %491, %492
  %494 = insertelement <2 x double> undef, double %478, i32 0
  %495 = insertelement <2 x double> %494, double %478, i32 1
  %496 = insertelement <2 x double> %494, double %483, i32 1
  %497 = fmul <2 x double> %495, %496
  %498 = fadd <2 x double> %493, %497
  %499 = insertelement <2 x double> undef, double %481, i32 0
  %500 = insertelement <2 x double> %499, double %481, i32 1
  %501 = insertelement <2 x double> %499, double %484, i32 1
  %502 = fmul <2 x double> %500, %501
  %503 = fadd <2 x double> %498, %502
  %504 = insertelement <2 x double> undef, double %489, i32 0
  %505 = shufflevector <2 x double> %504, <2 x double> %503, <2 x i32> <i32 0, i32 3>
  %506 = fmul <2 x double> %503, %505
  %507 = extractelement <2 x double> %506, i32 0
  %508 = extractelement <2 x double> %506, i32 1
  %509 = fsub double %507, %508
  %510 = fcmp olt double %509, %464
  %511 = select i1 %510, double %464, double %509
  %512 = load double, double* %11, align 16, !tbaa !1
  %513 = load double, double* %21, align 16, !tbaa !1
  %514 = load double, double* %12, align 16, !tbaa !1
  %515 = load double, double* %36, align 16, !tbaa !1
  %516 = load double, double* %13, align 16, !tbaa !1
  %517 = load double, double* %51, align 16, !tbaa !1
  %518 = fsub double %513, %465
  %519 = fsub double %466, %512
  %520 = fsub double %518, %519
  %521 = fsub double %515, %467
  %522 = fsub double %468, %514
  %523 = fsub double %521, %522
  %524 = fsub double %517, %470
  %525 = fsub double %471, %516
  %526 = fsub double %524, %525
  %527 = fadd double %519, %518
  %528 = fadd double %522, %521
  %529 = fadd double %525, %524
  %530 = fmul double %527, %527
  %531 = fmul double %528, %528
  %532 = fadd double %530, %531
  %533 = fmul double %529, %529
  %534 = fadd double %532, %533
  %535 = insertelement <2 x double> undef, double %520, i32 0
  %536 = insertelement <2 x double> %535, double %520, i32 1
  %537 = insertelement <2 x double> %535, double %527, i32 1
  %538 = fmul <2 x double> %536, %537
  %539 = insertelement <2 x double> undef, double %523, i32 0
  %540 = insertelement <2 x double> %539, double %523, i32 1
  %541 = insertelement <2 x double> %539, double %528, i32 1
  %542 = fmul <2 x double> %540, %541
  %543 = fadd <2 x double> %538, %542
  %544 = insertelement <2 x double> undef, double %526, i32 0
  %545 = insertelement <2 x double> %544, double %526, i32 1
  %546 = insertelement <2 x double> %544, double %529, i32 1
  %547 = fmul <2 x double> %545, %546
  %548 = fadd <2 x double> %543, %547
  %549 = insertelement <2 x double> undef, double %534, i32 0
  %550 = shufflevector <2 x double> %549, <2 x double> %548, <2 x i32> <i32 0, i32 3>
  %551 = fmul <2 x double> %548, %550
  %552 = extractelement <2 x double> %551, i32 0
  %553 = extractelement <2 x double> %551, i32 1
  %554 = fsub double %552, %553
  %555 = fcmp olt double %554, %511
  %556 = select i1 %555, double %511, double %554
  %557 = fmul double %260, 4.000000e+00
  %558 = call double @sqrt(double %556) #2
  %559 = fdiv double %557, %558
  call void @llvm.lifetime.end(i64 8, i8* %63)
  call void @llvm.lifetime.end(i64 8, i8* %62)
  %560 = load double*, double** %65, align 8, !tbaa !9
  %561 = getelementptr inbounds double, double* %560, i64 %indvars.iv9
  store double %559, double* %561, align 8, !tbaa !1
  %562 = load double*, double** %66, align 8
  %563 = load double*, double** %67, align 8
  %564 = load double*, double** %68, align 8
  %565 = load i32, i32* %164, align 4, !tbaa !12
  %566 = sext i32 %565 to i64
  %567 = getelementptr inbounds double, double* %562, i64 %566
  %568 = bitcast double* %567 to i64*
  %569 = load i64, i64* %568, align 8, !tbaa !1
  store i64 %569, i64* %110, align 16, !tbaa !1
  %570 = getelementptr inbounds double, double* %563, i64 %566
  %571 = bitcast double* %570 to i64*
  %572 = load i64, i64* %571, align 8, !tbaa !1
  store i64 %572, i64* %111, align 16, !tbaa !1
  %573 = getelementptr inbounds double, double* %564, i64 %566
  %574 = bitcast double* %573 to i64*
  %575 = load i64, i64* %574, align 8, !tbaa !1
  store i64 %575, i64* %112, align 16, !tbaa !1
  %576 = load i32, i32* %166, align 4, !tbaa !12
  %577 = sext i32 %576 to i64
  %578 = getelementptr inbounds double, double* %562, i64 %577
  %579 = bitcast double* %578 to i64*
  %580 = load i64, i64* %579, align 8, !tbaa !1
  store i64 %580, i64* %113, align 8, !tbaa !1
  %581 = getelementptr inbounds double, double* %563, i64 %577
  %582 = bitcast double* %581 to i64*
  %583 = load i64, i64* %582, align 8, !tbaa !1
  store i64 %583, i64* %114, align 8, !tbaa !1
  %584 = getelementptr inbounds double, double* %564, i64 %577
  %585 = bitcast double* %584 to i64*
  %586 = load i64, i64* %585, align 8, !tbaa !1
  store i64 %586, i64* %115, align 8, !tbaa !1
  %587 = load i32, i32* %168, align 4, !tbaa !12
  %588 = sext i32 %587 to i64
  %589 = getelementptr inbounds double, double* %562, i64 %588
  %590 = bitcast double* %589 to i64*
  %591 = load i64, i64* %590, align 8, !tbaa !1
  store i64 %591, i64* %116, align 16, !tbaa !1
  %592 = getelementptr inbounds double, double* %563, i64 %588
  %593 = bitcast double* %592 to i64*
  %594 = load i64, i64* %593, align 8, !tbaa !1
  store i64 %594, i64* %117, align 16, !tbaa !1
  %595 = getelementptr inbounds double, double* %564, i64 %588
  %596 = bitcast double* %595 to i64*
  %597 = load i64, i64* %596, align 8, !tbaa !1
  store i64 %597, i64* %118, align 16, !tbaa !1
  %598 = load i32, i32* %170, align 4, !tbaa !12
  %599 = sext i32 %598 to i64
  %600 = getelementptr inbounds double, double* %562, i64 %599
  %601 = bitcast double* %600 to i64*
  %602 = load i64, i64* %601, align 8, !tbaa !1
  store i64 %602, i64* %119, align 8, !tbaa !1
  %603 = getelementptr inbounds double, double* %563, i64 %599
  %604 = bitcast double* %603 to i64*
  %605 = load i64, i64* %604, align 8, !tbaa !1
  store i64 %605, i64* %120, align 8, !tbaa !1
  %606 = getelementptr inbounds double, double* %564, i64 %599
  %607 = bitcast double* %606 to i64*
  %608 = load i64, i64* %607, align 8, !tbaa !1
  store i64 %608, i64* %121, align 8, !tbaa !1
  %609 = load i32, i32* %172, align 4, !tbaa !12
  %610 = sext i32 %609 to i64
  %611 = getelementptr inbounds double, double* %562, i64 %610
  %612 = bitcast double* %611 to i64*
  %613 = load i64, i64* %612, align 8, !tbaa !1
  store i64 %613, i64* %122, align 16, !tbaa !1
  %614 = getelementptr inbounds double, double* %563, i64 %610
  %615 = bitcast double* %614 to i64*
  %616 = load i64, i64* %615, align 8, !tbaa !1
  store i64 %616, i64* %123, align 16, !tbaa !1
  %617 = getelementptr inbounds double, double* %564, i64 %610
  %618 = bitcast double* %617 to i64*
  %619 = load i64, i64* %618, align 8, !tbaa !1
  store i64 %619, i64* %124, align 16, !tbaa !1
  %620 = load i32, i32* %174, align 4, !tbaa !12
  %621 = sext i32 %620 to i64
  %622 = getelementptr inbounds double, double* %562, i64 %621
  %623 = bitcast double* %622 to i64*
  %624 = load i64, i64* %623, align 8, !tbaa !1
  store i64 %624, i64* %125, align 8, !tbaa !1
  %625 = getelementptr inbounds double, double* %563, i64 %621
  %626 = bitcast double* %625 to i64*
  %627 = load i64, i64* %626, align 8, !tbaa !1
  store i64 %627, i64* %126, align 8, !tbaa !1
  %628 = getelementptr inbounds double, double* %564, i64 %621
  %629 = bitcast double* %628 to i64*
  %630 = load i64, i64* %629, align 8, !tbaa !1
  store i64 %630, i64* %127, align 8, !tbaa !1
  %631 = load i32, i32* %176, align 4, !tbaa !12
  %632 = sext i32 %631 to i64
  %633 = getelementptr inbounds double, double* %562, i64 %632
  %634 = bitcast double* %633 to i64*
  %635 = load i64, i64* %634, align 8, !tbaa !1
  store i64 %635, i64* %128, align 16, !tbaa !1
  %636 = getelementptr inbounds double, double* %563, i64 %632
  %637 = bitcast double* %636 to i64*
  %638 = load i64, i64* %637, align 8, !tbaa !1
  store i64 %638, i64* %129, align 16, !tbaa !1
  %639 = getelementptr inbounds double, double* %564, i64 %632
  %640 = bitcast double* %639 to i64*
  %641 = load i64, i64* %640, align 8, !tbaa !1
  store i64 %641, i64* %130, align 16, !tbaa !1
  %642 = load i32, i32* %178, align 4, !tbaa !12
  %643 = sext i32 %642 to i64
  %644 = getelementptr inbounds double, double* %562, i64 %643
  %645 = bitcast double* %644 to i64*
  %646 = load i64, i64* %645, align 8, !tbaa !1
  store i64 %646, i64* %131, align 8, !tbaa !1
  %647 = getelementptr inbounds double, double* %563, i64 %643
  %648 = bitcast double* %647 to i64*
  %649 = load i64, i64* %648, align 8, !tbaa !1
  store i64 %649, i64* %132, align 8, !tbaa !1
  %650 = getelementptr inbounds double, double* %564, i64 %643
  %651 = bitcast double* %650 to i64*
  %652 = load i64, i64* %651, align 8, !tbaa !1
  store i64 %652, i64* %133, align 8, !tbaa !1
  %653 = load <2 x double>, <2 x double>* %136, align 16, !tbaa !1
  %654 = fmul <2 x double> %135, %653
  %655 = load <2 x double>, <2 x double>* %137, align 16, !tbaa !1
  %656 = fsub <2 x double> %655, %654
  store <2 x double> %656, <2 x double>* %137, align 16, !tbaa !1
  %657 = load <2 x double>, <2 x double>* %138, align 16, !tbaa !1
  %658 = fmul <2 x double> %135, %657
  %659 = load <2 x double>, <2 x double>* %139, align 16, !tbaa !1
  %660 = fsub <2 x double> %659, %658
  store <2 x double> %660, <2 x double>* %139, align 16, !tbaa !1
  %661 = load <2 x double>, <2 x double>* %140, align 16, !tbaa !1
  %662 = fmul <2 x double> %135, %661
  %663 = load <2 x double>, <2 x double>* %141, align 16, !tbaa !1
  %664 = fsub <2 x double> %663, %662
  store <2 x double> %664, <2 x double>* %141, align 16, !tbaa !1
  %665 = load <2 x double>, <2 x double>* %142, align 16, !tbaa !1
  %666 = fmul <2 x double> %135, %665
  %667 = load <2 x double>, <2 x double>* %143, align 16, !tbaa !1
  %668 = fsub <2 x double> %667, %666
  store <2 x double> %668, <2 x double>* %143, align 16, !tbaa !1
  %669 = load <2 x double>, <2 x double>* %144, align 16, !tbaa !1
  %670 = fmul <2 x double> %135, %669
  %671 = load <2 x double>, <2 x double>* %145, align 16, !tbaa !1
  %672 = fsub <2 x double> %671, %670
  store <2 x double> %672, <2 x double>* %145, align 16, !tbaa !1
  %673 = load <2 x double>, <2 x double>* %146, align 16, !tbaa !1
  %674 = fmul <2 x double> %135, %673
  %675 = load <2 x double>, <2 x double>* %147, align 16, !tbaa !1
  %676 = fsub <2 x double> %675, %674
  store <2 x double> %676, <2 x double>* %147, align 16, !tbaa !1
  %677 = load <2 x double>, <2 x double>* %148, align 16, !tbaa !1
  %678 = fmul <2 x double> %135, %677
  %679 = load <2 x double>, <2 x double>* %149, align 16, !tbaa !1
  %680 = fsub <2 x double> %679, %678
  store <2 x double> %680, <2 x double>* %149, align 16, !tbaa !1
  %681 = load <2 x double>, <2 x double>* %150, align 16, !tbaa !1
  %682 = fmul <2 x double> %135, %681
  %683 = load <2 x double>, <2 x double>* %151, align 16, !tbaa !1
  %684 = fsub <2 x double> %683, %682
  store <2 x double> %684, <2 x double>* %151, align 16, !tbaa !1
  %685 = load <2 x double>, <2 x double>* %152, align 16, !tbaa !1
  %686 = fmul <2 x double> %135, %685
  %687 = load <2 x double>, <2 x double>* %153, align 16, !tbaa !1
  %688 = fsub <2 x double> %687, %686
  store <2 x double> %688, <2 x double>* %153, align 16, !tbaa !1
  %689 = load <2 x double>, <2 x double>* %154, align 16, !tbaa !1
  %690 = fmul <2 x double> %135, %689
  %691 = load <2 x double>, <2 x double>* %155, align 16, !tbaa !1
  %692 = fsub <2 x double> %691, %690
  store <2 x double> %692, <2 x double>* %155, align 16, !tbaa !1
  %693 = load <2 x double>, <2 x double>* %156, align 16, !tbaa !1
  %694 = fmul <2 x double> %135, %693
  %695 = load <2 x double>, <2 x double>* %157, align 16, !tbaa !1
  %696 = fsub <2 x double> %695, %694
  store <2 x double> %696, <2 x double>* %157, align 16, !tbaa !1
  %697 = load <2 x double>, <2 x double>* %158, align 16, !tbaa !1
  %698 = fmul <2 x double> %135, %697
  %699 = load <2 x double>, <2 x double>* %159, align 16, !tbaa !1
  %700 = fsub <2 x double> %699, %698
  store <2 x double> %700, <2 x double>* %159, align 16, !tbaa !1
  call fastcc void @_ZL32CalcElemShapeFunctionDerivativesPKdS0_S0_PA8_dPd(double* %11, double* %12, double* %13, [8 x double]* %70, double* nonnull %detJ)
  %701 = load double, double* %detJ, align 8, !tbaa !1
  %702 = fdiv double 1.000000e+00, %701
  %703 = load double, double* %74, align 16, !tbaa !1
  %704 = bitcast <2 x double> %653 to i128
  %trunc = trunc i128 %704 to i64
  %bitcast = bitcast i64 %trunc to double
  %705 = extractelement <2 x double> %689, i32 0
  %706 = fsub double %bitcast, %705
  %707 = fmul double %703, %706
  %708 = load double, double* %78, align 8, !tbaa !1
  %709 = load double, double* %79, align 8, !tbaa !1
  %710 = extractelement <2 x double> %689, i32 1
  %711 = fsub double %709, %710
  %712 = fmul double %708, %711
  %713 = fadd double %707, %712
  %714 = load double, double* %81, align 16, !tbaa !1
  %715 = bitcast <2 x double> %665 to i128
  %trunc1 = trunc i128 %715 to i64
  %bitcast2 = bitcast i64 %trunc1 to double
  %716 = extractelement <2 x double> %677, i32 0
  %717 = fsub double %bitcast2, %716
  %718 = fmul double %714, %717
  %719 = fadd double %713, %718
  %720 = load double, double* %84, align 8, !tbaa !1
  %721 = extractelement <2 x double> %665, i32 1
  %722 = extractelement <2 x double> %677, i32 1
  %723 = fsub double %721, %722
  %724 = fmul double %720, %723
  %725 = fadd double %719, %724
  %726 = fmul double %702, %725
  %727 = load double, double* %75, align 16, !tbaa !1
  %728 = bitcast <2 x double> %657 to i128
  %trunc3 = trunc i128 %728 to i64
  %bitcast4 = bitcast i64 %trunc3 to double
  %729 = extractelement <2 x double> %693, i32 0
  %730 = fsub double %bitcast4, %729
  %731 = fmul double %727, %730
  %732 = load double, double* %88, align 8, !tbaa !1
  %733 = load double, double* %89, align 8, !tbaa !1
  %734 = extractelement <2 x double> %693, i32 1
  %735 = fsub double %733, %734
  %736 = fmul double %732, %735
  %737 = fadd double %731, %736
  %738 = load double, double* %91, align 16, !tbaa !1
  %739 = bitcast <2 x double> %669 to i128
  %trunc5 = trunc i128 %739 to i64
  %bitcast6 = bitcast i64 %trunc5 to double
  %740 = extractelement <2 x double> %681, i32 0
  %741 = fsub double %bitcast6, %740
  %742 = fmul double %738, %741
  %743 = fadd double %737, %742
  %744 = load double, double* %94, align 8, !tbaa !1
  %745 = load double, double* %95, align 8, !tbaa !1
  %746 = extractelement <2 x double> %681, i32 1
  %747 = fsub double %745, %746
  %748 = fmul double %744, %747
  %749 = fadd double %743, %748
  %750 = fmul double %702, %749
  %751 = load double, double* %76, align 16, !tbaa !1
  %752 = load double, double* %73, align 16, !tbaa !1
  %753 = extractelement <2 x double> %697, i32 0
  %754 = fsub double %752, %753
  %755 = fmul double %751, %754
  %756 = load double, double* %98, align 8, !tbaa !1
  %757 = load double, double* %99, align 8, !tbaa !1
  %758 = extractelement <2 x double> %697, i32 1
  %759 = fsub double %757, %758
  %760 = fmul double %756, %759
  %761 = fadd double %755, %760
  %762 = load double, double* %101, align 16, !tbaa !1
  %763 = load double, double* %102, align 16, !tbaa !1
  %764 = bitcast <2 x double> %685 to i128
  %trunc7 = trunc i128 %764 to i64
  %bitcast8 = bitcast i64 %trunc7 to double
  %765 = fsub double %763, %bitcast8
  %766 = fmul double %762, %765
  %767 = fadd double %761, %766
  %768 = load double, double* %104, align 8, !tbaa !1
  %769 = load double, double* %105, align 8, !tbaa !1
  %770 = extractelement <2 x double> %685, i32 1
  %771 = fsub double %769, %770
  %772 = fmul double %768, %771
  %773 = fadd double %767, %772
  %774 = fmul double %702, %773
  %775 = load double*, double** %107, align 8, !tbaa !9
  %776 = getelementptr inbounds double, double* %775, i64 %indvars.iv9
  store double %726, double* %776, align 8, !tbaa !1
  %777 = load double*, double** %108, align 8, !tbaa !9
  %778 = getelementptr inbounds double, double* %777, i64 %indvars.iv9
  store double %750, double* %778, align 8, !tbaa !1
  %779 = load double*, double** %109, align 8, !tbaa !9
  %780 = getelementptr inbounds double, double* %779, i64 %indvars.iv9
  store double %774, double* %780, align 8, !tbaa !1
  call void @llvm.lifetime.end(i64 8, i8* %9) #2
  call void @llvm.lifetime.end(i64 64, i8* %8) #2
  call void @llvm.lifetime.end(i64 64, i8* %7) #2
  call void @llvm.lifetime.end(i64 64, i8* %6) #2
  call void @llvm.lifetime.end(i64 64, i8* %5) #2
  call void @llvm.lifetime.end(i64 64, i8* %4) #2
  call void @llvm.lifetime.end(i64 64, i8* %3) #2
  call void @llvm.lifetime.end(i64 192, i8* %2) #2
  %indvars.iv.next10 = add nuw nsw i64 %indvars.iv9, 1
  %lftr.wideiv = trunc i64 %indvars.iv.next10 to i32
  %exitcond11 = icmp eq i32 %lftr.wideiv, %numElem
  br i1 %exitcond11, label %._crit_edge.loopexit, label %.preheader12
}

; Function Attrs: argmemonly nounwind
declare void @llvm.lifetime.start(i64, i8* nocapture) #5

; Function Attrs: nounwind
declare double @sqrt(double) #6

; Function Attrs: argmemonly nounwind
declare void @llvm.lifetime.end(i64, i8* nocapture) #5

; Function Attrs: inlinehint norecurse nounwind uwtable
define internal fastcc void @_ZL32CalcElemShapeFunctionDerivativesPKdS0_S0_PA8_dPd(double* nocapture readonly %x, double* nocapture readonly %y, double* nocapture readonly %z, [8 x double]* %b, double* nocapture %volume) unnamed_addr #7 {
  %1 = load double, double* %x, align 8, !tbaa !1
  %2 = getelementptr inbounds double, double* %x, i64 1
  %3 = load double, double* %2, align 8, !tbaa !1
  %4 = getelementptr inbounds double, double* %x, i64 2
  %5 = load double, double* %4, align 8, !tbaa !1
  %6 = getelementptr inbounds double, double* %x, i64 3
  %7 = load double, double* %6, align 8, !tbaa !1
  %8 = getelementptr inbounds double, double* %x, i64 4
  %9 = load double, double* %8, align 8, !tbaa !1
  %10 = getelementptr inbounds double, double* %x, i64 5
  %11 = load double, double* %10, align 8, !tbaa !1
  %12 = getelementptr inbounds double, double* %x, i64 6
  %13 = load double, double* %12, align 8, !tbaa !1
  %14 = getelementptr inbounds double, double* %x, i64 7
  %15 = load double, double* %14, align 8, !tbaa !1
  %16 = load double, double* %y, align 8, !tbaa !1
  %17 = getelementptr inbounds double, double* %y, i64 1
  %18 = load double, double* %17, align 8, !tbaa !1
  %19 = getelementptr inbounds double, double* %y, i64 2
  %20 = load double, double* %19, align 8, !tbaa !1
  %21 = getelementptr inbounds double, double* %y, i64 3
  %22 = load double, double* %21, align 8, !tbaa !1
  %23 = getelementptr inbounds double, double* %y, i64 4
  %24 = load double, double* %23, align 8, !tbaa !1
  %25 = getelementptr inbounds double, double* %y, i64 5
  %26 = load double, double* %25, align 8, !tbaa !1
  %27 = getelementptr inbounds double, double* %y, i64 6
  %28 = load double, double* %27, align 8, !tbaa !1
  %29 = getelementptr inbounds double, double* %y, i64 7
  %30 = load double, double* %29, align 8, !tbaa !1
  %31 = load double, double* %z, align 8, !tbaa !1
  %32 = getelementptr inbounds double, double* %z, i64 1
  %33 = load double, double* %32, align 8, !tbaa !1
  %34 = getelementptr inbounds double, double* %z, i64 2
  %35 = load double, double* %34, align 8, !tbaa !1
  %36 = getelementptr inbounds double, double* %z, i64 3
  %37 = load double, double* %36, align 8, !tbaa !1
  %38 = getelementptr inbounds double, double* %z, i64 4
  %39 = load double, double* %38, align 8, !tbaa !1
  %40 = getelementptr inbounds double, double* %z, i64 5
  %41 = load double, double* %40, align 8, !tbaa !1
  %42 = getelementptr inbounds double, double* %z, i64 6
  %43 = load double, double* %42, align 8, !tbaa !1
  %44 = getelementptr inbounds double, double* %z, i64 7
  %45 = load double, double* %44, align 8, !tbaa !1
  %46 = fsub double %13, %1
  %47 = fsub double %11, %7
  %48 = fadd double %47, %46
  %49 = fsub double %15, %3
  %50 = fsub double %48, %49
  %51 = fsub double %9, %5
  %52 = fsub double %50, %51
  %53 = fmul double %52, 1.250000e-01
  %54 = fsub double %46, %47
  %55 = fadd double %54, %49
  %56 = fsub double %55, %51
  %57 = fmul double %56, 1.250000e-01
  %58 = fadd double %48, %49
  %59 = fadd double %51, %58
  %60 = fmul double %59, 1.250000e-01
  %61 = fsub double %28, %16
  %62 = fsub double %26, %22
  %63 = fadd double %62, %61
  %64 = fsub double %30, %18
  %65 = fsub double %63, %64
  %66 = fsub double %24, %20
  %67 = fsub double %65, %66
  %68 = fmul double %67, 1.250000e-01
  %69 = fsub double %61, %62
  %70 = fadd double %69, %64
  %71 = fsub double %70, %66
  %72 = fmul double %71, 1.250000e-01
  %73 = fadd double %63, %64
  %74 = fadd double %66, %73
  %75 = fmul double %74, 1.250000e-01
  %76 = fsub double %43, %31
  %77 = fsub double %41, %37
  %78 = fadd double %77, %76
  %79 = fsub double %45, %33
  %80 = fsub double %78, %79
  %81 = fsub double %39, %35
  %82 = fsub double %80, %81
  %83 = fmul double %82, 1.250000e-01
  %84 = fsub double %76, %77
  %85 = fadd double %84, %79
  %86 = fsub double %85, %81
  %87 = fmul double %86, 1.250000e-01
  %88 = fadd double %78, %79
  %89 = fadd double %81, %88
  %90 = fmul double %89, 1.250000e-01
  %91 = fmul double %72, %90
  %92 = fmul double %75, %87
  %93 = fsub double %91, %92
  %94 = fmul double %68, %90
  %95 = fmul double %75, %83
  %96 = fsub double %95, %94
  %97 = fmul double %68, %87
  %98 = fmul double %72, %83
  %99 = fsub double %97, %98
  %100 = fmul double %57, %90
  %101 = fmul double %60, %87
  %102 = fsub double %101, %100
  %103 = fmul double %53, %90
  %104 = fmul double %60, %83
  %105 = fsub double %103, %104
  %106 = fmul double %53, %87
  %107 = fmul double %57, %83
  %108 = fsub double %107, %106
  %109 = fmul double %57, %75
  %110 = fmul double %60, %72
  %111 = fsub double %109, %110
  %112 = fmul double %53, %75
  %113 = fmul double %60, %68
  %114 = fsub double %113, %112
  %115 = fmul double %53, %72
  %116 = fmul double %57, %68
  %117 = fsub double %115, %116
  %118 = fsub double -0.000000e+00, %93
  %119 = insertelement <2 x double> undef, double %118, i32 0
  %120 = insertelement <2 x double> %119, double %93, i32 1
  %121 = insertelement <2 x double> undef, double %96, i32 0
  %122 = insertelement <2 x double> %121, double %96, i32 1
  %123 = fsub <2 x double> %120, %122
  %124 = insertelement <2 x double> undef, double %99, i32 0
  %125 = insertelement <2 x double> %124, double %99, i32 1
  %126 = fsub <2 x double> %123, %125
  %127 = bitcast [8 x double]* %b to <2 x double>*
  store <2 x double> %126, <2 x double>* %127, align 8, !tbaa !1
  %128 = fadd double %93, %96
  %129 = fsub double %128, %99
  %130 = getelementptr inbounds [8 x double], [8 x double]* %b, i64 0, i64 2
  store double %129, double* %130, align 8, !tbaa !1
  %131 = fsub double %96, %93
  %132 = getelementptr inbounds [8 x double], [8 x double]* %b, i64 0, i64 3
  %133 = insertelement <2 x double> undef, double %131, i32 0
  %134 = insertelement <2 x double> %133, double -0.000000e+00, i32 1
  %135 = insertelement <2 x double> %124, double %129, i32 1
  %136 = fsub <2 x double> %134, %135
  %137 = bitcast double* %132 to <2 x double>*
  store <2 x double> %136, <2 x double>* %137, align 8, !tbaa !1
  %138 = getelementptr inbounds [8 x double], [8 x double]* %b, i64 0, i64 5
  %139 = shufflevector <2 x double> %136, <2 x double> %126, <2 x i32> <i32 0, i32 2>
  %140 = fsub <2 x double> <double -0.000000e+00, double -0.000000e+00>, %139
  %141 = bitcast double* %138 to <2 x double>*
  store <2 x double> %140, <2 x double>* %141, align 8, !tbaa !1
  %142 = extractelement <2 x double> %126, i32 1
  %143 = fsub double -0.000000e+00, %142
  %144 = getelementptr inbounds [8 x double], [8 x double]* %b, i64 0, i64 7
  store double %143, double* %144, align 8, !tbaa !1
  %145 = fsub double -0.000000e+00, %102
  %146 = getelementptr inbounds [8 x double], [8 x double]* %b, i64 1, i64 0
  %147 = insertelement <2 x double> undef, double %145, i32 0
  %148 = insertelement <2 x double> %147, double %102, i32 1
  %149 = insertelement <2 x double> undef, double %105, i32 0
  %150 = insertelement <2 x double> %149, double %105, i32 1
  %151 = fsub <2 x double> %148, %150
  %152 = insertelement <2 x double> undef, double %108, i32 0
  %153 = insertelement <2 x double> %152, double %108, i32 1
  %154 = fsub <2 x double> %151, %153
  %155 = bitcast double* %146 to <2 x double>*
  store <2 x double> %154, <2 x double>* %155, align 8, !tbaa !1
  %156 = fadd double %102, %105
  %157 = fsub double %156, %108
  %158 = getelementptr inbounds [8 x double], [8 x double]* %b, i64 1, i64 2
  store double %157, double* %158, align 8, !tbaa !1
  %159 = fsub double %105, %102
  %160 = getelementptr inbounds [8 x double], [8 x double]* %b, i64 1, i64 3
  %161 = insertelement <2 x double> undef, double %159, i32 0
  %162 = insertelement <2 x double> %161, double -0.000000e+00, i32 1
  %163 = insertelement <2 x double> %152, double %157, i32 1
  %164 = fsub <2 x double> %162, %163
  %165 = bitcast double* %160 to <2 x double>*
  store <2 x double> %164, <2 x double>* %165, align 8, !tbaa !1
  %166 = getelementptr inbounds [8 x double], [8 x double]* %b, i64 1, i64 5
  %167 = shufflevector <2 x double> %164, <2 x double> %154, <2 x i32> <i32 0, i32 2>
  %168 = fsub <2 x double> <double -0.000000e+00, double -0.000000e+00>, %167
  %169 = bitcast double* %166 to <2 x double>*
  store <2 x double> %168, <2 x double>* %169, align 8, !tbaa !1
  %170 = extractelement <2 x double> %154, i32 1
  %171 = fsub double -0.000000e+00, %170
  %172 = getelementptr inbounds [8 x double], [8 x double]* %b, i64 1, i64 7
  store double %171, double* %172, align 8, !tbaa !1
  %173 = fsub double -0.000000e+00, %111
  %174 = getelementptr inbounds [8 x double], [8 x double]* %b, i64 2, i64 0
  %175 = insertelement <2 x double> undef, double %173, i32 0
  %176 = insertelement <2 x double> %175, double %111, i32 1
  %177 = insertelement <2 x double> undef, double %114, i32 0
  %178 = insertelement <2 x double> %177, double %114, i32 1
  %179 = fsub <2 x double> %176, %178
  %180 = insertelement <2 x double> undef, double %117, i32 0
  %181 = insertelement <2 x double> %180, double %117, i32 1
  %182 = fsub <2 x double> %179, %181
  %183 = bitcast double* %174 to <2 x double>*
  store <2 x double> %182, <2 x double>* %183, align 8, !tbaa !1
  %184 = fadd double %111, %114
  %185 = fsub double %184, %117
  %186 = getelementptr inbounds [8 x double], [8 x double]* %b, i64 2, i64 2
  store double %185, double* %186, align 8, !tbaa !1
  %187 = fsub double %114, %111
  %188 = getelementptr inbounds [8 x double], [8 x double]* %b, i64 2, i64 3
  %189 = insertelement <2 x double> undef, double %187, i32 0
  %190 = insertelement <2 x double> %189, double -0.000000e+00, i32 1
  %191 = insertelement <2 x double> %180, double %185, i32 1
  %192 = fsub <2 x double> %190, %191
  %193 = bitcast double* %188 to <2 x double>*
  store <2 x double> %192, <2 x double>* %193, align 8, !tbaa !1
  %194 = getelementptr inbounds [8 x double], [8 x double]* %b, i64 2, i64 5
  %195 = shufflevector <2 x double> %192, <2 x double> %182, <2 x i32> <i32 0, i32 2>
  %196 = fsub <2 x double> <double -0.000000e+00, double -0.000000e+00>, %195
  %197 = bitcast double* %194 to <2 x double>*
  store <2 x double> %196, <2 x double>* %197, align 8, !tbaa !1
  %198 = extractelement <2 x double> %182, i32 1
  %199 = fsub double -0.000000e+00, %198
  %200 = getelementptr inbounds [8 x double], [8 x double]* %b, i64 2, i64 7
  store double %199, double* %200, align 8, !tbaa !1
  %201 = fmul double %57, %96
  %202 = fmul double %72, %105
  %203 = fadd double %201, %202
  %204 = fmul double %114, %87
  %205 = fadd double %204, %203
  %206 = fmul double %205, 8.000000e+00
  store double %206, double* %volume, align 8, !tbaa !1
  ret void
}

; Function Attrs: norecurse uwtable
define i32 @main(i32 %argc, i8** %argv) #8 personality i8* bitcast (i32 (...)* @__gxx_personality_v0 to i8*) {
  %opts = alloca %struct.cmdLineOpts, align 16
  %col = alloca i32, align 4
  %row = alloca i32, align 4
  %plane = alloca i32, align 4
  %side = alloca i32, align 4
  %start = alloca %struct.timeval, align 8
  %end = alloca %struct.timeval, align 8
  %1 = bitcast %struct.cmdLineOpts* %opts to i8*
  call void @llvm.lifetime.start(i64 36, i8* %1) #2
  %2 = getelementptr inbounds %struct.cmdLineOpts, %struct.cmdLineOpts* %opts, i64 0, i32 0
  %3 = getelementptr inbounds %struct.cmdLineOpts, %struct.cmdLineOpts* %opts, i64 0, i32 1
  %4 = getelementptr inbounds %struct.cmdLineOpts, %struct.cmdLineOpts* %opts, i64 0, i32 2
  %5 = getelementptr inbounds %struct.cmdLineOpts, %struct.cmdLineOpts* %opts, i64 0, i32 3
  %6 = bitcast %struct.cmdLineOpts* %opts to <4 x i32>*
  store <4 x i32> <i32 9999999, i32 30, i32 11, i32 1>, <4 x i32>* %6, align 16, !tbaa !12
  %7 = getelementptr inbounds %struct.cmdLineOpts, %struct.cmdLineOpts* %opts, i64 0, i32 4
  %8 = getelementptr inbounds %struct.cmdLineOpts, %struct.cmdLineOpts* %opts, i64 0, i32 5
  %9 = getelementptr inbounds %struct.cmdLineOpts, %struct.cmdLineOpts* %opts, i64 0, i32 6
  %10 = getelementptr inbounds %struct.cmdLineOpts, %struct.cmdLineOpts* %opts, i64 0, i32 8
  store i32 1, i32* %10, align 16, !tbaa !14
  %11 = getelementptr inbounds %struct.cmdLineOpts, %struct.cmdLineOpts* %opts, i64 0, i32 7
  %12 = bitcast i32* %7 to <4 x i32>*
  store <4 x i32> <i32 0, i32 0, i32 0, i32 1>, <4 x i32>* %12, align 16, !tbaa !12
  call void @_Z23ParseCommandLineOptionsiPPciP11cmdLineOpts(i32 %argc, i8** %argv, i32 0, %struct.cmdLineOpts* nonnull %opts)
  %13 = load i32, i32* %8, align 4, !tbaa !16
  %14 = icmp eq i32 %13, 0
  br i1 %14, label %15, label %._crit_edge1

._crit_edge1:                                     ; preds = %0
  %.pre2 = load i32, i32* %3, align 4, !tbaa !17
  br label %23

; <label>:15                                      ; preds = %0
  %16 = load i32, i32* %3, align 4, !tbaa !17
  %17 = call i32 (i8*, ...) @printf(i8* nonnull getelementptr inbounds ([55 x i8], [55 x i8]* @.str, i64 0, i64 0), i32 %16)
  %18 = call i32 (i8*, ...) @printf(i8* nonnull getelementptr inbounds ([20 x i8], [20 x i8]* @.str.1, i64 0, i64 0), i32 1)
  %19 = mul nsw i32 %16, %16
  %20 = mul nsw i32 %19, %16
  %21 = sext i32 %20 to i64
  %22 = call i32 (i8*, ...) @printf(i8* nonnull getelementptr inbounds ([33 x i8], [33 x i8]* @.str.2, i64 0, i64 0), i64 %21)
  %puts = call i32 @puts(i8* nonnull getelementptr inbounds ([38 x i8], [38 x i8]* @str, i64 0, i64 0))
  %puts2 = call i32 @puts(i8* nonnull getelementptr inbounds ([55 x i8], [55 x i8]* @str.14, i64 0, i64 0))
  %puts3 = call i32 @puts(i8* nonnull getelementptr inbounds ([61 x i8], [61 x i8]* @str.15, i64 0, i64 0))
  %puts4 = call i32 @puts(i8* nonnull getelementptr inbounds ([59 x i8], [59 x i8]* @str.16, i64 0, i64 0))
  %puts5 = call i32 @puts(i8* nonnull getelementptr inbounds ([30 x i8], [30 x i8]* @str.17, i64 0, i64 0))
  %puts6 = call i32 @puts(i8* nonnull getelementptr inbounds ([42 x i8], [42 x i8]* @str.18, i64 0, i64 0))
  %puts7 = call i32 @puts(i8* nonnull getelementptr inbounds ([32 x i8], [32 x i8]* @str.19, i64 0, i64 0))
  br label %23

; <label>:23                                      ; preds = %._crit_edge1, %15
  %24 = phi i32 [ %.pre2, %._crit_edge1 ], [ %16, %15 ]
  %25 = bitcast i32* %col to i8*
  call void @llvm.lifetime.start(i64 4, i8* %25) #2
  %26 = bitcast i32* %row to i8*
  call void @llvm.lifetime.start(i64 4, i8* %26) #2
  %27 = bitcast i32* %plane to i8*
  call void @llvm.lifetime.start(i64 4, i8* %27) #2
  %28 = bitcast i32* %side to i8*
  call void @llvm.lifetime.start(i64 4, i8* %28) #2
  call void @_Z14InitMeshDecompiiPiS_S_S_(i32 1, i32 0, i32* nonnull %col, i32* nonnull %row, i32* nonnull %plane, i32* nonnull %side)
  %29 = call noalias i8* @_Znwm(i64 1456) #18
  %30 = bitcast i8* %29 to %class.Domain*
  %31 = load i32, i32* %col, align 4, !tbaa !12
  %32 = load i32, i32* %row, align 4, !tbaa !12
  %33 = load i32, i32* %plane, align 4, !tbaa !12
  %34 = load i32, i32* %side, align 4, !tbaa !12
  %35 = bitcast i32* %4 to i64*
  %36 = load i64, i64* %35, align 8
  %37 = trunc i64 %36 to i32
  %38 = load i32, i32* %10, align 16, !tbaa !14
  %39 = load i32, i32* %11, align 4, !tbaa !18
  %40 = lshr i64 %36, 32
  %41 = trunc i64 %40 to i32
  invoke void @_ZN6DomainC1Eiiiiiiiii(%class.Domain* %30, i32 1, i32 %31, i32 %32, i32 %33, i32 %24, i32 %34, i32 %37, i32 %38, i32 %39)
          to label %42 unwind label %136

; <label>:42                                      ; preds = %23
  %43 = bitcast %struct.timeval* %start to i8*
  call void @llvm.lifetime.start(i64 16, i8* %43) #2
  %44 = call i32 @gettimeofday(%struct.timeval* nonnull %start, %struct.timezone* null) #2
  %45 = getelementptr inbounds i8, i8* %29, i64 1304
  %46 = bitcast i8* %45 to i32*
  %47 = getelementptr inbounds i8, i8* %29, i64 1320
  %48 = bitcast i8* %47 to double*
  %49 = load double, double* %48, align 8, !tbaa !1
  %50 = getelementptr inbounds i8, i8* %29, i64 1360
  %51 = bitcast i8* %50 to double*
  %52 = load double, double* %51, align 8, !tbaa !1
  %53 = fcmp olt double %49, %52
  br i1 %53, label %.lr.ph, label %.critedge

.lr.ph:                                           ; preds = %42
  %54 = getelementptr inbounds i8, i8* %29, i64 1312
  %55 = bitcast i8* %54 to double*
  %56 = getelementptr inbounds i8, i8* %29, i64 1328
  %57 = bitcast i8* %56 to double*
  %58 = getelementptr inbounds i8, i8* %29, i64 1288
  %59 = bitcast i8* %58 to double*
  %60 = getelementptr inbounds i8, i8* %29, i64 1296
  %61 = bitcast i8* %60 to double*
  %62 = getelementptr inbounds i8, i8* %29, i64 1352
  %63 = bitcast i8* %62 to double*
  %64 = getelementptr inbounds i8, i8* %29, i64 1336
  %65 = bitcast i8* %64 to double*
  %66 = getelementptr inbounds i8, i8* %29, i64 1344
  %67 = bitcast i8* %66 to double*
  %68 = bitcast i32* %2 to i64*
  %.pre3 = load i64, i64* %68, align 16
  %69 = trunc i64 %.pre3 to i32
  %70 = lshr i64 %.pre3, 32
  %71 = trunc i64 %70 to i32
  br label %72

; <label>:72                                      ; preds = %.backedge, %.lr.ph
  %73 = phi i32 [ %13, %.lr.ph ], [ %126, %.backedge ]
  %74 = phi double [ %52, %.lr.ph ], [ %134, %.backedge ]
  %75 = phi double [ %49, %.lr.ph ], [ %133, %.backedge ]
  %76 = load i32, i32* %46, align 4, !tbaa !12
  %77 = icmp slt i32 %76, %69
  br i1 %77, label %78, label %.critedge.loopexit

; <label>:78                                      ; preds = %72
  %79 = fsub double %74, %75
  %80 = load double, double* %55, align 8, !tbaa !1
  %81 = fcmp ugt double %80, 0.000000e+00
  %82 = icmp eq i32 %76, 0
  %or.cond9 = or i1 %82, %81
  %.pre = load double, double* %57, align 8, !tbaa !1
  br i1 %or.cond9, label %._crit_edge, label %83

; <label>:83                                      ; preds = %78
  %84 = load double, double* %59, align 8, !tbaa !1
  %85 = fcmp olt double %84, 1.000000e+20
  %86 = fmul double %84, 5.000000e-01
  %gnewdt.0.i = select i1 %85, double %86, double 1.000000e+20
  %87 = load double, double* %61, align 8, !tbaa !1
  %88 = fcmp olt double %87, %gnewdt.0.i
  br i1 %88, label %89, label %92

; <label>:89                                      ; preds = %83
  %90 = fmul double %87, 2.000000e+00
  %91 = fdiv double %90, 3.000000e+00
  br label %92

; <label>:92                                      ; preds = %89, %83
  %gnewdt.1.i = phi double [ %91, %89 ], [ %gnewdt.0.i, %83 ]
  %93 = fdiv double %gnewdt.1.i, %.pre
  %94 = fcmp ult double %93, 1.000000e+00
  br i1 %94, label %103, label %95

; <label>:95                                      ; preds = %92
  %96 = load double, double* %65, align 8, !tbaa !1
  %97 = fcmp olt double %93, %96
  br i1 %97, label %103, label %98

; <label>:98                                      ; preds = %95
  %99 = load double, double* %67, align 8, !tbaa !1
  %100 = fcmp ogt double %93, %99
  br i1 %100, label %101, label %103

; <label>:101                                     ; preds = %98
  %102 = fmul double %.pre, %99
  br label %103

; <label>:103                                     ; preds = %101, %98, %95, %92
  %newdt.0.i = phi double [ %102, %101 ], [ %gnewdt.1.i, %98 ], [ %gnewdt.1.i, %92 ], [ %.pre, %95 ]
  %104 = load double, double* %63, align 8, !tbaa !1
  %105 = fcmp ogt double %newdt.0.i, %104
  %newdt.1.i = select i1 %105, double %104, double %newdt.0.i
  store double %newdt.1.i, double* %57, align 8, !tbaa !1
  br label %._crit_edge

._crit_edge:                                      ; preds = %103, %78
  %106 = phi double [ %newdt.1.i, %103 ], [ %.pre, %78 ]
  %107 = fcmp ogt double %79, %106
  br i1 %107, label %108, label %115

; <label>:108                                     ; preds = %._crit_edge
  %109 = fmul double %106, 4.000000e+00
  %110 = fdiv double %109, 3.000000e+00
  %111 = fcmp olt double %79, %110
  br i1 %111, label %112, label %115

; <label>:112                                     ; preds = %108
  %113 = fmul double %106, 2.000000e+00
  %114 = fdiv double %113, 3.000000e+00
  br label %115

; <label>:115                                     ; preds = %112, %108, %._crit_edge
  %targetdt.0.i = phi double [ %114, %112 ], [ %79, %108 ], [ %79, %._crit_edge ]
  %116 = fcmp olt double %targetdt.0.i, %106
  br i1 %116, label %117, label %_ZL13TimeIncrementR6Domain.exit

; <label>:117                                     ; preds = %115
  store double %targetdt.0.i, double* %57, align 8, !tbaa !1
  br label %_ZL13TimeIncrementR6Domain.exit

_ZL13TimeIncrementR6Domain.exit:                  ; preds = %117, %115
  %118 = phi double [ %targetdt.0.i, %117 ], [ %106, %115 ]
  %119 = fadd double %75, %118
  store double %119, double* %48, align 8, !tbaa !1
  %120 = add nsw i32 %76, 1
  store i32 %120, i32* %46, align 4, !tbaa !12
  call fastcc void @_ZL16LagrangeLeapFrogR6Domain(%class.Domain* nonnull dereferenceable(1456) %30)
  %121 = bitcast i32* %7 to i64*
  %122 = load i64, i64* %121, align 16
  %123 = trunc i64 %122 to i32
  %124 = icmp ne i32 %123, 0
  %125 = lshr i64 %122, 32
  %126 = trunc i64 %125 to i32
  %127 = icmp eq i32 %126, 0
  %or.cond = and i1 %124, %127
  br i1 %or.cond, label %128, label %.backedge

; <label>:128                                     ; preds = %_ZL13TimeIncrementR6Domain.exit
  %129 = load i32, i32* %46, align 4, !tbaa !12
  %130 = load double, double* %48, align 8, !tbaa !1
  %131 = load double, double* %57, align 8, !tbaa !1
  %132 = call i32 (i8*, ...) @printf(i8* nonnull getelementptr inbounds ([30 x i8], [30 x i8]* @.str.10, i64 0, i64 0), i32 %129, double %130, double %131)
  br label %.backedge

.backedge:                                        ; preds = %128, %_ZL13TimeIncrementR6Domain.exit
  %133 = load double, double* %48, align 8, !tbaa !1
  %134 = load double, double* %51, align 8, !tbaa !1
  %135 = fcmp olt double %133, %134
  br i1 %135, label %72, label %.critedge.loopexit

; <label>:136                                     ; preds = %23
  %137 = landingpad { i8*, i32 }
          cleanup
  call void @_ZdlPv(i8* nonnull %29) #19
  resume { i8*, i32 } %137

.critedge.loopexit:                               ; preds = %.backedge, %72
  %138 = phi i32 [ %126, %.backedge ], [ %73, %72 ]
  br label %.critedge

.critedge:                                        ; preds = %.critedge.loopexit, %42
  %139 = phi i32 [ %71, %.critedge.loopexit ], [ %24, %42 ]
  %140 = phi i32 [ %138, %.critedge.loopexit ], [ %13, %42 ]
  %141 = bitcast %struct.timeval* %end to i8*
  call void @llvm.lifetime.start(i64 16, i8* %141) #2
  %142 = call i32 @gettimeofday(%struct.timeval* nonnull %end, %struct.timezone* null) #2
  %143 = getelementptr inbounds %struct.timeval, %struct.timeval* %end, i64 0, i32 0
  %144 = load i64, i64* %143, align 8, !tbaa !19
  %145 = getelementptr inbounds %struct.timeval, %struct.timeval* %start, i64 0, i32 0
  %146 = load i64, i64* %145, align 8, !tbaa !19
  %147 = sub nsw i64 %144, %146
  %148 = sitofp i64 %147 to double
  %149 = getelementptr inbounds %struct.timeval, %struct.timeval* %end, i64 0, i32 1
  %150 = load i64, i64* %149, align 8, !tbaa !22
  %151 = getelementptr inbounds %struct.timeval, %struct.timeval* %start, i64 0, i32 1
  %152 = load i64, i64* %151, align 8, !tbaa !22
  %153 = sub nsw i64 %150, %152
  %154 = sitofp i64 %153 to double
  %155 = fdiv double %154, 1.000000e+06
  %156 = fadd double %148, %155
  %157 = load i32, i32* %9, align 8, !tbaa !23
  %158 = icmp eq i32 %157, 0
  br i1 %158, label %160, label %159

; <label>:159                                     ; preds = %.critedge
  call void @_Z11DumpToVisitR6Domainiii(%class.Domain* nonnull dereferenceable(1456) %30, i32 %41, i32 0, i32 1)
  br label %160

; <label>:160                                     ; preds = %159, %.critedge
  %161 = icmp eq i32 %140, 0
  br i1 %161, label %162, label %163

; <label>:162                                     ; preds = %160
  call void @_Z25VerifyAndWriteFinalOutputdR6Domainii(double %156, %class.Domain* nonnull dereferenceable(1456) %30, i32 %139, i32 1)
  br label %163

; <label>:163                                     ; preds = %162, %160
  call void @llvm.lifetime.end(i64 16, i8* %141) #2
  call void @llvm.lifetime.end(i64 16, i8* nonnull %43) #2
  call void @llvm.lifetime.end(i64 4, i8* %28) #2
  call void @llvm.lifetime.end(i64 4, i8* %27) #2
  call void @llvm.lifetime.end(i64 4, i8* %26) #2
  call void @llvm.lifetime.end(i64 4, i8* %25) #2
  call void @llvm.lifetime.end(i64 36, i8* nonnull %1) #2
  ret i32 0
}

declare i32 @__gxx_personality_v0(...)

; Function Attrs: nounwind
declare i32 @printf(i8* nocapture readonly, ...) #6

; Function Attrs: nounwind
declare i32 @puts(i8* nocapture) #2

; Function Attrs: nobuiltin
declare noalias nonnull i8* @_Znwm(i64) #9

; Function Attrs: nounwind
declare i32 @gettimeofday(%struct.timeval* nocapture, %struct.timezone* nocapture) #6

; Function Attrs: inlinehint norecurse uwtable
define internal fastcc void @_ZL16LagrangeLeapFrogR6Domain(%class.Domain* dereferenceable(1456) %domain) unnamed_addr #10 {
  %gamma.i.i.i.i.i = alloca [4 x [8 x double]], align 16
  %hourgam.i.i.i.i.i = alloca [8 x [4 x double]], align 16
  %B.i.i.i.i = alloca [3 x [8 x double]], align 16
  %x_local.i.i.i.i = alloca [8 x double], align 16
  %y_local.i.i.i.i = alloca [8 x double], align 16
  %z_local.i.i.i.i = alloca [8 x double], align 16
  %1 = getelementptr inbounds %class.Domain, %class.Domain* %domain, i64 0, i32 75
  %2 = load double, double* %1, align 8, !tbaa !1
  %3 = getelementptr inbounds %class.Domain, %class.Domain* %domain, i64 0, i32 55
  %4 = load double, double* %3, align 8, !tbaa !24
  %5 = getelementptr inbounds %class.Domain, %class.Domain* %domain, i64 0, i32 89
  %6 = load i32, i32* %5, align 4, !tbaa !12
  %7 = icmp sgt i32 %6, 0
  br i1 %7, label %.lr.ph.i6.i, label %._crit_edge.i.i

.lr.ph.i6.i:                                      ; preds = %0
  %8 = getelementptr inbounds %class.Domain, %class.Domain* %domain, i64 0, i32 9, i32 0, i32 0, i32 0
  %9 = load double*, double** %8, align 8
  %10 = getelementptr inbounds %class.Domain, %class.Domain* %domain, i64 0, i32 10, i32 0, i32 0, i32 0
  %11 = load double*, double** %10, align 8
  %12 = getelementptr inbounds %class.Domain, %class.Domain* %domain, i64 0, i32 11, i32 0, i32 0, i32 0
  %13 = load double*, double** %12, align 8
  %14 = add i32 %6, -1
  %15 = zext i32 %14 to i64
  %16 = add nuw nsw i64 %15, 1
  %min.iters.check = icmp ult i64 %16, 4
  br i1 %min.iters.check, label %scalar.ph.preheader, label %min.iters.checked

scalar.ph.preheader:                              ; preds = %middle.block, %vector.memcheck, %min.iters.checked, %.lr.ph.i6.i
  %indvars.iv.i9.i.ph = phi i64 [ 0, %vector.memcheck ], [ 0, %min.iters.checked ], [ 0, %.lr.ph.i6.i ], [ %n.vec, %middle.block ]
  %17 = add i32 %6, 1
  %18 = or i64 %indvars.iv.i9.i.ph, 1
  %19 = trunc i64 %18 to i32
  %20 = sub i32 %17, %19
  %21 = sub i32 %6, %19
  %xtraiter344 = and i32 %20, 3
  %lcmp.mod345 = icmp eq i32 %xtraiter344, 0
  br i1 %lcmp.mod345, label %scalar.ph.preheader.split, label %scalar.ph.prol.preheader

scalar.ph.prol.preheader:                         ; preds = %scalar.ph.preheader
  br label %scalar.ph.prol

scalar.ph.prol:                                   ; preds = %scalar.ph.prol, %scalar.ph.prol.preheader
  %indvars.iv.i9.i.prol = phi i64 [ %indvars.iv.next.i10.i.prol, %scalar.ph.prol ], [ %indvars.iv.i9.i.ph, %scalar.ph.prol.preheader ]
  %prol.iter346 = phi i32 [ %prol.iter346.sub, %scalar.ph.prol ], [ %xtraiter344, %scalar.ph.prol.preheader ]
  %22 = getelementptr inbounds double, double* %9, i64 %indvars.iv.i9.i.prol
  store double 0.000000e+00, double* %22, align 8, !tbaa !1
  %23 = getelementptr inbounds double, double* %11, i64 %indvars.iv.i9.i.prol
  store double 0.000000e+00, double* %23, align 8, !tbaa !1
  %24 = getelementptr inbounds double, double* %13, i64 %indvars.iv.i9.i.prol
  store double 0.000000e+00, double* %24, align 8, !tbaa !1
  %indvars.iv.next.i10.i.prol = add nuw nsw i64 %indvars.iv.i9.i.prol, 1
  %prol.iter346.sub = add i32 %prol.iter346, -1
  %prol.iter346.cmp = icmp eq i32 %prol.iter346.sub, 0
  br i1 %prol.iter346.cmp, label %scalar.ph.preheader.split.loopexit, label %scalar.ph.prol, !llvm.loop !28

scalar.ph.preheader.split.loopexit:               ; preds = %scalar.ph.prol
  br label %scalar.ph.preheader.split

scalar.ph.preheader.split:                        ; preds = %scalar.ph.preheader.split.loopexit, %scalar.ph.preheader
  %indvars.iv.i9.i.unr = phi i64 [ %indvars.iv.i9.i.ph, %scalar.ph.preheader ], [ %indvars.iv.next.i10.i.prol, %scalar.ph.preheader.split.loopexit ]
  %25 = icmp ult i32 %21, 3
  br i1 %25, label %._crit_edge.i.i.loopexit, label %scalar.ph.preheader.split.split

scalar.ph.preheader.split.split:                  ; preds = %scalar.ph.preheader.split
  br label %scalar.ph

min.iters.checked:                                ; preds = %.lr.ph.i6.i
  %n.vec = and i64 %16, 8589934588
  %cmp.zero = icmp eq i64 %n.vec, 0
  br i1 %cmp.zero, label %scalar.ph.preheader, label %vector.memcheck

vector.memcheck:                                  ; preds = %min.iters.checked
  %scevgep = getelementptr double, double* %9, i64 %15
  %scevgep123 = getelementptr double, double* %11, i64 %15
  %scevgep125 = getelementptr double, double* %13, i64 %15
  %bound0 = icmp ule double* %9, %scevgep123
  %bound1 = icmp ule double* %11, %scevgep
  %found.conflict = and i1 %bound0, %bound1
  %bound0127 = icmp ule double* %9, %scevgep125
  %bound1128 = icmp ule double* %13, %scevgep
  %found.conflict129 = and i1 %bound0127, %bound1128
  %conflict.rdx = or i1 %found.conflict, %found.conflict129
  %bound0130 = icmp ule double* %11, %scevgep125
  %bound1131 = icmp ule double* %13, %scevgep123
  %found.conflict132 = and i1 %bound0130, %bound1131
  %conflict.rdx133 = or i1 %conflict.rdx, %found.conflict132
  br i1 %conflict.rdx133, label %scalar.ph.preheader, label %vector.body.preheader

vector.body.preheader:                            ; preds = %vector.memcheck
  %26 = add nsw i64 %n.vec, -4
  %27 = lshr exact i64 %26, 2
  %28 = and i64 %27, 1
  %lcmp.mod348 = icmp eq i64 %28, 0
  br i1 %lcmp.mod348, label %vector.body.prol, label %vector.body.preheader.split

vector.body.prol:                                 ; preds = %vector.body.preheader
  %29 = bitcast double* %9 to <2 x double>*
  store <2 x double> zeroinitializer, <2 x double>* %29, align 8, !tbaa !1
  %30 = getelementptr double, double* %9, i64 2
  %31 = bitcast double* %30 to <2 x double>*
  store <2 x double> zeroinitializer, <2 x double>* %31, align 8, !tbaa !1
  %32 = bitcast double* %11 to <2 x double>*
  store <2 x double> zeroinitializer, <2 x double>* %32, align 8, !tbaa !1
  %33 = getelementptr double, double* %11, i64 2
  %34 = bitcast double* %33 to <2 x double>*
  store <2 x double> zeroinitializer, <2 x double>* %34, align 8, !tbaa !1
  %35 = bitcast double* %13 to <2 x double>*
  store <2 x double> zeroinitializer, <2 x double>* %35, align 8, !tbaa !1
  %36 = getelementptr double, double* %13, i64 2
  %37 = bitcast double* %36 to <2 x double>*
  store <2 x double> zeroinitializer, <2 x double>* %37, align 8, !tbaa !1
  br label %vector.body.preheader.split

vector.body.preheader.split:                      ; preds = %vector.body.prol, %vector.body.preheader
  %index.unr = phi i64 [ 0, %vector.body.preheader ], [ 4, %vector.body.prol ]
  %38 = icmp eq i64 %27, 0
  br i1 %38, label %middle.block, label %vector.body.preheader.split.split

vector.body.preheader.split.split:                ; preds = %vector.body.preheader.split
  br label %vector.body

vector.body:                                      ; preds = %vector.body, %vector.body.preheader.split.split
  %index = phi i64 [ %index.unr, %vector.body.preheader.split.split ], [ %index.next.1, %vector.body ]
  %39 = getelementptr inbounds double, double* %9, i64 %index
  %40 = bitcast double* %39 to <2 x double>*
  store <2 x double> zeroinitializer, <2 x double>* %40, align 8, !tbaa !1
  %41 = getelementptr double, double* %39, i64 2
  %42 = bitcast double* %41 to <2 x double>*
  store <2 x double> zeroinitializer, <2 x double>* %42, align 8, !tbaa !1
  %43 = getelementptr inbounds double, double* %11, i64 %index
  %44 = bitcast double* %43 to <2 x double>*
  store <2 x double> zeroinitializer, <2 x double>* %44, align 8, !tbaa !1
  %45 = getelementptr double, double* %43, i64 2
  %46 = bitcast double* %45 to <2 x double>*
  store <2 x double> zeroinitializer, <2 x double>* %46, align 8, !tbaa !1
  %47 = getelementptr inbounds double, double* %13, i64 %index
  %48 = bitcast double* %47 to <2 x double>*
  store <2 x double> zeroinitializer, <2 x double>* %48, align 8, !tbaa !1
  %49 = getelementptr double, double* %47, i64 2
  %50 = bitcast double* %49 to <2 x double>*
  store <2 x double> zeroinitializer, <2 x double>* %50, align 8, !tbaa !1
  %index.next = add i64 %index, 4
  %51 = getelementptr inbounds double, double* %9, i64 %index.next
  %52 = bitcast double* %51 to <2 x double>*
  store <2 x double> zeroinitializer, <2 x double>* %52, align 8, !tbaa !1
  %53 = getelementptr double, double* %51, i64 2
  %54 = bitcast double* %53 to <2 x double>*
  store <2 x double> zeroinitializer, <2 x double>* %54, align 8, !tbaa !1
  %55 = getelementptr inbounds double, double* %11, i64 %index.next
  %56 = bitcast double* %55 to <2 x double>*
  store <2 x double> zeroinitializer, <2 x double>* %56, align 8, !tbaa !1
  %57 = getelementptr double, double* %55, i64 2
  %58 = bitcast double* %57 to <2 x double>*
  store <2 x double> zeroinitializer, <2 x double>* %58, align 8, !tbaa !1
  %59 = getelementptr inbounds double, double* %13, i64 %index.next
  %60 = bitcast double* %59 to <2 x double>*
  store <2 x double> zeroinitializer, <2 x double>* %60, align 8, !tbaa !1
  %61 = getelementptr double, double* %59, i64 2
  %62 = bitcast double* %61 to <2 x double>*
  store <2 x double> zeroinitializer, <2 x double>* %62, align 8, !tbaa !1
  %index.next.1 = add i64 %index, 8
  %63 = icmp eq i64 %index.next.1, %n.vec
  br i1 %63, label %middle.block.unr-lcssa, label %vector.body, !llvm.loop !30

middle.block.unr-lcssa:                           ; preds = %vector.body
  br label %middle.block

middle.block:                                     ; preds = %middle.block.unr-lcssa, %vector.body.preheader.split
  %cmp.n = icmp eq i64 %16, %n.vec
  br i1 %cmp.n, label %._crit_edge.i.i, label %scalar.ph.preheader

._crit_edge.i.i.loopexit.unr-lcssa:               ; preds = %scalar.ph
  br label %._crit_edge.i.i.loopexit

._crit_edge.i.i.loopexit:                         ; preds = %._crit_edge.i.i.loopexit.unr-lcssa, %scalar.ph.preheader.split
  br label %._crit_edge.i.i

._crit_edge.i.i:                                  ; preds = %._crit_edge.i.i.loopexit, %middle.block, %0
  %64 = getelementptr inbounds %class.Domain, %class.Domain* %domain, i64 0, i32 88
  %65 = load i32, i32* %64, align 4, !tbaa !12
  %66 = icmp eq i32 %65, 0
  br i1 %66, label %_ZL17CalcForceForNodesR6Domain.exit.i, label %67

; <label>:67                                      ; preds = %._crit_edge.i.i
  %68 = getelementptr inbounds %class.Domain, %class.Domain* %domain, i64 0, i32 56
  %69 = load double, double* %68, align 8, !tbaa !33
  %70 = sext i32 %65 to i64
  %71 = shl nsw i64 %70, 3
  %72 = tail call noalias i8* @malloc(i64 %71) #2
  %73 = bitcast i8* %72 to double*
  %74 = tail call noalias i8* @malloc(i64 %71) #2
  %75 = bitcast i8* %74 to double*
  %76 = tail call noalias i8* @malloc(i64 %71) #2
  %77 = bitcast i8* %76 to double*
  %78 = tail call noalias i8* @malloc(i64 %71) #2
  %79 = bitcast i8* %78 to double*
  %domain.idx.i.i.i = getelementptr %class.Domain, %class.Domain* %domain, i64 0, i32 39, i32 0, i32 0, i32 0
  %domain.idx.val.i.i.i = load double*, double** %domain.idx.i.i.i, align 8, !tbaa !9
  %domain.idx1.i.i.i = getelementptr %class.Domain, %class.Domain* %domain, i64 0, i32 40, i32 0, i32 0, i32 0
  %domain.idx1.val.i.i.i = load double*, double** %domain.idx1.i.i.i, align 8, !tbaa !9
  %80 = icmp sgt i32 %65, 0
  br i1 %80, label %.lr.ph.i.i.i.i.preheader, label %._ZL23IntegrateStressForElemsR6DomainPdS1_S1_S1_ii.exit._crit_edge.i_crit_edge.i.i

.lr.ph.i.i.i.i.preheader:                         ; preds = %67
  %81 = add i32 %65, -1
  %82 = zext i32 %81 to i64
  %83 = add nuw nsw i64 %82, 1
  %min.iters.check140 = icmp ult i64 %83, 2
  br i1 %min.iters.check140, label %.lr.ph.i.i.i.i.preheader305, label %min.iters.checked141

.lr.ph.i.i.i.i.preheader305:                      ; preds = %middle.block138, %min.iters.checked141, %.lr.ph.i.i.i.i.preheader
  %indvars.iv.i.i.i.i.ph = phi i64 [ 0, %min.iters.checked141 ], [ 0, %.lr.ph.i.i.i.i.preheader ], [ %n.vec143, %middle.block138 ]
  br label %.lr.ph.i.i.i.i

min.iters.checked141:                             ; preds = %.lr.ph.i.i.i.i.preheader
  %n.vec143 = and i64 %83, 8589934590
  %cmp.zero144 = icmp eq i64 %n.vec143, 0
  br i1 %cmp.zero144, label %.lr.ph.i.i.i.i.preheader305, label %vector.body137.preheader

vector.body137.preheader:                         ; preds = %min.iters.checked141
  %84 = add nsw i64 %n.vec143, -2
  %85 = lshr exact i64 %84, 1
  %86 = and i64 %85, 1
  %lcmp.mod343 = icmp eq i64 %86, 0
  br i1 %lcmp.mod343, label %vector.body137.prol, label %vector.body137.preheader.split

vector.body137.prol:                              ; preds = %vector.body137.preheader
  %87 = bitcast double* %domain.idx.val.i.i.i to <2 x double>*
  %wide.load.prol = load <2 x double>, <2 x double>* %87, align 8, !tbaa !1
  %88 = fsub <2 x double> <double -0.000000e+00, double -0.000000e+00>, %wide.load.prol
  %89 = bitcast double* %domain.idx1.val.i.i.i to <2 x double>*
  %wide.load153.prol = load <2 x double>, <2 x double>* %89, align 8, !tbaa !1
  %90 = fsub <2 x double> %88, %wide.load153.prol
  %91 = bitcast i8* %76 to <2 x double>*
  store <2 x double> %90, <2 x double>* %91, align 8, !tbaa !1
  %92 = bitcast i8* %74 to <2 x double>*
  store <2 x double> %90, <2 x double>* %92, align 8, !tbaa !1
  %93 = bitcast i8* %72 to <2 x double>*
  store <2 x double> %90, <2 x double>* %93, align 8, !tbaa !1
  br label %vector.body137.preheader.split

vector.body137.preheader.split:                   ; preds = %vector.body137.prol, %vector.body137.preheader
  %index146.unr = phi i64 [ 0, %vector.body137.preheader ], [ 2, %vector.body137.prol ]
  %94 = icmp eq i64 %85, 0
  br i1 %94, label %middle.block138, label %vector.body137.preheader.split.split

vector.body137.preheader.split.split:             ; preds = %vector.body137.preheader.split
  br label %vector.body137

vector.body137:                                   ; preds = %vector.body137, %vector.body137.preheader.split.split
  %index146 = phi i64 [ %index146.unr, %vector.body137.preheader.split.split ], [ %index.next147.1, %vector.body137 ]
  %95 = getelementptr inbounds double, double* %domain.idx.val.i.i.i, i64 %index146
  %96 = bitcast double* %95 to <2 x double>*
  %wide.load = load <2 x double>, <2 x double>* %96, align 8, !tbaa !1
  %97 = fsub <2 x double> <double -0.000000e+00, double -0.000000e+00>, %wide.load
  %98 = getelementptr inbounds double, double* %domain.idx1.val.i.i.i, i64 %index146
  %99 = bitcast double* %98 to <2 x double>*
  %wide.load153 = load <2 x double>, <2 x double>* %99, align 8, !tbaa !1
  %100 = fsub <2 x double> %97, %wide.load153
  %101 = getelementptr inbounds double, double* %77, i64 %index146
  %102 = bitcast double* %101 to <2 x double>*
  store <2 x double> %100, <2 x double>* %102, align 8, !tbaa !1
  %103 = getelementptr inbounds double, double* %75, i64 %index146
  %104 = bitcast double* %103 to <2 x double>*
  store <2 x double> %100, <2 x double>* %104, align 8, !tbaa !1
  %105 = getelementptr inbounds double, double* %73, i64 %index146
  %106 = bitcast double* %105 to <2 x double>*
  store <2 x double> %100, <2 x double>* %106, align 8, !tbaa !1
  %index.next147 = add i64 %index146, 2
  %107 = getelementptr inbounds double, double* %domain.idx.val.i.i.i, i64 %index.next147
  %108 = bitcast double* %107 to <2 x double>*
  %wide.load.1 = load <2 x double>, <2 x double>* %108, align 8, !tbaa !1
  %109 = fsub <2 x double> <double -0.000000e+00, double -0.000000e+00>, %wide.load.1
  %110 = getelementptr inbounds double, double* %domain.idx1.val.i.i.i, i64 %index.next147
  %111 = bitcast double* %110 to <2 x double>*
  %wide.load153.1 = load <2 x double>, <2 x double>* %111, align 8, !tbaa !1
  %112 = fsub <2 x double> %109, %wide.load153.1
  %113 = getelementptr inbounds double, double* %77, i64 %index.next147
  %114 = bitcast double* %113 to <2 x double>*
  store <2 x double> %112, <2 x double>* %114, align 8, !tbaa !1
  %115 = getelementptr inbounds double, double* %75, i64 %index.next147
  %116 = bitcast double* %115 to <2 x double>*
  store <2 x double> %112, <2 x double>* %116, align 8, !tbaa !1
  %117 = getelementptr inbounds double, double* %73, i64 %index.next147
  %118 = bitcast double* %117 to <2 x double>*
  store <2 x double> %112, <2 x double>* %118, align 8, !tbaa !1
  %index.next147.1 = add i64 %index146, 4
  %119 = icmp eq i64 %index.next147.1, %n.vec143
  br i1 %119, label %middle.block138.unr-lcssa, label %vector.body137, !llvm.loop !34

middle.block138.unr-lcssa:                        ; preds = %vector.body137
  br label %middle.block138

middle.block138:                                  ; preds = %middle.block138.unr-lcssa, %vector.body137.preheader.split
  %cmp.n149 = icmp eq i64 %83, %n.vec143
  br i1 %cmp.n149, label %.lr.ph.i5.i.i.i, label %.lr.ph.i.i.i.i.preheader305

._ZL23IntegrateStressForElemsR6DomainPdS1_S1_S1_ii.exit._crit_edge.i_crit_edge.i.i: ; preds = %67
  %.pre.i.i = bitcast [8 x double]* %x_local.i.i.i.i to i8*
  %.pre8.i.i = bitcast [8 x double]* %y_local.i.i.i.i to i8*
  %.pre10.i.i = bitcast [8 x double]* %z_local.i.i.i.i to i8*
  br label %_ZL23IntegrateStressForElemsR6DomainPdS1_S1_S1_ii.exit._crit_edge.i.i.i

.lr.ph.i.i.i.i:                                   ; preds = %.lr.ph.i.i.i.i, %.lr.ph.i.i.i.i.preheader305
  %indvars.iv.i.i.i.i = phi i64 [ %indvars.iv.next.i.i.i.i, %.lr.ph.i.i.i.i ], [ %indvars.iv.i.i.i.i.ph, %.lr.ph.i.i.i.i.preheader305 ]
  %120 = getelementptr inbounds double, double* %domain.idx.val.i.i.i, i64 %indvars.iv.i.i.i.i
  %121 = load double, double* %120, align 8, !tbaa !1
  %122 = fsub double -0.000000e+00, %121
  %123 = getelementptr inbounds double, double* %domain.idx1.val.i.i.i, i64 %indvars.iv.i.i.i.i
  %124 = load double, double* %123, align 8, !tbaa !1
  %125 = fsub double %122, %124
  %126 = getelementptr inbounds double, double* %77, i64 %indvars.iv.i.i.i.i
  store double %125, double* %126, align 8, !tbaa !1
  %127 = getelementptr inbounds double, double* %75, i64 %indvars.iv.i.i.i.i
  store double %125, double* %127, align 8, !tbaa !1
  %128 = getelementptr inbounds double, double* %73, i64 %indvars.iv.i.i.i.i
  store double %125, double* %128, align 8, !tbaa !1
  %indvars.iv.next.i.i.i.i = add nuw nsw i64 %indvars.iv.i.i.i.i, 1
  %lftr.wideiv102 = trunc i64 %indvars.iv.next.i.i.i.i to i32
  %exitcond103 = icmp eq i32 %lftr.wideiv102, %65
  br i1 %exitcond103, label %.lr.ph.i5.i.i.i.loopexit, label %.lr.ph.i.i.i.i, !llvm.loop !35

.lr.ph.i5.i.i.i.loopexit:                         ; preds = %.lr.ph.i.i.i.i
  br label %.lr.ph.i5.i.i.i

.lr.ph.i5.i.i.i:                                  ; preds = %.lr.ph.i5.i.i.i.loopexit, %middle.block138
  %129 = getelementptr inbounds %class.Domain, %class.Domain* %domain, i64 0, i32 21, i32 0, i32 0, i32 0
  %130 = bitcast [3 x [8 x double]]* %B.i.i.i.i to i8*
  %131 = bitcast [8 x double]* %x_local.i.i.i.i to i8*
  %132 = bitcast [8 x double]* %y_local.i.i.i.i to i8*
  %133 = bitcast [8 x double]* %z_local.i.i.i.i to i8*
  %134 = getelementptr inbounds [8 x double], [8 x double]* %x_local.i.i.i.i, i64 0, i64 0
  %135 = getelementptr inbounds [8 x double], [8 x double]* %y_local.i.i.i.i, i64 0, i64 0
  %136 = getelementptr inbounds [8 x double], [8 x double]* %z_local.i.i.i.i, i64 0, i64 0
  %domain.idx.i.i.i.i = getelementptr %class.Domain, %class.Domain* %domain, i64 0, i32 0, i32 0, i32 0, i32 0
  %domain.idx1.i.i.i.i = getelementptr %class.Domain, %class.Domain* %domain, i64 0, i32 1, i32 0, i32 0, i32 0
  %domain.idx2.i.i.i.i = getelementptr %class.Domain, %class.Domain* %domain, i64 0, i32 2, i32 0, i32 0, i32 0
  %137 = bitcast [8 x double]* %x_local.i.i.i.i to i64*
  %138 = getelementptr inbounds [8 x double], [8 x double]* %x_local.i.i.i.i, i64 0, i64 1
  %139 = bitcast double* %138 to i64*
  %140 = getelementptr inbounds [8 x double], [8 x double]* %x_local.i.i.i.i, i64 0, i64 2
  %141 = bitcast double* %140 to i64*
  %142 = getelementptr inbounds [8 x double], [8 x double]* %x_local.i.i.i.i, i64 0, i64 3
  %143 = bitcast double* %142 to i64*
  %144 = getelementptr inbounds [8 x double], [8 x double]* %x_local.i.i.i.i, i64 0, i64 4
  %145 = bitcast double* %144 to i64*
  %146 = getelementptr inbounds [8 x double], [8 x double]* %x_local.i.i.i.i, i64 0, i64 5
  %147 = bitcast double* %146 to i64*
  %148 = getelementptr inbounds [8 x double], [8 x double]* %x_local.i.i.i.i, i64 0, i64 6
  %149 = bitcast double* %148 to i64*
  %150 = getelementptr inbounds [8 x double], [8 x double]* %x_local.i.i.i.i, i64 0, i64 7
  %151 = bitcast double* %150 to i64*
  %152 = bitcast [8 x double]* %y_local.i.i.i.i to i64*
  %153 = getelementptr inbounds [8 x double], [8 x double]* %y_local.i.i.i.i, i64 0, i64 1
  %154 = bitcast double* %153 to i64*
  %155 = getelementptr inbounds [8 x double], [8 x double]* %y_local.i.i.i.i, i64 0, i64 2
  %156 = bitcast double* %155 to i64*
  %157 = getelementptr inbounds [8 x double], [8 x double]* %y_local.i.i.i.i, i64 0, i64 3
  %158 = bitcast double* %157 to i64*
  %159 = getelementptr inbounds [8 x double], [8 x double]* %y_local.i.i.i.i, i64 0, i64 4
  %160 = bitcast double* %159 to i64*
  %161 = getelementptr inbounds [8 x double], [8 x double]* %y_local.i.i.i.i, i64 0, i64 5
  %162 = bitcast double* %161 to i64*
  %163 = getelementptr inbounds [8 x double], [8 x double]* %y_local.i.i.i.i, i64 0, i64 6
  %164 = bitcast double* %163 to i64*
  %165 = getelementptr inbounds [8 x double], [8 x double]* %y_local.i.i.i.i, i64 0, i64 7
  %166 = bitcast double* %165 to i64*
  %167 = bitcast [8 x double]* %z_local.i.i.i.i to i64*
  %168 = getelementptr inbounds [8 x double], [8 x double]* %z_local.i.i.i.i, i64 0, i64 1
  %169 = bitcast double* %168 to i64*
  %170 = getelementptr inbounds [8 x double], [8 x double]* %z_local.i.i.i.i, i64 0, i64 2
  %171 = bitcast double* %170 to i64*
  %172 = getelementptr inbounds [8 x double], [8 x double]* %z_local.i.i.i.i, i64 0, i64 3
  %173 = bitcast double* %172 to i64*
  %174 = getelementptr inbounds [8 x double], [8 x double]* %z_local.i.i.i.i, i64 0, i64 4
  %175 = bitcast double* %174 to i64*
  %176 = getelementptr inbounds [8 x double], [8 x double]* %z_local.i.i.i.i, i64 0, i64 5
  %177 = bitcast double* %176 to i64*
  %178 = getelementptr inbounds [8 x double], [8 x double]* %z_local.i.i.i.i, i64 0, i64 6
  %179 = bitcast double* %178 to i64*
  %180 = getelementptr inbounds [8 x double], [8 x double]* %z_local.i.i.i.i, i64 0, i64 7
  %181 = bitcast double* %180 to i64*
  %182 = getelementptr inbounds [3 x [8 x double]], [3 x [8 x double]]* %B.i.i.i.i, i64 0, i64 0
  %183 = getelementptr inbounds [3 x [8 x double]], [3 x [8 x double]]* %B.i.i.i.i, i64 0, i64 0, i64 0
  %184 = getelementptr inbounds [3 x [8 x double]], [3 x [8 x double]]* %B.i.i.i.i, i64 0, i64 1, i64 0
  %185 = getelementptr inbounds [3 x [8 x double]], [3 x [8 x double]]* %B.i.i.i.i, i64 0, i64 2, i64 0
  %186 = getelementptr inbounds [3 x [8 x double]], [3 x [8 x double]]* %B.i.i.i.i, i64 0, i64 0, i64 1
  %187 = getelementptr inbounds [3 x [8 x double]], [3 x [8 x double]]* %B.i.i.i.i, i64 0, i64 1, i64 1
  %188 = getelementptr inbounds [3 x [8 x double]], [3 x [8 x double]]* %B.i.i.i.i, i64 0, i64 2, i64 1
  %189 = getelementptr inbounds [3 x [8 x double]], [3 x [8 x double]]* %B.i.i.i.i, i64 0, i64 0, i64 2
  %190 = getelementptr inbounds [3 x [8 x double]], [3 x [8 x double]]* %B.i.i.i.i, i64 0, i64 1, i64 2
  %191 = getelementptr inbounds [3 x [8 x double]], [3 x [8 x double]]* %B.i.i.i.i, i64 0, i64 2, i64 2
  %192 = getelementptr inbounds [3 x [8 x double]], [3 x [8 x double]]* %B.i.i.i.i, i64 0, i64 0, i64 3
  %193 = getelementptr inbounds [3 x [8 x double]], [3 x [8 x double]]* %B.i.i.i.i, i64 0, i64 1, i64 3
  %194 = getelementptr inbounds [3 x [8 x double]], [3 x [8 x double]]* %B.i.i.i.i, i64 0, i64 2, i64 3
  %195 = getelementptr inbounds [3 x [8 x double]], [3 x [8 x double]]* %B.i.i.i.i, i64 0, i64 0, i64 4
  %196 = getelementptr inbounds [3 x [8 x double]], [3 x [8 x double]]* %B.i.i.i.i, i64 0, i64 1, i64 4
  %197 = getelementptr inbounds [3 x [8 x double]], [3 x [8 x double]]* %B.i.i.i.i, i64 0, i64 2, i64 4
  %198 = getelementptr inbounds [3 x [8 x double]], [3 x [8 x double]]* %B.i.i.i.i, i64 0, i64 0, i64 5
  %199 = getelementptr inbounds [3 x [8 x double]], [3 x [8 x double]]* %B.i.i.i.i, i64 0, i64 1, i64 5
  %200 = getelementptr inbounds [3 x [8 x double]], [3 x [8 x double]]* %B.i.i.i.i, i64 0, i64 2, i64 5
  %201 = getelementptr inbounds [3 x [8 x double]], [3 x [8 x double]]* %B.i.i.i.i, i64 0, i64 0, i64 6
  %202 = getelementptr inbounds [3 x [8 x double]], [3 x [8 x double]]* %B.i.i.i.i, i64 0, i64 1, i64 6
  %203 = getelementptr inbounds [3 x [8 x double]], [3 x [8 x double]]* %B.i.i.i.i, i64 0, i64 0, i64 7
  %204 = getelementptr inbounds [3 x [8 x double]], [3 x [8 x double]]* %B.i.i.i.i, i64 0, i64 1, i64 7
  %205 = getelementptr inbounds [3 x [8 x double]], [3 x [8 x double]]* %B.i.i.i.i, i64 0, i64 2, i64 7
  %206 = getelementptr inbounds %class.Domain, %class.Domain* %domain, i64 0, i32 9, i32 0, i32 0, i32 0
  %207 = getelementptr inbounds %class.Domain, %class.Domain* %domain, i64 0, i32 10, i32 0, i32 0, i32 0
  %208 = getelementptr inbounds %class.Domain, %class.Domain* %domain, i64 0, i32 11, i32 0, i32 0, i32 0
  %209 = bitcast double* %192 to <2 x double>*
  %210 = bitcast double* %193 to <2 x double>*
  %211 = bitcast double* %194 to <2 x double>*
  %212 = bitcast double* %170 to <2 x double>*
  %213 = bitcast double* %163 to <2 x double>*
  %214 = bitcast double* %155 to <2 x double>*
  %215 = bitcast double* %140 to <2 x double>*
  %216 = bitcast double* %200 to <2 x double>*
  %217 = bitcast double* %189 to <2 x double>*
  %218 = bitcast double* %190 to <2 x double>*
  %219 = bitcast double* %191 to <2 x double>*
  %220 = bitcast double* %185 to <2 x double>*
  %221 = bitcast double* %201 to <2 x double>*
  %222 = bitcast double* %198 to <2 x double>*
  %223 = bitcast double* %199 to <2 x double>*
  br label %224

; <label>:224                                     ; preds = %224, %.lr.ph.i5.i.i.i
  %indvars.iv5.i.i.i.i = phi i64 [ 0, %.lr.ph.i5.i.i.i ], [ %indvars.iv.next6.i.i.i.i, %224 ]
  %225 = trunc i64 %indvars.iv5.i.i.i.i to i32
  %226 = shl nsw i32 %225, 3
  %227 = sext i32 %226 to i64
  %228 = load i32*, i32** %129, align 8, !tbaa !5
  %229 = getelementptr inbounds i32, i32* %228, i64 %227
  call void @llvm.lifetime.start(i64 192, i8* %130) #2
  call void @llvm.lifetime.start(i64 64, i8* %131) #2
  call void @llvm.lifetime.start(i64 64, i8* %132) #2
  call void @llvm.lifetime.start(i64 64, i8* %133) #2
  %domain.idx.val.i.i.i.i = load double*, double** %domain.idx.i.i.i.i, align 8, !tbaa !9
  %domain.idx1.val.i.i.i.i = load double*, double** %domain.idx1.i.i.i.i, align 8, !tbaa !9
  %domain.idx2.val.i.i.i.i = load double*, double** %domain.idx2.i.i.i.i, align 8, !tbaa !9
  %230 = load i32, i32* %229, align 4, !tbaa !12
  %231 = getelementptr inbounds i32, i32* %229, i64 1
  %232 = load i32, i32* %231, align 4, !tbaa !12
  %233 = getelementptr inbounds i32, i32* %229, i64 2
  %234 = load i32, i32* %233, align 4, !tbaa !12
  %235 = getelementptr inbounds i32, i32* %229, i64 3
  %236 = load i32, i32* %235, align 4, !tbaa !12
  %237 = getelementptr inbounds i32, i32* %229, i64 4
  %238 = load i32, i32* %237, align 4, !tbaa !12
  %239 = getelementptr inbounds i32, i32* %229, i64 5
  %240 = load i32, i32* %239, align 4, !tbaa !12
  %241 = getelementptr inbounds i32, i32* %229, i64 6
  %242 = load i32, i32* %241, align 4, !tbaa !12
  %243 = getelementptr inbounds i32, i32* %229, i64 7
  %244 = load i32, i32* %243, align 4, !tbaa !12
  %245 = sext i32 %230 to i64
  %246 = getelementptr inbounds double, double* %domain.idx.val.i.i.i.i, i64 %245
  %247 = bitcast double* %246 to i64*
  %248 = load i64, i64* %247, align 8, !tbaa !1
  store i64 %248, i64* %137, align 16, !tbaa !1
  %249 = sext i32 %232 to i64
  %250 = getelementptr inbounds double, double* %domain.idx.val.i.i.i.i, i64 %249
  %251 = bitcast double* %250 to i64*
  %252 = load i64, i64* %251, align 8, !tbaa !1
  store i64 %252, i64* %139, align 8, !tbaa !1
  %253 = sext i32 %234 to i64
  %254 = getelementptr inbounds double, double* %domain.idx.val.i.i.i.i, i64 %253
  %255 = bitcast double* %254 to i64*
  %256 = load i64, i64* %255, align 8, !tbaa !1
  store i64 %256, i64* %141, align 16, !tbaa !1
  %257 = sext i32 %236 to i64
  %258 = getelementptr inbounds double, double* %domain.idx.val.i.i.i.i, i64 %257
  %259 = bitcast double* %258 to i64*
  %260 = load i64, i64* %259, align 8, !tbaa !1
  store i64 %260, i64* %143, align 8, !tbaa !1
  %261 = sext i32 %238 to i64
  %262 = getelementptr inbounds double, double* %domain.idx.val.i.i.i.i, i64 %261
  %263 = bitcast double* %262 to i64*
  %264 = load i64, i64* %263, align 8, !tbaa !1
  store i64 %264, i64* %145, align 16, !tbaa !1
  %265 = sext i32 %240 to i64
  %266 = getelementptr inbounds double, double* %domain.idx.val.i.i.i.i, i64 %265
  %267 = bitcast double* %266 to i64*
  %268 = load i64, i64* %267, align 8, !tbaa !1
  store i64 %268, i64* %147, align 8, !tbaa !1
  %269 = sext i32 %242 to i64
  %270 = getelementptr inbounds double, double* %domain.idx.val.i.i.i.i, i64 %269
  %271 = bitcast double* %270 to i64*
  %272 = load i64, i64* %271, align 8, !tbaa !1
  store i64 %272, i64* %149, align 16, !tbaa !1
  %273 = sext i32 %244 to i64
  %274 = getelementptr inbounds double, double* %domain.idx.val.i.i.i.i, i64 %273
  %275 = bitcast double* %274 to i64*
  %276 = load i64, i64* %275, align 8, !tbaa !1
  store i64 %276, i64* %151, align 8, !tbaa !1
  %277 = getelementptr inbounds double, double* %domain.idx1.val.i.i.i.i, i64 %245
  %278 = bitcast double* %277 to i64*
  %279 = load i64, i64* %278, align 8, !tbaa !1
  store i64 %279, i64* %152, align 16, !tbaa !1
  %280 = getelementptr inbounds double, double* %domain.idx1.val.i.i.i.i, i64 %249
  %281 = bitcast double* %280 to i64*
  %282 = load i64, i64* %281, align 8, !tbaa !1
  store i64 %282, i64* %154, align 8, !tbaa !1
  %283 = getelementptr inbounds double, double* %domain.idx1.val.i.i.i.i, i64 %253
  %284 = bitcast double* %283 to i64*
  %285 = load i64, i64* %284, align 8, !tbaa !1
  store i64 %285, i64* %156, align 16, !tbaa !1
  %286 = getelementptr inbounds double, double* %domain.idx1.val.i.i.i.i, i64 %257
  %287 = bitcast double* %286 to i64*
  %288 = load i64, i64* %287, align 8, !tbaa !1
  store i64 %288, i64* %158, align 8, !tbaa !1
  %289 = getelementptr inbounds double, double* %domain.idx1.val.i.i.i.i, i64 %261
  %290 = bitcast double* %289 to i64*
  %291 = load i64, i64* %290, align 8, !tbaa !1
  store i64 %291, i64* %160, align 16, !tbaa !1
  %292 = getelementptr inbounds double, double* %domain.idx1.val.i.i.i.i, i64 %265
  %293 = bitcast double* %292 to i64*
  %294 = load i64, i64* %293, align 8, !tbaa !1
  store i64 %294, i64* %162, align 8, !tbaa !1
  %295 = getelementptr inbounds double, double* %domain.idx1.val.i.i.i.i, i64 %269
  %296 = bitcast double* %295 to i64*
  %297 = load i64, i64* %296, align 8, !tbaa !1
  store i64 %297, i64* %164, align 16, !tbaa !1
  %298 = getelementptr inbounds double, double* %domain.idx1.val.i.i.i.i, i64 %273
  %299 = bitcast double* %298 to i64*
  %300 = load i64, i64* %299, align 8, !tbaa !1
  store i64 %300, i64* %166, align 8, !tbaa !1
  %301 = getelementptr inbounds double, double* %domain.idx2.val.i.i.i.i, i64 %245
  %302 = bitcast double* %301 to i64*
  %303 = load i64, i64* %302, align 8, !tbaa !1
  store i64 %303, i64* %167, align 16, !tbaa !1
  %304 = getelementptr inbounds double, double* %domain.idx2.val.i.i.i.i, i64 %249
  %305 = bitcast double* %304 to i64*
  %306 = load i64, i64* %305, align 8, !tbaa !1
  store i64 %306, i64* %169, align 8, !tbaa !1
  %307 = getelementptr inbounds double, double* %domain.idx2.val.i.i.i.i, i64 %253
  %308 = bitcast double* %307 to i64*
  %309 = load i64, i64* %308, align 8, !tbaa !1
  store i64 %309, i64* %171, align 16, !tbaa !1
  %310 = getelementptr inbounds double, double* %domain.idx2.val.i.i.i.i, i64 %257
  %311 = bitcast double* %310 to i64*
  %312 = load i64, i64* %311, align 8, !tbaa !1
  store i64 %312, i64* %173, align 8, !tbaa !1
  %313 = getelementptr inbounds double, double* %domain.idx2.val.i.i.i.i, i64 %261
  %314 = bitcast double* %313 to i64*
  %315 = load i64, i64* %314, align 8, !tbaa !1
  store i64 %315, i64* %175, align 16, !tbaa !1
  %316 = getelementptr inbounds double, double* %domain.idx2.val.i.i.i.i, i64 %265
  %317 = bitcast double* %316 to i64*
  %318 = load i64, i64* %317, align 8, !tbaa !1
  store i64 %318, i64* %177, align 8, !tbaa !1
  %319 = getelementptr inbounds double, double* %domain.idx2.val.i.i.i.i, i64 %269
  %320 = bitcast double* %319 to i64*
  %321 = load i64, i64* %320, align 8, !tbaa !1
  store i64 %321, i64* %179, align 16, !tbaa !1
  %322 = getelementptr inbounds double, double* %domain.idx2.val.i.i.i.i, i64 %273
  %323 = bitcast double* %322 to i64*
  %324 = load i64, i64* %323, align 8, !tbaa !1
  store i64 %324, i64* %181, align 8, !tbaa !1
  %325 = getelementptr inbounds double, double* %79, i64 %indvars.iv5.i.i.i.i
  call fastcc void @_ZL32CalcElemShapeFunctionDerivativesPKdS0_S0_PA8_dPd(double* %134, double* %135, double* %136, [8 x double]* %182, double* %325) #2
  call void @llvm.memset.p0i8.i64(i8* %130, i8 0, i64 192, i32 16, i1 false) #2
  %326 = load double, double* %134, align 16, !tbaa !1
  %327 = bitcast i64 %279 to double
  %328 = bitcast i64 %303 to double
  %329 = load double, double* %138, align 8, !tbaa !1
  %330 = bitcast i64 %282 to double
  %331 = bitcast i64 %256 to double
  %332 = bitcast i64 %285 to double
  %333 = bitcast i64 %260 to double
  %334 = bitcast i64 %288 to double
  %335 = bitcast i64 %312 to double
  %336 = bitcast i64 %264 to double
  %337 = bitcast i64 %268 to double
  %338 = insertelement <2 x double> undef, double %332, i32 0
  %339 = insertelement <2 x double> %338, double %336, i32 1
  %340 = insertelement <2 x double> undef, double %334, i32 0
  %341 = insertelement <2 x double> %340, double %337, i32 1
  %342 = fadd <2 x double> %339, %341
  %343 = insertelement <2 x double> undef, double %330, i32 0
  %344 = insertelement <2 x double> %343, double %329, i32 1
  %345 = fsub <2 x double> %342, %344
  %346 = insertelement <2 x double> undef, double %327, i32 0
  %347 = insertelement <2 x double> %346, double %326, i32 1
  %348 = fsub <2 x double> %345, %347
  %349 = fmul <2 x double> %348, <double 5.000000e-01, double 5.000000e-01>
  %350 = insertelement <2 x double> %338, double %337, i32 1
  %351 = fadd <2 x double> %344, %350
  %352 = insertelement <2 x double> %340, double %336, i32 1
  %353 = fsub <2 x double> %351, %352
  %354 = fsub <2 x double> %353, %347
  %355 = fmul <2 x double> %354, <double 5.000000e-01, double 5.000000e-01>
  %356 = bitcast i64 %291 to double
  %357 = bitcast i64 %294 to double
  %358 = insertelement <2 x double> undef, double %331, i32 0
  %359 = insertelement <2 x double> %358, double %357, i32 1
  %360 = insertelement <2 x double> undef, double %329, i32 0
  %361 = insertelement <2 x double> %360, double %330, i32 1
  %362 = fadd <2 x double> %359, %361
  %363 = insertelement <2 x double> undef, double %333, i32 0
  %364 = insertelement <2 x double> %363, double %356, i32 1
  %365 = fsub <2 x double> %362, %364
  %366 = insertelement <2 x double> undef, double %326, i32 0
  %367 = insertelement <2 x double> %366, double %327, i32 1
  %368 = fsub <2 x double> %365, %367
  %369 = fmul <2 x double> %368, <double 5.000000e-01, double 5.000000e-01>
  %370 = insertelement <2 x i64> undef, i64 %306, i32 0
  %371 = insertelement <2 x i64> %370, i64 %315, i32 1
  %372 = bitcast <2 x i64> %371 to <2 x double>
  %373 = insertelement <2 x i64> undef, i64 %309, i32 0
  %374 = insertelement <2 x i64> %373, i64 %318, i32 1
  %375 = bitcast <2 x i64> %374 to <2 x double>
  %376 = bitcast i64 %309 to double
  %377 = insertelement <2 x double> undef, double %376, i32 0
  %378 = bitcast i64 %306 to double
  %379 = insertelement <2 x double> %377, double %378, i32 1
  %380 = insertelement <2 x double> undef, double %335, i32 0
  %381 = bitcast i64 %318 to double
  %382 = insertelement <2 x double> %380, double %381, i32 1
  %383 = fadd <2 x double> %379, %382
  %384 = fsub <2 x double> %383, %372
  %385 = insertelement <2 x double> undef, double %328, i32 0
  %386 = insertelement <2 x double> %385, double %328, i32 1
  %387 = fsub <2 x double> %384, %386
  %388 = fmul <2 x double> %387, <double 5.000000e-01, double 5.000000e-01>
  %389 = insertelement <2 x double> %358, double %356, i32 1
  %390 = insertelement <2 x double> %363, double %357, i32 1
  %391 = fadd <2 x double> %389, %390
  %392 = fsub <2 x double> %391, %361
  %393 = fsub <2 x double> %392, %367
  %394 = fmul <2 x double> %393, <double 5.000000e-01, double 5.000000e-01>
  %395 = fadd <2 x double> %372, %375
  %396 = insertelement <2 x double> %380, double %378, i32 1
  %397 = fsub <2 x double> %395, %396
  %398 = fsub <2 x double> %397, %386
  %399 = fmul <2 x double> %398, <double 5.000000e-01, double 5.000000e-01>
  %400 = shufflevector <2 x double> %349, <2 x double> %369, <2 x i32> <i32 0, i32 3>
  %401 = fmul <2 x double> %400, %399
  %402 = shufflevector <2 x double> %355, <2 x double> %394, <2 x i32> <i32 0, i32 3>
  %403 = fmul <2 x double> %402, %388
  %404 = fsub <2 x double> %401, %403
  %405 = fmul <2 x double> %404, <double 2.500000e-01, double 2.500000e-01>
  %406 = fadd <2 x double> zeroinitializer, %405
  %407 = extractelement <2 x double> %406, i32 0
  store double %407, double* %189, align 16, !tbaa !1
  %408 = shufflevector <2 x double> %369, <2 x double> %349, <2 x i32> <i32 0, i32 3>
  %409 = fmul <2 x double> %388, %408
  %410 = shufflevector <2 x double> %394, <2 x double> %355, <2 x i32> <i32 0, i32 3>
  %411 = fmul <2 x double> %399, %410
  %412 = fsub <2 x double> %409, %411
  %413 = fmul <2 x double> %412, <double 2.500000e-01, double 2.500000e-01>
  %414 = fadd <2 x double> zeroinitializer, %413
  %415 = extractelement <2 x double> %414, i32 0
  store double %415, double* %190, align 16, !tbaa !1
  %416 = fmul <2 x double> %355, %394
  %417 = fmul <2 x double> %349, %369
  %418 = fsub <2 x double> %416, %417
  %419 = fmul <2 x double> %418, <double 2.500000e-01, double 2.500000e-01>
  %420 = fadd <2 x double> zeroinitializer, %419
  %421 = extractelement <2 x double> %420, i32 0
  store double %421, double* %191, align 16, !tbaa !1
  %422 = extractelement <2 x double> %405, i32 1
  %423 = fadd double %407, %422
  store double %423, double* %183, align 16, !tbaa !1
  store <2 x double> %406, <2 x double>* %209, align 8, !tbaa !1
  %424 = load double, double* %198, align 8, !tbaa !1
  %425 = fadd double %424, %422
  %426 = extractelement <2 x double> %413, i32 1
  %427 = fadd double %415, %426
  store double %427, double* %184, align 16, !tbaa !1
  store <2 x double> %414, <2 x double>* %210, align 8, !tbaa !1
  %428 = load double, double* %199, align 8, !tbaa !1
  %429 = fadd double %426, %428
  %430 = extractelement <2 x double> %419, i32 1
  %431 = fadd double %421, %430
  store double %431, double* %185, align 16, !tbaa !1
  store <2 x double> %420, <2 x double>* %211, align 8, !tbaa !1
  %432 = load double, double* %138, align 8, !tbaa !1
  %433 = load double, double* %148, align 16, !tbaa !1
  %434 = load double, double* %178, align 16, !tbaa !1
  %435 = load double, double* %180, align 8, !tbaa !1
  %436 = load <2 x double>, <2 x double>* %212, align 16, !tbaa !1
  %437 = insertelement <2 x double> undef, double %434, i32 0
  %438 = insertelement <2 x double> %437, double %435, i32 1
  %439 = fadd <2 x double> %438, %436
  %440 = insertelement <2 x double> undef, double %381, i32 0
  %441 = insertelement <2 x double> %440, double %434, i32 1
  %442 = fsub <2 x double> %439, %441
  %443 = insertelement <2 x double> undef, double %378, i32 0
  %444 = shufflevector <2 x double> %443, <2 x double> %436, <2 x i32> <i32 0, i32 2>
  %445 = fsub <2 x double> %442, %444
  %446 = fmul <2 x double> %445, <double 5.000000e-01, double 5.000000e-01>
  %447 = insertelement <2 x double> %440, double %435, i32 1
  %448 = insertelement <2 x double> %437, double %434, i32 1
  %449 = fadd <2 x double> %447, %448
  %450 = fsub <2 x double> %449, %436
  %451 = fsub <2 x double> %450, %444
  %452 = fmul <2 x double> %451, <double 5.000000e-01, double 5.000000e-01>
  %453 = load <2 x double>, <2 x double>* %213, align 16, !tbaa !1
  %454 = load <2 x double>, <2 x double>* %214, align 16, !tbaa !1
  %455 = insertelement <2 x double> undef, double %357, i32 0
  %456 = extractelement <2 x double> %453, i32 1
  %457 = shufflevector <2 x double> %455, <2 x double> %453, <2 x i32> <i32 0, i32 3>
  %458 = shufflevector <2 x double> %453, <2 x double> undef, <2 x i32> zeroinitializer
  %459 = fadd <2 x double> %457, %458
  %460 = fsub <2 x double> %459, %454
  %461 = shufflevector <2 x double> %343, <2 x double> %454, <2 x i32> <i32 0, i32 2>
  %462 = fsub <2 x double> %460, %461
  %463 = fmul <2 x double> %462, <double 5.000000e-01, double 5.000000e-01>
  %464 = load double, double* %150, align 8, !tbaa !1
  %465 = load <2 x double>, <2 x double>* %215, align 16, !tbaa !1
  %466 = insertelement <2 x double> undef, double %433, i32 0
  %467 = insertelement <2 x double> %466, double %464, i32 1
  %468 = fadd <2 x double> %467, %465
  %469 = insertelement <2 x double> undef, double %337, i32 0
  %470 = insertelement <2 x double> %469, double %433, i32 1
  %471 = fsub <2 x double> %468, %470
  %472 = insertelement <2 x double> undef, double %432, i32 0
  %473 = shufflevector <2 x double> %472, <2 x double> %465, <2 x i32> <i32 0, i32 2>
  %474 = fsub <2 x double> %471, %473
  %475 = fmul <2 x double> %474, <double 5.000000e-01, double 5.000000e-01>
  %476 = fadd <2 x double> %453, %454
  %477 = shufflevector <2 x double> %455, <2 x double> %453, <2 x i32> <i32 0, i32 2>
  %478 = fsub <2 x double> %476, %477
  %479 = fsub <2 x double> %478, %461
  %480 = fmul <2 x double> %479, <double 5.000000e-01, double 5.000000e-01>
  %481 = insertelement <2 x double> %469, double %464, i32 1
  %482 = insertelement <2 x double> %466, double %433, i32 1
  %483 = fadd <2 x double> %481, %482
  %484 = fsub <2 x double> %483, %465
  %485 = fsub <2 x double> %484, %473
  %486 = fmul <2 x double> %485, <double 5.000000e-01, double 5.000000e-01>
  %487 = fmul <2 x double> %480, %452
  %488 = fmul <2 x double> %463, %446
  %489 = fsub <2 x double> %487, %488
  %490 = fmul <2 x double> %489, <double 2.500000e-01, double 2.500000e-01>
  %491 = extractelement <2 x double> %490, i32 0
  %492 = fadd double %423, %491
  store double %492, double* %186, align 8, !tbaa !1
  %493 = fadd double %425, %491
  store double %493, double* %198, align 8, !tbaa !1
  %494 = load double, double* %201, align 16, !tbaa !1
  %495 = fmul <2 x double> %486, %446
  %496 = fmul <2 x double> %475, %452
  %497 = fsub <2 x double> %495, %496
  %498 = fmul <2 x double> %497, <double 2.500000e-01, double 2.500000e-01>
  %499 = extractelement <2 x double> %498, i32 0
  %500 = fadd double %427, %499
  store double %500, double* %187, align 8, !tbaa !1
  %501 = fadd double %429, %499
  store double %501, double* %199, align 8, !tbaa !1
  %502 = load double, double* %202, align 16, !tbaa !1
  %503 = fadd double %499, %502
  %504 = load <2 x double>, <2 x double>* %216, align 8, !tbaa !1
  %505 = load double, double* %144, align 16, !tbaa !1
  %506 = load double, double* %159, align 16, !tbaa !1
  %507 = load double, double* %134, align 16, !tbaa !1
  %508 = load double, double* %135, align 16, !tbaa !1
  %509 = fadd double %505, %507
  %510 = fsub double %509, %464
  %511 = extractelement <2 x double> %465, i32 1
  %512 = fsub double %510, %511
  %513 = fmul double %512, 5.000000e-01
  %514 = fadd double %506, %508
  %515 = fsub double %514, %456
  %516 = extractelement <2 x double> %454, i32 1
  %517 = fsub double %515, %516
  %518 = fmul double %517, 5.000000e-01
  %519 = fadd double %464, %505
  %520 = fsub double %519, %507
  %521 = fsub double %520, %511
  %522 = fmul double %521, 5.000000e-01
  %523 = fadd double %456, %506
  %524 = fsub double %523, %508
  %525 = fsub double %524, %516
  %526 = fmul double %525, 5.000000e-01
  %527 = insertelement <2 x double> undef, double %513, i32 0
  %528 = shufflevector <2 x double> %527, <2 x double> %475, <2 x i32> <i32 0, i32 2>
  %529 = insertelement <2 x double> undef, double %526, i32 0
  %530 = shufflevector <2 x double> %529, <2 x double> %463, <2 x i32> <i32 0, i32 2>
  %531 = fmul <2 x double> %528, %530
  %532 = insertelement <2 x double> undef, double %522, i32 0
  %533 = shufflevector <2 x double> %532, <2 x double> %486, <2 x i32> <i32 0, i32 2>
  %534 = insertelement <2 x double> undef, double %518, i32 0
  %535 = shufflevector <2 x double> %534, <2 x double> %480, <2 x i32> <i32 0, i32 2>
  %536 = fmul <2 x double> %533, %535
  %537 = fsub <2 x double> %531, %536
  %538 = fmul <2 x double> %537, <double 2.500000e-01, double 2.500000e-01>
  %539 = extractelement <2 x double> %538, i32 1
  %540 = shufflevector <2 x double> %419, <2 x double> %538, <2 x i32> <i32 1, i32 3>
  %541 = fadd <2 x double> %540, %504
  %542 = extractelement <2 x double> %463, i32 1
  %543 = extractelement <2 x double> %475, i32 1
  %544 = fmul double %543, %542
  %545 = extractelement <2 x double> %480, i32 1
  %546 = extractelement <2 x double> %486, i32 1
  %547 = fmul double %546, %545
  %548 = fsub double %544, %547
  %549 = fmul double %548, 2.500000e-01
  %550 = extractelement <2 x double> %490, i32 1
  %551 = load double, double* %203, align 8, !tbaa !1
  %552 = fadd double %551, %550
  %553 = load <2 x double>, <2 x double>* %217, align 16, !tbaa !1
  %554 = fadd <2 x double> %553, %490
  %555 = extractelement <2 x double> %498, i32 1
  %556 = fadd double %503, %555
  store double %556, double* %202, align 16, !tbaa !1
  %557 = load double, double* %204, align 8, !tbaa !1
  %558 = fadd double %555, %557
  %559 = load <2 x double>, <2 x double>* %218, align 16, !tbaa !1
  %560 = fadd <2 x double> %498, %559
  %561 = insertelement <2 x double> undef, double %539, i32 0
  %562 = insertelement <2 x double> %561, double %549, i32 1
  %563 = fadd <2 x double> %541, %562
  store <2 x double> %563, <2 x double>* %216, align 8, !tbaa !1
  %564 = load double, double* %205, align 8, !tbaa !1
  %565 = fadd double %549, %564
  %566 = load <2 x double>, <2 x double>* %219, align 16, !tbaa !1
  %567 = fadd <2 x double> %562, %566
  %568 = load double, double* %174, align 16, !tbaa !1
  %569 = load double, double* %136, align 16, !tbaa !1
  %570 = fadd double %568, %569
  %571 = fsub double %570, %435
  %572 = extractelement <2 x double> %436, i32 1
  %573 = fsub double %571, %572
  %574 = fmul double %573, 5.000000e-01
  %575 = fadd double %435, %568
  %576 = fsub double %575, %569
  %577 = fsub double %576, %572
  %578 = fmul double %577, 5.000000e-01
  %579 = fmul double %518, %578
  %580 = fmul double %526, %574
  %581 = fsub double %579, %580
  %582 = fmul double %581, 2.500000e-01
  %583 = fmul double %522, %574
  %584 = fmul double %513, %578
  %585 = fsub double %583, %584
  %586 = fmul double %585, 2.500000e-01
  %587 = shufflevector <2 x double> %490, <2 x double> undef, <2 x i32> <i32 1, i32 undef>
  %588 = insertelement <2 x double> %587, double %582, i32 1
  %589 = fadd <2 x double> %554, %588
  store <2 x double> %589, <2 x double>* %217, align 16, !tbaa !1
  %590 = insertelement <2 x double> undef, double %494, i32 0
  %591 = insertelement <2 x double> %590, double %552, i32 1
  %592 = insertelement <2 x double> undef, double %491, i32 0
  %593 = insertelement <2 x double> %592, double %582, i32 1
  %594 = fadd <2 x double> %591, %593
  %595 = load double, double* %195, align 16, !tbaa !1
  %596 = fadd double %595, %582
  %597 = load double, double* %183, align 16, !tbaa !1
  %598 = fadd double %597, %582
  store double %598, double* %183, align 16, !tbaa !1
  %599 = insertelement <2 x double> undef, double %555, i32 0
  %600 = insertelement <2 x double> %599, double %586, i32 1
  %601 = fadd <2 x double> %560, %600
  store <2 x double> %601, <2 x double>* %218, align 16, !tbaa !1
  %602 = fadd double %558, %586
  %603 = load double, double* %196, align 16, !tbaa !1
  %604 = fadd double %603, %586
  %605 = load double, double* %184, align 16, !tbaa !1
  %606 = fadd double %586, %605
  store double %606, double* %184, align 16, !tbaa !1
  %607 = extractelement <2 x double> %538, i32 0
  %608 = insertelement <2 x double> undef, double %549, i32 0
  %609 = shufflevector <2 x double> %608, <2 x double> %538, <2 x i32> <i32 0, i32 2>
  %610 = fadd <2 x double> %567, %609
  store <2 x double> %610, <2 x double>* %219, align 16, !tbaa !1
  %611 = fadd double %565, %607
  %612 = load double, double* %197, align 16, !tbaa !1
  %613 = fadd double %607, %612
  %614 = load double, double* %185, align 16, !tbaa !1
  %615 = insertelement <2 x double> undef, double %614, i32 0
  %616 = insertelement <2 x double> %615, double %431, i32 1
  %617 = fadd <2 x double> %538, %616
  store <2 x double> %617, <2 x double>* %220, align 16, !tbaa !1
  %618 = load double, double* %150, align 8, !tbaa !1
  %619 = load double, double* %165, align 8, !tbaa !1
  %620 = load double, double* %180, align 8, !tbaa !1
  %621 = load double, double* %148, align 16, !tbaa !1
  %622 = load double, double* %163, align 16, !tbaa !1
  %623 = load double, double* %178, align 16, !tbaa !1
  %624 = load double, double* %146, align 8, !tbaa !1
  %625 = load double, double* %161, align 8, !tbaa !1
  %626 = load double, double* %176, align 8, !tbaa !1
  %627 = fadd double %621, %624
  %628 = fsub double %627, %618
  %629 = fsub double %628, %505
  %630 = fmul double %629, 5.000000e-01
  %631 = fadd double %622, %625
  %632 = fsub double %631, %619
  %633 = fsub double %632, %506
  %634 = fmul double %633, 5.000000e-01
  %635 = fadd double %623, %626
  %636 = fsub double %635, %620
  %637 = fsub double %636, %568
  %638 = fmul double %637, 5.000000e-01
  %639 = fadd double %618, %621
  %640 = fsub double %639, %624
  %641 = fsub double %640, %505
  %642 = fmul double %641, 5.000000e-01
  %643 = fadd double %619, %622
  %644 = fsub double %643, %625
  %645 = fsub double %644, %506
  %646 = fmul double %645, 5.000000e-01
  %647 = fadd double %620, %623
  %648 = fsub double %647, %626
  %649 = fsub double %648, %568
  %650 = fmul double %649, 5.000000e-01
  %651 = fmul double %634, %650
  %652 = fmul double %646, %638
  %653 = fsub double %651, %652
  %654 = fmul double %653, 2.500000e-01
  %655 = fmul double %642, %638
  %656 = fmul double %630, %650
  %657 = fsub double %655, %656
  %658 = fmul double %657, 2.500000e-01
  %659 = fmul double %630, %646
  %660 = fmul double %642, %634
  %661 = fsub double %659, %660
  %662 = fmul double %661, 2.500000e-01
  %663 = fadd double %596, %654
  store double %663, double* %195, align 16, !tbaa !1
  %664 = insertelement <2 x double> %587, double %654, i32 1
  %665 = fadd <2 x double> %594, %664
  store <2 x double> %665, <2 x double>* %221, align 16, !tbaa !1
  %666 = load <2 x double>, <2 x double>* %222, align 8, !tbaa !1
  %667 = insertelement <2 x double> undef, double %654, i32 0
  %668 = insertelement <2 x double> %667, double %654, i32 1
  %669 = fadd <2 x double> %666, %668
  store <2 x double> %669, <2 x double>* %222, align 8, !tbaa !1
  %670 = fadd double %604, %658
  store double %670, double* %196, align 16, !tbaa !1
  %671 = fadd double %602, %658
  store double %671, double* %204, align 8, !tbaa !1
  %672 = load <2 x double>, <2 x double>* %223, align 8, !tbaa !1
  %673 = insertelement <2 x double> undef, double %658, i32 0
  %674 = insertelement <2 x double> %673, double %658, i32 1
  %675 = fadd <2 x double> %674, %672
  store <2 x double> %675, <2 x double>* %223, align 8, !tbaa !1
  %676 = fadd double %613, %662
  store double %676, double* %197, align 16, !tbaa !1
  %677 = fadd double %611, %662
  store double %677, double* %205, align 8, !tbaa !1
  %678 = load <2 x double>, <2 x double>* %216, align 8, !tbaa !1
  %679 = insertelement <2 x double> undef, double %662, i32 0
  %680 = insertelement <2 x double> %679, double %662, i32 1
  %681 = fadd <2 x double> %680, %678
  store <2 x double> %681, <2 x double>* %216, align 8, !tbaa !1
  %682 = getelementptr inbounds double, double* %77, i64 %indvars.iv5.i.i.i.i
  %683 = load double, double* %682, align 8, !tbaa !1
  %684 = getelementptr inbounds double, double* %75, i64 %indvars.iv5.i.i.i.i
  %685 = load double, double* %684, align 8, !tbaa !1
  %686 = getelementptr inbounds double, double* %73, i64 %indvars.iv5.i.i.i.i
  %687 = load double, double* %686, align 8, !tbaa !1
  %688 = fmul double %598, %687
  %689 = fmul double %606, %685
  %690 = extractelement <2 x double> %617, i32 0
  %691 = fmul double %690, %683
  %692 = load double, double* %186, align 8, !tbaa !1
  %693 = fmul double %687, %692
  %694 = load double, double* %187, align 8, !tbaa !1
  %695 = fmul double %685, %694
  %696 = bitcast <2 x double> %617 to i128
  %697 = lshr i128 %696, 64
  %698 = trunc i128 %697 to i64
  %699 = bitcast i64 %698 to double
  %700 = fmul double %683, %699
  %701 = load double, double* %189, align 16, !tbaa !1
  %702 = fmul double %687, %701
  %703 = load double, double* %190, align 16, !tbaa !1
  %704 = fmul double %685, %703
  %705 = load double, double* %191, align 16, !tbaa !1
  %706 = fmul double %683, %705
  %707 = load double, double* %192, align 8, !tbaa !1
  %708 = fmul double %687, %707
  %709 = load double, double* %193, align 8, !tbaa !1
  %710 = fmul double %685, %709
  %711 = load double, double* %194, align 8, !tbaa !1
  %712 = fmul double %683, %711
  %713 = fmul double %663, %687
  %714 = fmul double %670, %685
  %715 = fmul double %676, %683
  %716 = extractelement <2 x double> %669, i32 0
  %717 = fmul double %716, %687
  %718 = extractelement <2 x double> %675, i32 0
  %719 = fmul double %718, %685
  %720 = extractelement <2 x double> %681, i32 0
  %721 = fmul double %720, %683
  %722 = extractelement <2 x double> %669, i32 1
  %723 = fmul double %722, %687
  %724 = extractelement <2 x double> %675, i32 1
  %725 = fmul double %724, %685
  %726 = extractelement <2 x double> %681, i32 1
  %727 = fmul double %726, %683
  %728 = extractelement <2 x double> %665, i32 1
  %729 = fmul double %728, %687
  %730 = fmul double %671, %685
  %731 = fmul double %677, %683
  %732 = load double*, double** %206, align 8
  %733 = load double*, double** %207, align 8
  %734 = load double*, double** %208, align 8
  %735 = load i32, i32* %229, align 4, !tbaa !12
  %736 = sext i32 %735 to i64
  %737 = getelementptr inbounds double, double* %732, i64 %736
  %738 = load double, double* %737, align 8, !tbaa !1
  %739 = fsub double %738, %688
  store double %739, double* %737, align 8, !tbaa !1
  %740 = getelementptr inbounds double, double* %733, i64 %736
  %741 = load double, double* %740, align 8, !tbaa !1
  %742 = fsub double %741, %689
  store double %742, double* %740, align 8, !tbaa !1
  %743 = getelementptr inbounds double, double* %734, i64 %736
  %744 = load double, double* %743, align 8, !tbaa !1
  %745 = fsub double %744, %691
  store double %745, double* %743, align 8, !tbaa !1
  %746 = load i32, i32* %231, align 4, !tbaa !12
  %747 = sext i32 %746 to i64
  %748 = getelementptr inbounds double, double* %732, i64 %747
  %749 = load double, double* %748, align 8, !tbaa !1
  %750 = fsub double %749, %693
  store double %750, double* %748, align 8, !tbaa !1
  %751 = getelementptr inbounds double, double* %733, i64 %747
  %752 = load double, double* %751, align 8, !tbaa !1
  %753 = fsub double %752, %695
  store double %753, double* %751, align 8, !tbaa !1
  %754 = getelementptr inbounds double, double* %734, i64 %747
  %755 = load double, double* %754, align 8, !tbaa !1
  %756 = fsub double %755, %700
  store double %756, double* %754, align 8, !tbaa !1
  %757 = load i32, i32* %233, align 4, !tbaa !12
  %758 = sext i32 %757 to i64
  %759 = getelementptr inbounds double, double* %732, i64 %758
  %760 = load double, double* %759, align 8, !tbaa !1
  %761 = fsub double %760, %702
  store double %761, double* %759, align 8, !tbaa !1
  %762 = getelementptr inbounds double, double* %733, i64 %758
  %763 = load double, double* %762, align 8, !tbaa !1
  %764 = fsub double %763, %704
  store double %764, double* %762, align 8, !tbaa !1
  %765 = getelementptr inbounds double, double* %734, i64 %758
  %766 = load double, double* %765, align 8, !tbaa !1
  %767 = fsub double %766, %706
  store double %767, double* %765, align 8, !tbaa !1
  %768 = load i32, i32* %235, align 4, !tbaa !12
  %769 = sext i32 %768 to i64
  %770 = getelementptr inbounds double, double* %732, i64 %769
  %771 = load double, double* %770, align 8, !tbaa !1
  %772 = fsub double %771, %708
  store double %772, double* %770, align 8, !tbaa !1
  %773 = getelementptr inbounds double, double* %733, i64 %769
  %774 = load double, double* %773, align 8, !tbaa !1
  %775 = fsub double %774, %710
  store double %775, double* %773, align 8, !tbaa !1
  %776 = getelementptr inbounds double, double* %734, i64 %769
  %777 = load double, double* %776, align 8, !tbaa !1
  %778 = fsub double %777, %712
  store double %778, double* %776, align 8, !tbaa !1
  %779 = load i32, i32* %237, align 4, !tbaa !12
  %780 = sext i32 %779 to i64
  %781 = getelementptr inbounds double, double* %732, i64 %780
  %782 = load double, double* %781, align 8, !tbaa !1
  %783 = fsub double %782, %713
  store double %783, double* %781, align 8, !tbaa !1
  %784 = getelementptr inbounds double, double* %733, i64 %780
  %785 = load double, double* %784, align 8, !tbaa !1
  %786 = fsub double %785, %714
  store double %786, double* %784, align 8, !tbaa !1
  %787 = getelementptr inbounds double, double* %734, i64 %780
  %788 = load double, double* %787, align 8, !tbaa !1
  %789 = fsub double %788, %715
  store double %789, double* %787, align 8, !tbaa !1
  %790 = load i32, i32* %239, align 4, !tbaa !12
  %791 = sext i32 %790 to i64
  %792 = getelementptr inbounds double, double* %732, i64 %791
  %793 = load double, double* %792, align 8, !tbaa !1
  %794 = fsub double %793, %717
  store double %794, double* %792, align 8, !tbaa !1
  %795 = getelementptr inbounds double, double* %733, i64 %791
  %796 = load double, double* %795, align 8, !tbaa !1
  %797 = fsub double %796, %719
  store double %797, double* %795, align 8, !tbaa !1
  %798 = getelementptr inbounds double, double* %734, i64 %791
  %799 = load double, double* %798, align 8, !tbaa !1
  %800 = fsub double %799, %721
  store double %800, double* %798, align 8, !tbaa !1
  %801 = load i32, i32* %241, align 4, !tbaa !12
  %802 = sext i32 %801 to i64
  %803 = getelementptr inbounds double, double* %732, i64 %802
  %804 = load double, double* %803, align 8, !tbaa !1
  %805 = fsub double %804, %723
  store double %805, double* %803, align 8, !tbaa !1
  %806 = getelementptr inbounds double, double* %733, i64 %802
  %807 = load double, double* %806, align 8, !tbaa !1
  %808 = fsub double %807, %725
  store double %808, double* %806, align 8, !tbaa !1
  %809 = getelementptr inbounds double, double* %734, i64 %802
  %810 = load double, double* %809, align 8, !tbaa !1
  %811 = fsub double %810, %727
  store double %811, double* %809, align 8, !tbaa !1
  %812 = load i32, i32* %243, align 4, !tbaa !12
  %813 = sext i32 %812 to i64
  %814 = getelementptr inbounds double, double* %732, i64 %813
  %815 = load double, double* %814, align 8, !tbaa !1
  %816 = fsub double %815, %729
  store double %816, double* %814, align 8, !tbaa !1
  %817 = getelementptr inbounds double, double* %733, i64 %813
  %818 = load double, double* %817, align 8, !tbaa !1
  %819 = fsub double %818, %730
  store double %819, double* %817, align 8, !tbaa !1
  %820 = getelementptr inbounds double, double* %734, i64 %813
  %821 = load double, double* %820, align 8, !tbaa !1
  %822 = fsub double %821, %731
  store double %822, double* %820, align 8, !tbaa !1
  call void @llvm.lifetime.end(i64 64, i8* %133) #2
  call void @llvm.lifetime.end(i64 64, i8* %132) #2
  call void @llvm.lifetime.end(i64 64, i8* %131) #2
  call void @llvm.lifetime.end(i64 192, i8* %130) #2
  %indvars.iv.next6.i.i.i.i = add nuw nsw i64 %indvars.iv5.i.i.i.i, 1
  %lftr.wideiv100 = trunc i64 %indvars.iv.next6.i.i.i.i to i32
  %exitcond101 = icmp eq i32 %lftr.wideiv100, %65
  br i1 %exitcond101, label %.lr.ph.i.i.i.preheader, label %224

.lr.ph.i.i.i.preheader:                           ; preds = %224
  br label %.lr.ph.i.i.i

_ZL23IntegrateStressForElemsR6DomainPdS1_S1_S1_ii.exit.i.i.i: ; preds = %.lr.ph.i.i.i
  %823 = icmp slt i64 %indvars.iv.next.i.i.i, %70
  br i1 %823, label %.lr.ph.i.i.i, label %_ZL23IntegrateStressForElemsR6DomainPdS1_S1_S1_ii.exit._crit_edge.i.i.loopexit.i

_ZL23IntegrateStressForElemsR6DomainPdS1_S1_S1_ii.exit._crit_edge.i.i.loopexit.i: ; preds = %_ZL23IntegrateStressForElemsR6DomainPdS1_S1_S1_ii.exit.i.i.i
  %.pre.i = load i32, i32* %64, align 4, !tbaa !12
  br label %_ZL23IntegrateStressForElemsR6DomainPdS1_S1_S1_ii.exit._crit_edge.i.i.i

_ZL23IntegrateStressForElemsR6DomainPdS1_S1_S1_ii.exit._crit_edge.i.i.i: ; preds = %_ZL23IntegrateStressForElemsR6DomainPdS1_S1_S1_ii.exit._crit_edge.i.i.loopexit.i, %._ZL23IntegrateStressForElemsR6DomainPdS1_S1_S1_ii.exit._crit_edge.i_crit_edge.i.i
  %824 = phi i32 [ %65, %._ZL23IntegrateStressForElemsR6DomainPdS1_S1_S1_ii.exit._crit_edge.i_crit_edge.i.i ], [ %.pre.i, %_ZL23IntegrateStressForElemsR6DomainPdS1_S1_S1_ii.exit._crit_edge.i.i.loopexit.i ]
  %.pre-phi11.i.i = phi i8* [ %.pre10.i.i, %._ZL23IntegrateStressForElemsR6DomainPdS1_S1_S1_ii.exit._crit_edge.i_crit_edge.i.i ], [ %133, %_ZL23IntegrateStressForElemsR6DomainPdS1_S1_S1_ii.exit._crit_edge.i.i.loopexit.i ]
  %.pre-phi9.i.i = phi i8* [ %.pre8.i.i, %._ZL23IntegrateStressForElemsR6DomainPdS1_S1_S1_ii.exit._crit_edge.i_crit_edge.i.i ], [ %132, %_ZL23IntegrateStressForElemsR6DomainPdS1_S1_S1_ii.exit._crit_edge.i.i.loopexit.i ]
  %.pre-phi.i.i = phi i8* [ %.pre.i.i, %._ZL23IntegrateStressForElemsR6DomainPdS1_S1_S1_ii.exit._crit_edge.i_crit_edge.i.i ], [ %131, %_ZL23IntegrateStressForElemsR6DomainPdS1_S1_S1_ii.exit._crit_edge.i.i.loopexit.i ]
  %825 = shl nsw i32 %824, 3
  %826 = sext i32 %825 to i64
  %827 = shl nsw i64 %826, 3
  %828 = call noalias i8* @malloc(i64 %827) #2
  %829 = bitcast i8* %828 to double*
  %830 = call noalias i8* @malloc(i64 %827) #2
  %831 = bitcast i8* %830 to double*
  %832 = call noalias i8* @malloc(i64 %827) #2
  %833 = bitcast i8* %832 to double*
  %834 = call noalias i8* @malloc(i64 %827) #2
  %835 = bitcast i8* %834 to double*
  %836 = call noalias i8* @malloc(i64 %827) #2
  %837 = bitcast i8* %836 to double*
  %838 = call noalias i8* @malloc(i64 %827) #2
  %839 = bitcast i8* %838 to double*
  %840 = icmp sgt i32 %824, 0
  br i1 %840, label %.lr.ph.i13.i.i.i, label %._crit_edge.i.i.i.i

.lr.ph.i13.i.i.i:                                 ; preds = %_ZL23IntegrateStressForElemsR6DomainPdS1_S1_S1_ii.exit._crit_edge.i.i.i
  %841 = getelementptr inbounds %class.Domain, %class.Domain* %domain, i64 0, i32 21, i32 0, i32 0, i32 0
  %842 = load i32*, i32** %841, align 8
  %843 = getelementptr inbounds [8 x double], [8 x double]* %x_local.i.i.i.i, i64 0, i64 0
  %844 = getelementptr inbounds [8 x double], [8 x double]* %y_local.i.i.i.i, i64 0, i64 0
  %845 = getelementptr inbounds [8 x double], [8 x double]* %z_local.i.i.i.i, i64 0, i64 0
  %domain.idx.i7.i.i.i = getelementptr %class.Domain, %class.Domain* %domain, i64 0, i32 0, i32 0, i32 0, i32 0
  %domain.idx.val.i8.i.i.i = load double*, double** %domain.idx.i7.i.i.i, align 8
  %domain.idx1.i9.i.i.i = getelementptr %class.Domain, %class.Domain* %domain, i64 0, i32 1, i32 0, i32 0, i32 0
  %domain.idx1.val.i10.i.i.i = load double*, double** %domain.idx1.i9.i.i.i, align 8
  %domain.idx2.i11.i.i.i = getelementptr %class.Domain, %class.Domain* %domain, i64 0, i32 2, i32 0, i32 0, i32 0
  %domain.idx2.val.i12.i.i.i = load double*, double** %domain.idx2.i11.i.i.i, align 8
  %846 = bitcast [8 x double]* %x_local.i.i.i.i to i64*
  %847 = getelementptr inbounds [8 x double], [8 x double]* %x_local.i.i.i.i, i64 0, i64 1
  %848 = bitcast double* %847 to i64*
  %849 = getelementptr inbounds [8 x double], [8 x double]* %x_local.i.i.i.i, i64 0, i64 2
  %850 = bitcast double* %849 to i64*
  %851 = getelementptr inbounds [8 x double], [8 x double]* %x_local.i.i.i.i, i64 0, i64 3
  %852 = bitcast double* %851 to i64*
  %853 = getelementptr inbounds [8 x double], [8 x double]* %x_local.i.i.i.i, i64 0, i64 4
  %854 = bitcast double* %853 to i64*
  %855 = getelementptr inbounds [8 x double], [8 x double]* %x_local.i.i.i.i, i64 0, i64 5
  %856 = bitcast double* %855 to i64*
  %857 = getelementptr inbounds [8 x double], [8 x double]* %x_local.i.i.i.i, i64 0, i64 6
  %858 = bitcast double* %857 to i64*
  %859 = getelementptr inbounds [8 x double], [8 x double]* %x_local.i.i.i.i, i64 0, i64 7
  %860 = bitcast double* %859 to i64*
  %861 = bitcast [8 x double]* %y_local.i.i.i.i to i64*
  %862 = getelementptr inbounds [8 x double], [8 x double]* %y_local.i.i.i.i, i64 0, i64 1
  %863 = bitcast double* %862 to i64*
  %864 = getelementptr inbounds [8 x double], [8 x double]* %y_local.i.i.i.i, i64 0, i64 2
  %865 = bitcast double* %864 to i64*
  %866 = getelementptr inbounds [8 x double], [8 x double]* %y_local.i.i.i.i, i64 0, i64 3
  %867 = bitcast double* %866 to i64*
  %868 = getelementptr inbounds [8 x double], [8 x double]* %y_local.i.i.i.i, i64 0, i64 4
  %869 = bitcast double* %868 to i64*
  %870 = getelementptr inbounds [8 x double], [8 x double]* %y_local.i.i.i.i, i64 0, i64 5
  %871 = bitcast double* %870 to i64*
  %872 = getelementptr inbounds [8 x double], [8 x double]* %y_local.i.i.i.i, i64 0, i64 6
  %873 = bitcast double* %872 to i64*
  %874 = getelementptr inbounds [8 x double], [8 x double]* %y_local.i.i.i.i, i64 0, i64 7
  %875 = bitcast double* %874 to i64*
  %876 = bitcast [8 x double]* %z_local.i.i.i.i to i64*
  %877 = getelementptr inbounds [8 x double], [8 x double]* %z_local.i.i.i.i, i64 0, i64 1
  %878 = bitcast double* %877 to i64*
  %879 = getelementptr inbounds [8 x double], [8 x double]* %z_local.i.i.i.i, i64 0, i64 2
  %880 = bitcast double* %879 to i64*
  %881 = getelementptr inbounds [8 x double], [8 x double]* %z_local.i.i.i.i, i64 0, i64 3
  %882 = bitcast double* %881 to i64*
  %883 = getelementptr inbounds [8 x double], [8 x double]* %z_local.i.i.i.i, i64 0, i64 4
  %884 = bitcast double* %883 to i64*
  %885 = getelementptr inbounds [8 x double], [8 x double]* %z_local.i.i.i.i, i64 0, i64 5
  %886 = bitcast double* %885 to i64*
  %887 = getelementptr inbounds [8 x double], [8 x double]* %z_local.i.i.i.i, i64 0, i64 6
  %888 = bitcast double* %887 to i64*
  %889 = getelementptr inbounds [8 x double], [8 x double]* %z_local.i.i.i.i, i64 0, i64 7
  %890 = bitcast double* %889 to i64*
  %891 = getelementptr inbounds %class.Domain, %class.Domain* %domain, i64 0, i32 44, i32 0, i32 0, i32 0
  %892 = load double*, double** %891, align 8
  %893 = getelementptr inbounds %class.Domain, %class.Domain* %domain, i64 0, i32 43, i32 0, i32 0, i32 0
  %894 = load double*, double** %893, align 8
  %895 = sext i32 %824 to i64
  br label %897

._crit_edge.i.i.i.i.loopexit:                     ; preds = %1409
  br label %._crit_edge.i.i.i.i

._crit_edge.i.i.i.i:                              ; preds = %._crit_edge.i.i.i.i.loopexit, %_ZL23IntegrateStressForElemsR6DomainPdS1_S1_S1_ii.exit._crit_edge.i.i.i
  %896 = fcmp ogt double %69, 0.000000e+00
  br i1 %896, label %1411, label %2297

; <label>:897                                     ; preds = %1409, %.lr.ph.i13.i.i.i
  %indvars.iv11.i.i.i.i = phi i64 [ 0, %.lr.ph.i13.i.i.i ], [ %indvars.iv.next12.i.i.i.i, %1409 ]
  %898 = shl i64 %indvars.iv11.i.i.i.i, 35
  %899 = ashr exact i64 %898, 29
  %scevgep17.i.i.i.i = getelementptr i8, i8* %838, i64 %899
  %scevgep16.i.i.i.i = getelementptr i8, i8* %836, i64 %899
  %scevgep15.i.i.i.i = getelementptr i8, i8* %834, i64 %899
  %scevgep14.i.i.i.i = getelementptr i8, i8* %832, i64 %899
  %scevgep13.i.i.i.i = getelementptr i8, i8* %830, i64 %899
  %scevgep.i.i.i.i = getelementptr i8, i8* %828, i64 %899
  call void @llvm.lifetime.start(i64 64, i8* %.pre-phi.i.i) #2
  call void @llvm.lifetime.start(i64 64, i8* %.pre-phi9.i.i) #2
  call void @llvm.lifetime.start(i64 64, i8* %.pre-phi11.i.i) #2
  %900 = trunc i64 %indvars.iv11.i.i.i.i to i32
  %901 = shl nsw i32 %900, 3
  %902 = sext i32 %901 to i64
  %903 = getelementptr inbounds i32, i32* %842, i64 %902
  %904 = load i32, i32* %903, align 4, !tbaa !12
  %905 = getelementptr inbounds i32, i32* %903, i64 1
  %906 = load i32, i32* %905, align 4, !tbaa !12
  %907 = getelementptr inbounds i32, i32* %903, i64 2
  %908 = load i32, i32* %907, align 4, !tbaa !12
  %909 = getelementptr inbounds i32, i32* %903, i64 3
  %910 = load i32, i32* %909, align 4, !tbaa !12
  %911 = getelementptr inbounds i32, i32* %903, i64 4
  %912 = load i32, i32* %911, align 4, !tbaa !12
  %913 = getelementptr inbounds i32, i32* %903, i64 5
  %914 = load i32, i32* %913, align 4, !tbaa !12
  %915 = getelementptr inbounds i32, i32* %903, i64 6
  %916 = load i32, i32* %915, align 4, !tbaa !12
  %917 = getelementptr inbounds i32, i32* %903, i64 7
  %918 = load i32, i32* %917, align 4, !tbaa !12
  %919 = sext i32 %904 to i64
  %920 = getelementptr inbounds double, double* %domain.idx.val.i8.i.i.i, i64 %919
  %921 = bitcast double* %920 to i64*
  %922 = load i64, i64* %921, align 8, !tbaa !1
  store i64 %922, i64* %846, align 16, !tbaa !1
  %923 = sext i32 %906 to i64
  %924 = getelementptr inbounds double, double* %domain.idx.val.i8.i.i.i, i64 %923
  %925 = bitcast double* %924 to i64*
  %926 = load i64, i64* %925, align 8, !tbaa !1
  store i64 %926, i64* %848, align 8, !tbaa !1
  %927 = sext i32 %908 to i64
  %928 = getelementptr inbounds double, double* %domain.idx.val.i8.i.i.i, i64 %927
  %929 = bitcast double* %928 to i64*
  %930 = load i64, i64* %929, align 8, !tbaa !1
  store i64 %930, i64* %850, align 16, !tbaa !1
  %931 = sext i32 %910 to i64
  %932 = getelementptr inbounds double, double* %domain.idx.val.i8.i.i.i, i64 %931
  %933 = bitcast double* %932 to i64*
  %934 = load i64, i64* %933, align 8, !tbaa !1
  store i64 %934, i64* %852, align 8, !tbaa !1
  %935 = sext i32 %912 to i64
  %936 = getelementptr inbounds double, double* %domain.idx.val.i8.i.i.i, i64 %935
  %937 = bitcast double* %936 to i64*
  %938 = load i64, i64* %937, align 8, !tbaa !1
  store i64 %938, i64* %854, align 16, !tbaa !1
  %939 = sext i32 %914 to i64
  %940 = getelementptr inbounds double, double* %domain.idx.val.i8.i.i.i, i64 %939
  %941 = bitcast double* %940 to i64*
  %942 = load i64, i64* %941, align 8, !tbaa !1
  store i64 %942, i64* %856, align 8, !tbaa !1
  %943 = sext i32 %916 to i64
  %944 = getelementptr inbounds double, double* %domain.idx.val.i8.i.i.i, i64 %943
  %945 = bitcast double* %944 to i64*
  %946 = load i64, i64* %945, align 8, !tbaa !1
  store i64 %946, i64* %858, align 16, !tbaa !1
  %947 = sext i32 %918 to i64
  %948 = getelementptr inbounds double, double* %domain.idx.val.i8.i.i.i, i64 %947
  %949 = bitcast double* %948 to i64*
  %950 = load i64, i64* %949, align 8, !tbaa !1
  store i64 %950, i64* %860, align 8, !tbaa !1
  %951 = getelementptr inbounds double, double* %domain.idx1.val.i10.i.i.i, i64 %919
  %952 = bitcast double* %951 to i64*
  %953 = load i64, i64* %952, align 8, !tbaa !1
  store i64 %953, i64* %861, align 16, !tbaa !1
  %954 = getelementptr inbounds double, double* %domain.idx1.val.i10.i.i.i, i64 %923
  %955 = bitcast double* %954 to i64*
  %956 = load i64, i64* %955, align 8, !tbaa !1
  store i64 %956, i64* %863, align 8, !tbaa !1
  %957 = getelementptr inbounds double, double* %domain.idx1.val.i10.i.i.i, i64 %927
  %958 = bitcast double* %957 to i64*
  %959 = load i64, i64* %958, align 8, !tbaa !1
  store i64 %959, i64* %865, align 16, !tbaa !1
  %960 = getelementptr inbounds double, double* %domain.idx1.val.i10.i.i.i, i64 %931
  %961 = bitcast double* %960 to i64*
  %962 = load i64, i64* %961, align 8, !tbaa !1
  store i64 %962, i64* %867, align 8, !tbaa !1
  %963 = getelementptr inbounds double, double* %domain.idx1.val.i10.i.i.i, i64 %935
  %964 = bitcast double* %963 to i64*
  %965 = load i64, i64* %964, align 8, !tbaa !1
  store i64 %965, i64* %869, align 16, !tbaa !1
  %966 = getelementptr inbounds double, double* %domain.idx1.val.i10.i.i.i, i64 %939
  %967 = bitcast double* %966 to i64*
  %968 = load i64, i64* %967, align 8, !tbaa !1
  store i64 %968, i64* %871, align 8, !tbaa !1
  %969 = getelementptr inbounds double, double* %domain.idx1.val.i10.i.i.i, i64 %943
  %970 = bitcast double* %969 to i64*
  %971 = load i64, i64* %970, align 8, !tbaa !1
  store i64 %971, i64* %873, align 16, !tbaa !1
  %972 = getelementptr inbounds double, double* %domain.idx1.val.i10.i.i.i, i64 %947
  %973 = bitcast double* %972 to i64*
  %974 = load i64, i64* %973, align 8, !tbaa !1
  store i64 %974, i64* %875, align 8, !tbaa !1
  %975 = getelementptr inbounds double, double* %domain.idx2.val.i12.i.i.i, i64 %919
  %976 = bitcast double* %975 to i64*
  %977 = load i64, i64* %976, align 8, !tbaa !1
  store i64 %977, i64* %876, align 16, !tbaa !1
  %978 = getelementptr inbounds double, double* %domain.idx2.val.i12.i.i.i, i64 %923
  %979 = bitcast double* %978 to i64*
  %980 = load i64, i64* %979, align 8, !tbaa !1
  store i64 %980, i64* %878, align 8, !tbaa !1
  %981 = getelementptr inbounds double, double* %domain.idx2.val.i12.i.i.i, i64 %927
  %982 = bitcast double* %981 to i64*
  %983 = load i64, i64* %982, align 8, !tbaa !1
  store i64 %983, i64* %880, align 16, !tbaa !1
  %984 = getelementptr inbounds double, double* %domain.idx2.val.i12.i.i.i, i64 %931
  %985 = bitcast double* %984 to i64*
  %986 = load i64, i64* %985, align 8, !tbaa !1
  store i64 %986, i64* %882, align 8, !tbaa !1
  %987 = getelementptr inbounds double, double* %domain.idx2.val.i12.i.i.i, i64 %935
  %988 = bitcast double* %987 to i64*
  %989 = load i64, i64* %988, align 8, !tbaa !1
  store i64 %989, i64* %884, align 16, !tbaa !1
  %990 = getelementptr inbounds double, double* %domain.idx2.val.i12.i.i.i, i64 %939
  %991 = bitcast double* %990 to i64*
  %992 = load i64, i64* %991, align 8, !tbaa !1
  store i64 %992, i64* %886, align 8, !tbaa !1
  %993 = getelementptr inbounds double, double* %domain.idx2.val.i12.i.i.i, i64 %943
  %994 = bitcast double* %993 to i64*
  %995 = load i64, i64* %994, align 8, !tbaa !1
  store i64 %995, i64* %888, align 16, !tbaa !1
  %996 = getelementptr inbounds double, double* %domain.idx2.val.i12.i.i.i, i64 %947
  %997 = bitcast double* %996 to i64*
  %998 = load i64, i64* %997, align 8, !tbaa !1
  store i64 %998, i64* %890, align 8, !tbaa !1
  %999 = bitcast i64 %926 to double
  %1000 = bitcast i64 %930 to double
  %1001 = bitcast i64 %934 to double
  %1002 = bitcast i64 %938 to double
  %1003 = bitcast i64 %942 to double
  %1004 = bitcast i64 %950 to double
  %1005 = bitcast i64 %956 to double
  %1006 = bitcast i64 %959 to double
  %1007 = bitcast i64 %962 to double
  %1008 = bitcast i64 %965 to double
  %1009 = bitcast i64 %968 to double
  %1010 = bitcast i64 %974 to double
  %1011 = bitcast i64 %980 to double
  %1012 = bitcast i64 %983 to double
  %1013 = bitcast i64 %986 to double
  %1014 = bitcast i64 %992 to double
  %1015 = bitcast i64 %998 to double
  %1016 = insertelement <2 x double> undef, double %1011, i32 0
  %1017 = insertelement <2 x double> %1016, double %1012, i32 1
  %1018 = insertelement <2 x double> undef, double %1012, i32 0
  %1019 = insertelement <2 x double> %1018, double %1013, i32 1
  %1020 = fadd <2 x double> %1017, %1019
  %1021 = bitcast i64 %977 to double
  %1022 = insertelement <2 x double> %1018, double %1021, i32 1
  %1023 = insertelement <2 x double> undef, double %1013, i32 0
  %1024 = insertelement <2 x double> %1023, double %1013, i32 1
  %1025 = fadd <2 x double> %1022, %1024
  %1026 = insertelement <2 x i64> undef, i64 %989, i32 0
  %1027 = insertelement <2 x i64> %1026, i64 %995, i32 1
  %1028 = bitcast <2 x i64> %1027 to <2 x double>
  %1029 = insertelement <2 x double> undef, double %1014, i32 0
  %1030 = insertelement <2 x double> %1029, double %1014, i32 1
  %1031 = fadd <2 x double> %1028, %1030
  %1032 = bitcast i64 %971 to double
  %1033 = insertelement <2 x double> %1016, double %1032, i32 1
  %1034 = insertelement <2 x double> %1029, double %1009, i32 1
  %1035 = fadd <2 x double> %1033, %1034
  %1036 = bitcast i64 %989 to double
  %1037 = insertelement <2 x double> undef, double %1036, i32 0
  %1038 = insertelement <2 x double> %1037, double %1036, i32 1
  %1039 = insertelement <2 x double> undef, double %1015, i32 0
  %1040 = insertelement <2 x double> %1039, double %1014, i32 1
  %1041 = fadd <2 x double> %1038, %1040
  %1042 = insertelement <2 x double> %1023, double %1008, i32 1
  %1043 = insertelement <2 x double> %1039, double %1009, i32 1
  %1044 = fadd <2 x double> %1042, %1043
  %1045 = load double, double* %844, align 16, !tbaa !1
  %1046 = insertelement <2 x double> undef, double %1006, i32 0
  %1047 = insertelement <2 x double> %1046, double %1045, i32 1
  %1048 = insertelement <2 x double> undef, double %1007, i32 0
  %1049 = insertelement <2 x double> %1048, double %1007, i32 1
  %1050 = fadd <2 x double> %1047, %1049
  %1051 = load double, double* %849, align 16, !tbaa !1
  %1052 = load double, double* %851, align 8, !tbaa !1
  %1053 = insertelement <2 x double> undef, double %999, i32 0
  %1054 = insertelement <2 x double> %1053, double %1051, i32 1
  %1055 = insertelement <2 x double> undef, double %1000, i32 0
  %1056 = insertelement <2 x double> %1055, double %1052, i32 1
  %1057 = fadd <2 x double> %1054, %1056
  %1058 = load double, double* %864, align 16, !tbaa !1
  %1059 = insertelement <2 x double> undef, double %1005, i32 0
  %1060 = insertelement <2 x double> %1059, double %1058, i32 1
  %1061 = insertelement <2 x double> %1046, double %1007, i32 1
  %1062 = fadd <2 x double> %1060, %1061
  %1063 = load double, double* %843, align 16, !tbaa !1
  %1064 = insertelement <2 x double> %1055, double %1063, i32 1
  %1065 = insertelement <2 x double> undef, double %1001, i32 0
  %1066 = insertelement <2 x double> %1065, double %1052, i32 1
  %1067 = fadd <2 x double> %1064, %1066
  %1068 = insertelement <2 x double> undef, double %1009, i32 0
  %1069 = insertelement <2 x double> %1068, double %1032, i32 1
  %1070 = fadd <2 x double> %1060, %1069
  %1071 = load double, double* %857, align 16, !tbaa !1
  %1072 = load double, double* %855, align 8, !tbaa !1
  %1073 = insertelement <2 x double> undef, double %1002, i32 0
  %1074 = insertelement <2 x double> %1073, double %1071, i32 1
  %1075 = insertelement <2 x double> undef, double %1003, i32 0
  %1076 = insertelement <2 x double> %1075, double %1072, i32 1
  %1077 = fadd <2 x double> %1074, %1076
  %1078 = insertelement <2 x double> undef, double %1008, i32 0
  %1079 = bitcast i64 %995 to double
  %1080 = insertelement <2 x double> %1078, double %1079, i32 1
  %1081 = insertelement <2 x double> %1068, double %1012, i32 1
  %1082 = fadd <2 x double> %1080, %1081
  %1083 = insertelement <2 x double> %1075, double %1071, i32 1
  %1084 = fadd <2 x double> %1054, %1083
  %1085 = insertelement <2 x double> %1048, double %1045, i32 1
  %1086 = insertelement <2 x double> undef, double %1010, i32 0
  %1087 = insertelement <2 x double> %1086, double %1008, i32 1
  %1088 = fadd <2 x double> %1085, %1087
  %1089 = load double, double* %853, align 16, !tbaa !1
  %1090 = insertelement <2 x double> %1073, double %1089, i32 1
  %1091 = insertelement <2 x double> undef, double %1004, i32 0
  %1092 = insertelement <2 x double> %1091, double %1072, i32 1
  %1093 = fadd <2 x double> %1090, %1092
  %1094 = insertelement <2 x double> %1078, double %1021, i32 1
  %1095 = insertelement <2 x double> %1086, double %1036, i32 1
  %1096 = fadd <2 x double> %1094, %1095
  %1097 = insertelement <2 x double> %1065, double %1063, i32 1
  %1098 = insertelement <2 x double> %1091, double %1089, i32 1
  %1099 = fadd <2 x double> %1097, %1098
  %1100 = load double, double* %847, align 8, !tbaa !1
  %1101 = load double, double* %859, align 8, !tbaa !1
  %1102 = load double, double* %862, align 8, !tbaa !1
  %1103 = load double, double* %874, align 8, !tbaa !1
  %1104 = load double, double* %877, align 8, !tbaa !1
  %1105 = insertelement <2 x double> undef, double %1045, i32 0
  %1106 = insertelement <2 x double> %1105, double %1058, i32 1
  %1107 = insertelement <2 x double> undef, double %1102, i32 0
  %1108 = insertelement <2 x double> %1107, double %1102, i32 1
  %1109 = fadd <2 x double> %1106, %1108
  %1110 = fadd double %1100, %1051
  %1111 = insertelement <2 x double> undef, double %1103, i32 0
  %1112 = insertelement <2 x double> %1111, double %1021, i32 1
  %1113 = insertelement <2 x double> %1048, double %1104, i32 1
  %1114 = fadd <2 x double> %1112, %1113
  %1115 = load double, double* %889, align 8, !tbaa !1
  %1116 = insertelement <2 x double> undef, double %1079, i32 0
  %1117 = insertelement <2 x double> %1116, double %1015, i32 1
  %1118 = insertelement <2 x double> undef, double %1115, i32 0
  %1119 = insertelement <2 x double> %1118, double %1036, i32 1
  %1120 = fadd <2 x double> %1117, %1119
  %1121 = insertelement <2 x double> %1107, double %1079, i32 1
  %1122 = insertelement <2 x double> %1068, double %1015, i32 1
  %1123 = fadd <2 x double> %1121, %1122
  %1124 = insertelement <2 x double> undef, double %1101, i32 0
  %1125 = insertelement <2 x double> %1124, double %1101, i32 1
  %1126 = insertelement <2 x double> undef, double %1071, i32 0
  %1127 = insertelement <2 x double> %1126, double %1089, i32 1
  %1128 = fadd <2 x double> %1125, %1127
  %1129 = insertelement <2 x double> %1023, double %1063, i32 1
  %1130 = insertelement <2 x double> %1118, double %1100, i32 1
  %1131 = fadd <2 x double> %1129, %1130
  %1132 = extractelement <2 x double> %1131, i32 1
  %1133 = insertelement <2 x double> undef, double %1104, i32 0
  %1134 = insertelement <2 x double> %1133, double %1103, i32 1
  %1135 = insertelement <2 x double> %1029, double %1032, i32 1
  %1136 = fadd <2 x double> %1134, %1135
  %1137 = shufflevector <2 x double> %1025, <2 x double> undef, <2 x i32> <i32 1, i32 undef>
  %1138 = shufflevector <2 x double> %1137, <2 x double> %1114, <2 x i32> <i32 0, i32 3>
  %1139 = fmul <2 x double> %1109, %1138
  %1140 = shufflevector <2 x double> %1114, <2 x double> undef, <2 x i32> <i32 1, i32 undef>
  %1141 = shufflevector <2 x double> %1140, <2 x double> %1109, <2 x i32> <i32 0, i32 2>
  %1142 = shufflevector <2 x double> %1050, <2 x double> undef, <2 x i32> <i32 1, i32 undef>
  %1143 = insertelement <2 x double> undef, double %1100, i32 0
  %1144 = insertelement <2 x double> %1143, double %1104, i32 1
  %1145 = insertelement <2 x double> undef, double %1072, i32 0
  %1146 = insertelement <2 x double> %1145, double %1012, i32 1
  %1147 = fadd <2 x double> %1144, %1146
  %1148 = shufflevector <2 x double> %1142, <2 x double> %1147, <2 x i32> <i32 0, i32 3>
  %1149 = fmul <2 x double> %1141, %1148
  %1150 = fsub <2 x double> %1139, %1149
  %1151 = shufflevector <2 x double> %1114, <2 x double> %1088, <2 x i32> <i32 0, i32 3>
  %1152 = fmul <2 x double> %1151, %1120
  %1153 = fadd <2 x double> %1150, %1152
  %1154 = shufflevector <2 x double> %1136, <2 x double> undef, <2 x i32> <i32 1, i32 undef>
  %1155 = insertelement <2 x double> %1124, double %1103, i32 1
  %1156 = insertelement <2 x double> undef, double %1052, i32 0
  %1157 = insertelement <2 x double> %1156, double %1008, i32 1
  %1158 = fadd <2 x double> %1155, %1157
  %1159 = shufflevector <2 x double> %1154, <2 x double> %1158, <2 x i32> <i32 0, i32 3>
  %1160 = shufflevector <2 x double> %1131, <2 x double> %1096, <2 x i32> <i32 0, i32 3>
  %1161 = fmul <2 x double> %1159, %1160
  %1162 = fsub <2 x double> %1153, %1161
  %1163 = shufflevector <2 x double> %1031, <2 x double> undef, <2 x i32> <i32 1, i32 undef>
  %1164 = shufflevector <2 x double> %1163, <2 x double> %1070, <2 x i32> <i32 0, i32 3>
  %1165 = fmul <2 x double> %1123, %1164
  %1166 = fsub <2 x double> %1162, %1165
  %1167 = shufflevector <2 x double> %1035, <2 x double> undef, <2 x i32> <i32 1, i32 undef>
  %1168 = shufflevector <2 x double> %1167, <2 x double> %1082, <2 x i32> <i32 0, i32 3>
  %1169 = fmul <2 x double> %1168, %1136
  %1170 = fadd <2 x double> %1169, %1166
  %1171 = insertelement <2 x double> undef, double %1132, i32 0
  %1172 = insertelement <2 x double> %1171, double %1110, i32 1
  %1173 = fmul <2 x double> %1172, %1138
  %1174 = shufflevector <2 x double> %1140, <2 x double> %1131, <2 x i32> <i32 0, i32 3>
  %1175 = shufflevector <2 x double> %1067, <2 x double> undef, <2 x i32> <i32 1, i32 undef>
  %1176 = shufflevector <2 x double> %1175, <2 x double> %1147, <2 x i32> <i32 0, i32 3>
  %1177 = fmul <2 x double> %1174, %1176
  %1178 = fsub <2 x double> %1177, %1173
  %1179 = shufflevector <2 x double> %1158, <2 x double> %1099, <2 x i32> <i32 0, i32 3>
  %1180 = fmul <2 x double> %1179, %1120
  %1181 = fsub <2 x double> %1178, %1180
  %1182 = fmul <2 x double> %1128, %1160
  %1183 = fadd <2 x double> %1182, %1181
  %1184 = shufflevector <2 x double> %1147, <2 x double> %1123, <2 x i32> <i32 0, i32 3>
  %1185 = shufflevector <2 x double> %1163, <2 x double> %1084, <2 x i32> <i32 0, i32 3>
  %1186 = fmul <2 x double> %1184, %1185
  %1187 = fadd <2 x double> %1186, %1183
  %1188 = shufflevector <2 x double> %1077, <2 x double> undef, <2 x i32> <i32 1, i32 undef>
  %1189 = shufflevector <2 x double> %1188, <2 x double> %1128, <2 x i32> <i32 0, i32 2>
  %1190 = shufflevector <2 x double> %1136, <2 x double> %1082, <2 x i32> <i32 0, i32 3>
  %1191 = fmul <2 x double> %1189, %1190
  %1192 = fsub <2 x double> %1187, %1191
  %1193 = shufflevector <2 x double> %1109, <2 x double> %1131, <2 x i32> <i32 0, i32 3>
  %1194 = shufflevector <2 x double> %1175, <2 x double> %1109, <2 x i32> <i32 0, i32 3>
  %1195 = fmul <2 x double> %1193, %1194
  %1196 = shufflevector <2 x double> %1142, <2 x double> %1109, <2 x i32> <i32 0, i32 2>
  %1197 = fmul <2 x double> %1172, %1196
  %1198 = fsub <2 x double> %1197, %1195
  %1199 = fmul <2 x double> %1128, %1151
  %1200 = fsub <2 x double> %1198, %1199
  %1201 = shufflevector <2 x double> %1154, <2 x double> %1099, <2 x i32> <i32 0, i32 3>
  %1202 = fmul <2 x double> %1201, %1158
  %1203 = fadd <2 x double> %1202, %1200
  %1204 = shufflevector <2 x double> %1123, <2 x double> %1070, <2 x i32> <i32 0, i32 3>
  %1205 = fmul <2 x double> %1189, %1204
  %1206 = fadd <2 x double> %1205, %1203
  %1207 = shufflevector <2 x double> %1147, <2 x double> %1084, <2 x i32> <i32 0, i32 3>
  %1208 = shufflevector <2 x double> %1167, <2 x double> %1136, <2 x i32> <i32 0, i32 3>
  %1209 = fmul <2 x double> %1207, %1208
  %1210 = fsub <2 x double> %1206, %1209
  %1211 = fmul <2 x double> %1170, <double 0x3FB5555555555555, double 0x3FB5555555555555>
  %1212 = fmul <2 x double> %1192, <double 0x3FB5555555555555, double 0x3FB5555555555555>
  %1213 = fmul <2 x double> %1210, <double 0x3FB5555555555555, double 0x3FB5555555555555>
  %1214 = fmul <2 x double> %1050, %1020
  %1215 = fmul <2 x double> %1062, %1025
  %1216 = fsub <2 x double> %1214, %1215
  %1217 = fmul <2 x double> %1070, %1031
  %1218 = fadd <2 x double> %1216, %1217
  %1219 = fmul <2 x double> %1082, %1035
  %1220 = fsub <2 x double> %1218, %1219
  %1221 = fmul <2 x double> %1088, %1041
  %1222 = fsub <2 x double> %1220, %1221
  %1223 = fmul <2 x double> %1096, %1044
  %1224 = fadd <2 x double> %1223, %1222
  %1225 = fmul <2 x double> %1067, %1020
  %1226 = fmul <2 x double> %1057, %1025
  %1227 = fsub <2 x double> %1226, %1225
  %1228 = fmul <2 x double> %1084, %1031
  %1229 = fsub <2 x double> %1227, %1228
  %1230 = shufflevector <2 x double> %1035, <2 x double> %1082, <2 x i32> <i32 0, i32 3>
  %1231 = fmul <2 x double> %1077, %1230
  %1232 = fadd <2 x double> %1231, %1229
  %1233 = fmul <2 x double> %1099, %1041
  %1234 = fadd <2 x double> %1232, %1233
  %1235 = shufflevector <2 x double> %1044, <2 x double> %1096, <2 x i32> <i32 0, i32 3>
  %1236 = fmul <2 x double> %1093, %1235
  %1237 = fsub <2 x double> %1234, %1236
  %1238 = fmul <2 x double> %1057, %1050
  %1239 = fmul <2 x double> %1067, %1062
  %1240 = fsub <2 x double> %1239, %1238
  %1241 = shufflevector <2 x double> %1077, <2 x double> %1070, <2 x i32> <i32 0, i32 3>
  %1242 = shufflevector <2 x double> %1070, <2 x double> %1077, <2 x i32> <i32 0, i32 3>
  %1243 = fmul <2 x double> %1241, %1242
  %1244 = fsub <2 x double> %1240, %1243
  %1245 = shufflevector <2 x double> %1082, <2 x double> %1035, <2 x i32> <i32 0, i32 3>
  %1246 = fmul <2 x double> %1084, %1245
  %1247 = fadd <2 x double> %1246, %1244
  %1248 = shufflevector <2 x double> %1093, <2 x double> %1088, <2 x i32> <i32 0, i32 3>
  %1249 = shufflevector <2 x double> %1088, <2 x double> %1093, <2 x i32> <i32 0, i32 3>
  %1250 = fmul <2 x double> %1248, %1249
  %1251 = fadd <2 x double> %1247, %1250
  %1252 = shufflevector <2 x double> %1096, <2 x double> %1044, <2 x i32> <i32 0, i32 3>
  %1253 = fmul <2 x double> %1099, %1252
  %1254 = fsub <2 x double> %1251, %1253
  %1255 = fmul <2 x double> %1224, <double 0x3FB5555555555555, double 0x3FB5555555555555>
  %1256 = fmul <2 x double> %1237, <double 0x3FB5555555555555, double 0x3FB5555555555555>
  %1257 = fmul <2 x double> %1254, <double 0x3FB5555555555555, double 0x3FB5555555555555>
  %1258 = extractelement <2 x double> %1120, i32 0
  %1259 = fadd double %1036, %1115
  %1260 = insertelement <2 x double> undef, double %1258, i32 0
  %1261 = insertelement <2 x double> %1260, double %1259, i32 1
  %1262 = fmul <2 x double> %1208, %1261
  %1263 = shufflevector <2 x double> %1163, <2 x double> %1120, <2 x i32> <i32 0, i32 2>
  %1264 = fmul <2 x double> %1159, %1263
  %1265 = fsub <2 x double> %1262, %1264
  %1266 = shufflevector <2 x double> %1137, <2 x double> %1088, <2 x i32> <i32 0, i32 3>
  %1267 = fmul <2 x double> %1114, %1266
  %1268 = fadd <2 x double> %1267, %1265
  %1269 = fmul <2 x double> %1196, %1160
  %1270 = fsub <2 x double> %1268, %1269
  %1271 = shufflevector <2 x double> %1140, <2 x double> %1147, <2 x i32> <i32 0, i32 3>
  %1272 = fmul <2 x double> %1271, %1204
  %1273 = fsub <2 x double> %1270, %1272
  %1274 = fmul <2 x double> %1109, %1190
  %1275 = fadd <2 x double> %1274, %1273
  %1276 = fmul <2 x double> %1189, %1261
  %1277 = fmul <2 x double> %1128, %1263
  %1278 = fsub <2 x double> %1277, %1276
  %1279 = fmul <2 x double> %1179, %1138
  %1280 = fsub <2 x double> %1278, %1279
  %1281 = shufflevector <2 x double> %1175, <2 x double> %1096, <2 x i32> <i32 0, i32 3>
  %1282 = fmul <2 x double> %1281, %1131
  %1283 = fadd <2 x double> %1282, %1280
  %1284 = shufflevector <2 x double> %1140, <2 x double> %1084, <2 x i32> <i32 0, i32 3>
  %1285 = fmul <2 x double> %1284, %1147
  %1286 = fadd <2 x double> %1285, %1283
  %1287 = fmul <2 x double> %1172, %1190
  %1288 = fsub <2 x double> %1286, %1287
  %1289 = fmul <2 x double> %1128, %1208
  %1290 = shufflevector <2 x double> %1154, <2 x double> %1128, <2 x i32> <i32 0, i32 2>
  %1291 = shufflevector <2 x double> %1188, <2 x double> %1158, <2 x i32> <i32 0, i32 3>
  %1292 = fmul <2 x double> %1290, %1291
  %1293 = fsub <2 x double> %1292, %1289
  %1294 = shufflevector <2 x double> %1175, <2 x double> %1131, <2 x i32> <i32 0, i32 3>
  %1295 = fmul <2 x double> %1294, %1151
  %1296 = fsub <2 x double> %1293, %1295
  %1297 = fmul <2 x double> %1179, %1196
  %1298 = fadd <2 x double> %1297, %1296
  %1299 = fmul <2 x double> %1172, %1204
  %1300 = fadd <2 x double> %1299, %1298
  %1301 = shufflevector <2 x double> %1109, <2 x double> %1084, <2 x i32> <i32 0, i32 3>
  %1302 = shufflevector <2 x double> %1147, <2 x double> %1109, <2 x i32> <i32 0, i32 3>
  %1303 = fmul <2 x double> %1301, %1302
  %1304 = fsub <2 x double> %1300, %1303
  %1305 = fmul <2 x double> %1275, <double 0x3FB5555555555555, double 0x3FB5555555555555>
  %1306 = fmul <2 x double> %1288, <double 0x3FB5555555555555, double 0x3FB5555555555555>
  %1307 = fmul <2 x double> %1304, <double 0x3FB5555555555555, double 0x3FB5555555555555>
  %1308 = shufflevector <2 x double> %1158, <2 x double> undef, <2 x i32> <i32 1, i32 undef>
  %1309 = shufflevector <2 x double> %1308, <2 x double> %1044, <2 x i32> <i32 0, i32 3>
  %1310 = shufflevector <2 x double> %1041, <2 x double> %1031, <2 x i32> <i32 1, i32 3>
  %1311 = fmul <2 x double> %1309, %1310
  %1312 = shufflevector <2 x double> %1044, <2 x double> %1035, <2 x i32> <i32 1, i32 3>
  %1313 = insertelement <2 x double> undef, double %1259, i32 0
  %1314 = shufflevector <2 x double> %1313, <2 x double> %1041, <2 x i32> <i32 0, i32 3>
  %1315 = fmul <2 x double> %1312, %1314
  %1316 = fsub <2 x double> %1311, %1315
  %1317 = shufflevector <2 x double> %1147, <2 x double> undef, <2 x i32> <i32 1, i32 undef>
  %1318 = shufflevector <2 x double> %1317, <2 x double> %1070, <2 x i32> <i32 0, i32 3>
  %1319 = shufflevector <2 x double> %1123, <2 x double> %1020, <2 x i32> <i32 0, i32 3>
  %1320 = fmul <2 x double> %1318, %1319
  %1321 = fadd <2 x double> %1320, %1316
  %1322 = shufflevector <2 x double> %1109, <2 x double> undef, <2 x i32> <i32 1, i32 undef>
  %1323 = shufflevector <2 x double> %1322, <2 x double> %1082, <2 x i32> <i32 0, i32 3>
  %1324 = shufflevector <2 x double> %1136, <2 x double> %1062, <2 x i32> <i32 0, i32 3>
  %1325 = fmul <2 x double> %1323, %1324
  %1326 = fsub <2 x double> %1321, %1325
  %1327 = shufflevector <2 x double> %1020, <2 x double> %1025, <2 x i32> <i32 1, i32 3>
  %1328 = fmul <2 x double> %1151, %1327
  %1329 = fsub <2 x double> %1326, %1328
  %1330 = shufflevector <2 x double> %1062, <2 x double> undef, <2 x i32> <i32 1, i32 undef>
  %1331 = shufflevector <2 x double> %1330, <2 x double> %1096, <2 x i32> <i32 0, i32 3>
  %1332 = shufflevector <2 x double> %1131, <2 x double> %1050, <2 x i32> <i32 0, i32 3>
  %1333 = fmul <2 x double> %1331, %1332
  %1334 = fadd <2 x double> %1333, %1329
  %1335 = shufflevector <2 x double> %1128, <2 x double> %1093, <2 x i32> <i32 1, i32 3>
  %1336 = fmul <2 x double> %1335, %1310
  %1337 = shufflevector <2 x double> %1093, <2 x double> undef, <2 x i32> <i32 1, i32 undef>
  %1338 = shufflevector <2 x double> %1337, <2 x double> %1077, <2 x i32> <i32 0, i32 3>
  %1339 = fmul <2 x double> %1338, %1314
  %1340 = fsub <2 x double> %1339, %1336
  %1341 = shufflevector <2 x double> %1317, <2 x double> %1084, <2 x i32> <i32 0, i32 3>
  %1342 = shufflevector <2 x double> %1147, <2 x double> %1020, <2 x i32> <i32 0, i32 3>
  %1343 = fmul <2 x double> %1341, %1342
  %1344 = fsub <2 x double> %1340, %1343
  %1345 = insertelement <2 x double> undef, double %1110, i32 0
  %1346 = shufflevector <2 x double> %1345, <2 x double> %1082, <2 x i32> <i32 0, i32 3>
  %1347 = shufflevector <2 x double> %1136, <2 x double> %1057, <2 x i32> <i32 0, i32 3>
  %1348 = fmul <2 x double> %1346, %1347
  %1349 = fadd <2 x double> %1348, %1344
  %1350 = fmul <2 x double> %1179, %1327
  %1351 = fadd <2 x double> %1350, %1349
  %1352 = shufflevector <2 x double> %1057, <2 x double> undef, <2 x i32> <i32 1, i32 undef>
  %1353 = shufflevector <2 x double> %1352, <2 x double> %1096, <2 x i32> <i32 0, i32 3>
  %1354 = shufflevector <2 x double> %1131, <2 x double> %1067, <2 x i32> <i32 0, i32 3>
  %1355 = fmul <2 x double> %1353, %1354
  %1356 = fsub <2 x double> %1351, %1355
  %1357 = shufflevector <2 x double> %1308, <2 x double> %1077, <2 x i32> <i32 0, i32 3>
  %1358 = shufflevector <2 x double> %1337, <2 x double> %1044, <2 x i32> <i32 0, i32 3>
  %1359 = fmul <2 x double> %1357, %1358
  %1360 = fmul <2 x double> %1335, %1312
  %1361 = fsub <2 x double> %1360, %1359
  %1362 = shufflevector <2 x double> %1345, <2 x double> %1070, <2 x i32> <i32 0, i32 3>
  %1363 = shufflevector <2 x double> %1123, <2 x double> %1057, <2 x i32> <i32 0, i32 3>
  %1364 = fmul <2 x double> %1362, %1363
  %1365 = fsub <2 x double> %1361, %1364
  %1366 = shufflevector <2 x double> %1322, <2 x double> %1084, <2 x i32> <i32 0, i32 3>
  %1367 = shufflevector <2 x double> %1147, <2 x double> %1062, <2 x i32> <i32 0, i32 3>
  %1368 = fmul <2 x double> %1366, %1367
  %1369 = fadd <2 x double> %1368, %1365
  %1370 = shufflevector <2 x double> %1352, <2 x double> %1088, <2 x i32> <i32 0, i32 3>
  %1371 = shufflevector <2 x double> %1114, <2 x double> %1067, <2 x i32> <i32 0, i32 3>
  %1372 = fmul <2 x double> %1370, %1371
  %1373 = fadd <2 x double> %1372, %1369
  %1374 = shufflevector <2 x double> %1330, <2 x double> %1050, <2 x i32> <i32 0, i32 3>
  %1375 = fmul <2 x double> %1179, %1374
  %1376 = fsub <2 x double> %1373, %1375
  %1377 = fmul <2 x double> %1334, <double 0x3FB5555555555555, double 0x3FB5555555555555>
  %1378 = fmul <2 x double> %1356, <double 0x3FB5555555555555, double 0x3FB5555555555555>
  %1379 = fmul <2 x double> %1376, <double 0x3FB5555555555555, double 0x3FB5555555555555>
  %1380 = bitcast i8* %scevgep.i.i.i.i to <2 x double>*
  store <2 x double> %1255, <2 x double>* %1380, align 8
  %1381 = getelementptr inbounds i8, i8* %scevgep.i.i.i.i, i64 16
  %1382 = bitcast i8* %1381 to <2 x double>*
  store <2 x double> %1211, <2 x double>* %1382, align 8
  %1383 = getelementptr inbounds i8, i8* %scevgep.i.i.i.i, i64 32
  %1384 = bitcast i8* %1383 to <2 x double>*
  store <2 x double> %1305, <2 x double>* %1384, align 8
  %1385 = getelementptr inbounds i8, i8* %scevgep.i.i.i.i, i64 48
  %1386 = bitcast i8* %1385 to <2 x double>*
  store <2 x double> %1377, <2 x double>* %1386, align 8
  %1387 = bitcast i8* %scevgep13.i.i.i.i to <2 x double>*
  store <2 x double> %1256, <2 x double>* %1387, align 8
  %1388 = getelementptr inbounds i8, i8* %scevgep13.i.i.i.i, i64 16
  %1389 = bitcast i8* %1388 to <2 x double>*
  store <2 x double> %1212, <2 x double>* %1389, align 8
  %1390 = getelementptr inbounds i8, i8* %scevgep13.i.i.i.i, i64 32
  %1391 = bitcast i8* %1390 to <2 x double>*
  store <2 x double> %1306, <2 x double>* %1391, align 8
  %1392 = getelementptr inbounds i8, i8* %scevgep13.i.i.i.i, i64 48
  %1393 = bitcast i8* %1392 to <2 x double>*
  store <2 x double> %1378, <2 x double>* %1393, align 8
  %1394 = bitcast i8* %scevgep14.i.i.i.i to <2 x double>*
  store <2 x double> %1257, <2 x double>* %1394, align 8
  %1395 = getelementptr inbounds i8, i8* %scevgep14.i.i.i.i, i64 16
  %1396 = bitcast i8* %1395 to <2 x double>*
  store <2 x double> %1213, <2 x double>* %1396, align 8
  %1397 = getelementptr inbounds i8, i8* %scevgep14.i.i.i.i, i64 32
  %1398 = bitcast i8* %1397 to <2 x double>*
  store <2 x double> %1307, <2 x double>* %1398, align 8
  %1399 = getelementptr inbounds i8, i8* %scevgep14.i.i.i.i, i64 48
  %1400 = bitcast i8* %1399 to <2 x double>*
  store <2 x double> %1379, <2 x double>* %1400, align 8
  call void @llvm.memcpy.p0i8.p0i8.i64(i8* %scevgep15.i.i.i.i, i8* %.pre-phi.i.i, i64 64, i32 8, i1 false) #2
  call void @llvm.memcpy.p0i8.p0i8.i64(i8* %scevgep16.i.i.i.i, i8* %.pre-phi9.i.i, i64 64, i32 8, i1 false) #2
  call void @llvm.memcpy.p0i8.p0i8.i64(i8* %scevgep17.i.i.i.i, i8* %.pre-phi11.i.i, i64 64, i32 8, i1 false) #2
  %1401 = getelementptr inbounds double, double* %892, i64 %indvars.iv11.i.i.i.i
  %1402 = load double, double* %1401, align 8, !tbaa !1
  %1403 = getelementptr inbounds double, double* %894, i64 %indvars.iv11.i.i.i.i
  %1404 = load double, double* %1403, align 8, !tbaa !1
  %1405 = fmul double %1402, %1404
  %1406 = getelementptr inbounds double, double* %79, i64 %indvars.iv11.i.i.i.i
  store double %1405, double* %1406, align 8, !tbaa !1
  %1407 = fcmp ugt double %1404, 0.000000e+00
  br i1 %1407, label %1409, label %1408

; <label>:1408                                    ; preds = %897
  call void @exit(i32 -1) #20
  unreachable

; <label>:1409                                    ; preds = %897
  call void @llvm.lifetime.end(i64 64, i8* nonnull %.pre-phi11.i.i) #2
  call void @llvm.lifetime.end(i64 64, i8* nonnull %.pre-phi9.i.i) #2
  call void @llvm.lifetime.end(i64 64, i8* nonnull %.pre-phi.i.i) #2
  %indvars.iv.next12.i.i.i.i = add nuw nsw i64 %indvars.iv11.i.i.i.i, 1
  %1410 = icmp slt i64 %indvars.iv.next12.i.i.i.i, %895
  br i1 %1410, label %897, label %._crit_edge.i.i.i.i.loopexit

; <label>:1411                                    ; preds = %._crit_edge.i.i.i.i
  %1412 = bitcast [4 x [8 x double]]* %gamma.i.i.i.i.i to i8*
  call void @llvm.lifetime.start(i64 256, i8* %1412) #2
  %1413 = bitcast [4 x [8 x double]]* %gamma.i.i.i.i.i to <2 x double>*
  store <2 x double> <double 1.000000e+00, double 1.000000e+00>, <2 x double>* %1413, align 16, !tbaa !1
  %1414 = getelementptr inbounds [4 x [8 x double]], [4 x [8 x double]]* %gamma.i.i.i.i.i, i64 0, i64 0, i64 2
  %1415 = bitcast double* %1414 to <2 x double>*
  store <2 x double> <double -1.000000e+00, double -1.000000e+00>, <2 x double>* %1415, align 16, !tbaa !1
  %1416 = getelementptr inbounds [4 x [8 x double]], [4 x [8 x double]]* %gamma.i.i.i.i.i, i64 0, i64 0, i64 4
  %1417 = bitcast double* %1416 to <2 x double>*
  store <2 x double> <double -1.000000e+00, double -1.000000e+00>, <2 x double>* %1417, align 16, !tbaa !1
  %1418 = getelementptr inbounds [4 x [8 x double]], [4 x [8 x double]]* %gamma.i.i.i.i.i, i64 0, i64 0, i64 6
  %1419 = bitcast double* %1418 to <2 x double>*
  store <2 x double> <double 1.000000e+00, double 1.000000e+00>, <2 x double>* %1419, align 16, !tbaa !1
  %1420 = getelementptr inbounds [4 x [8 x double]], [4 x [8 x double]]* %gamma.i.i.i.i.i, i64 0, i64 1, i64 0
  %1421 = bitcast double* %1420 to <2 x double>*
  store <2 x double> <double 1.000000e+00, double -1.000000e+00>, <2 x double>* %1421, align 16, !tbaa !1
  %1422 = getelementptr inbounds [4 x [8 x double]], [4 x [8 x double]]* %gamma.i.i.i.i.i, i64 0, i64 1, i64 2
  %1423 = bitcast double* %1422 to <2 x double>*
  store <2 x double> <double -1.000000e+00, double 1.000000e+00>, <2 x double>* %1423, align 16, !tbaa !1
  %1424 = getelementptr inbounds [4 x [8 x double]], [4 x [8 x double]]* %gamma.i.i.i.i.i, i64 0, i64 1, i64 4
  %1425 = bitcast double* %1424 to <2 x double>*
  store <2 x double> <double -1.000000e+00, double 1.000000e+00>, <2 x double>* %1425, align 16, !tbaa !1
  %1426 = getelementptr inbounds [4 x [8 x double]], [4 x [8 x double]]* %gamma.i.i.i.i.i, i64 0, i64 1, i64 6
  %1427 = bitcast double* %1426 to <2 x double>*
  store <2 x double> <double 1.000000e+00, double -1.000000e+00>, <2 x double>* %1427, align 16, !tbaa !1
  %1428 = getelementptr inbounds [4 x [8 x double]], [4 x [8 x double]]* %gamma.i.i.i.i.i, i64 0, i64 2, i64 0
  %1429 = bitcast double* %1428 to <2 x double>*
  store <2 x double> <double 1.000000e+00, double -1.000000e+00>, <2 x double>* %1429, align 16, !tbaa !1
  %1430 = getelementptr inbounds [4 x [8 x double]], [4 x [8 x double]]* %gamma.i.i.i.i.i, i64 0, i64 2, i64 2
  %1431 = bitcast double* %1430 to <2 x double>*
  store <2 x double> <double 1.000000e+00, double -1.000000e+00>, <2 x double>* %1431, align 16, !tbaa !1
  %1432 = getelementptr inbounds [4 x [8 x double]], [4 x [8 x double]]* %gamma.i.i.i.i.i, i64 0, i64 2, i64 4
  %1433 = bitcast double* %1432 to <2 x double>*
  store <2 x double> <double 1.000000e+00, double -1.000000e+00>, <2 x double>* %1433, align 16, !tbaa !1
  %1434 = getelementptr inbounds [4 x [8 x double]], [4 x [8 x double]]* %gamma.i.i.i.i.i, i64 0, i64 2, i64 6
  %1435 = bitcast double* %1434 to <2 x double>*
  store <2 x double> <double 1.000000e+00, double -1.000000e+00>, <2 x double>* %1435, align 16, !tbaa !1
  %1436 = getelementptr inbounds [4 x [8 x double]], [4 x [8 x double]]* %gamma.i.i.i.i.i, i64 0, i64 3, i64 0
  %1437 = bitcast double* %1436 to <2 x double>*
  store <2 x double> <double -1.000000e+00, double 1.000000e+00>, <2 x double>* %1437, align 16, !tbaa !1
  %1438 = getelementptr inbounds [4 x [8 x double]], [4 x [8 x double]]* %gamma.i.i.i.i.i, i64 0, i64 3, i64 2
  %1439 = bitcast double* %1438 to <2 x double>*
  store <2 x double> <double -1.000000e+00, double 1.000000e+00>, <2 x double>* %1439, align 16, !tbaa !1
  %1440 = getelementptr inbounds [4 x [8 x double]], [4 x [8 x double]]* %gamma.i.i.i.i.i, i64 0, i64 3, i64 4
  %1441 = bitcast double* %1440 to <2 x double>*
  store <2 x double> <double 1.000000e+00, double -1.000000e+00>, <2 x double>* %1441, align 16, !tbaa !1
  %1442 = getelementptr inbounds [4 x [8 x double]], [4 x [8 x double]]* %gamma.i.i.i.i.i, i64 0, i64 3, i64 6
  %1443 = bitcast double* %1442 to <2 x double>*
  store <2 x double> <double 1.000000e+00, double -1.000000e+00>, <2 x double>* %1443, align 16, !tbaa !1
  br i1 %840, label %.lr.ph.i.i.i.i.i, label %_ZL28CalcFBHourglassForceForElemsR6DomainPdS1_S1_S1_S1_S1_S1_dii.exit.i.i.i.i

.lr.ph.i.i.i.i.i:                                 ; preds = %1411
  %1444 = bitcast [8 x [4 x double]]* %hourgam.i.i.i.i.i to i8*
  %1445 = getelementptr inbounds %class.Domain, %class.Domain* %domain, i64 0, i32 21, i32 0, i32 0, i32 0
  %1446 = getelementptr inbounds %class.Domain, %class.Domain* %domain, i64 0, i32 49, i32 0, i32 0, i32 0
  %1447 = getelementptr inbounds %class.Domain, %class.Domain* %domain, i64 0, i32 50, i32 0, i32 0, i32 0
  %1448 = getelementptr inbounds %class.Domain, %class.Domain* %domain, i64 0, i32 3, i32 0, i32 0, i32 0
  %1449 = getelementptr inbounds %class.Domain, %class.Domain* %domain, i64 0, i32 4, i32 0, i32 0, i32 0
  %1450 = getelementptr inbounds %class.Domain, %class.Domain* %domain, i64 0, i32 5, i32 0, i32 0, i32 0
  %1451 = fmul double %69, -1.000000e-02
  %1452 = getelementptr inbounds [8 x [4 x double]], [8 x [4 x double]]* %hourgam.i.i.i.i.i, i64 0, i64 0, i64 0
  %1453 = getelementptr inbounds [8 x [4 x double]], [8 x [4 x double]]* %hourgam.i.i.i.i.i, i64 0, i64 1, i64 0
  %1454 = getelementptr inbounds [8 x [4 x double]], [8 x [4 x double]]* %hourgam.i.i.i.i.i, i64 0, i64 2, i64 0
  %1455 = getelementptr inbounds [8 x [4 x double]], [8 x [4 x double]]* %hourgam.i.i.i.i.i, i64 0, i64 3, i64 0
  %1456 = getelementptr inbounds [8 x [4 x double]], [8 x [4 x double]]* %hourgam.i.i.i.i.i, i64 0, i64 4, i64 0
  %1457 = getelementptr inbounds [8 x [4 x double]], [8 x [4 x double]]* %hourgam.i.i.i.i.i, i64 0, i64 5, i64 0
  %1458 = getelementptr inbounds [8 x [4 x double]], [8 x [4 x double]]* %hourgam.i.i.i.i.i, i64 0, i64 6, i64 0
  %1459 = getelementptr inbounds [8 x [4 x double]], [8 x [4 x double]]* %hourgam.i.i.i.i.i, i64 0, i64 7, i64 0
  %1460 = getelementptr inbounds [8 x [4 x double]], [8 x [4 x double]]* %hourgam.i.i.i.i.i, i64 0, i64 0, i64 1
  %1461 = getelementptr inbounds [8 x [4 x double]], [8 x [4 x double]]* %hourgam.i.i.i.i.i, i64 0, i64 1, i64 1
  %1462 = getelementptr inbounds [8 x [4 x double]], [8 x [4 x double]]* %hourgam.i.i.i.i.i, i64 0, i64 2, i64 1
  %1463 = getelementptr inbounds [8 x [4 x double]], [8 x [4 x double]]* %hourgam.i.i.i.i.i, i64 0, i64 3, i64 1
  %1464 = getelementptr inbounds [8 x [4 x double]], [8 x [4 x double]]* %hourgam.i.i.i.i.i, i64 0, i64 4, i64 1
  %1465 = getelementptr inbounds [8 x [4 x double]], [8 x [4 x double]]* %hourgam.i.i.i.i.i, i64 0, i64 5, i64 1
  %1466 = getelementptr inbounds [8 x [4 x double]], [8 x [4 x double]]* %hourgam.i.i.i.i.i, i64 0, i64 6, i64 1
  %1467 = getelementptr inbounds [8 x [4 x double]], [8 x [4 x double]]* %hourgam.i.i.i.i.i, i64 0, i64 7, i64 1
  %1468 = getelementptr inbounds [8 x [4 x double]], [8 x [4 x double]]* %hourgam.i.i.i.i.i, i64 0, i64 0, i64 2
  %1469 = getelementptr inbounds [8 x [4 x double]], [8 x [4 x double]]* %hourgam.i.i.i.i.i, i64 0, i64 1, i64 2
  %1470 = getelementptr inbounds [8 x [4 x double]], [8 x [4 x double]]* %hourgam.i.i.i.i.i, i64 0, i64 2, i64 2
  %1471 = getelementptr inbounds [8 x [4 x double]], [8 x [4 x double]]* %hourgam.i.i.i.i.i, i64 0, i64 3, i64 2
  %1472 = getelementptr inbounds [8 x [4 x double]], [8 x [4 x double]]* %hourgam.i.i.i.i.i, i64 0, i64 4, i64 2
  %1473 = getelementptr inbounds [8 x [4 x double]], [8 x [4 x double]]* %hourgam.i.i.i.i.i, i64 0, i64 5, i64 2
  %1474 = getelementptr inbounds [8 x [4 x double]], [8 x [4 x double]]* %hourgam.i.i.i.i.i, i64 0, i64 6, i64 2
  %1475 = getelementptr inbounds [8 x [4 x double]], [8 x [4 x double]]* %hourgam.i.i.i.i.i, i64 0, i64 7, i64 2
  %1476 = getelementptr inbounds [8 x [4 x double]], [8 x [4 x double]]* %hourgam.i.i.i.i.i, i64 0, i64 0, i64 3
  %1477 = getelementptr inbounds [8 x [4 x double]], [8 x [4 x double]]* %hourgam.i.i.i.i.i, i64 0, i64 1, i64 3
  %1478 = getelementptr inbounds [8 x [4 x double]], [8 x [4 x double]]* %hourgam.i.i.i.i.i, i64 0, i64 2, i64 3
  %1479 = getelementptr inbounds [8 x [4 x double]], [8 x [4 x double]]* %hourgam.i.i.i.i.i, i64 0, i64 3, i64 3
  %1480 = getelementptr inbounds [8 x [4 x double]], [8 x [4 x double]]* %hourgam.i.i.i.i.i, i64 0, i64 4, i64 3
  %1481 = getelementptr inbounds [8 x [4 x double]], [8 x [4 x double]]* %hourgam.i.i.i.i.i, i64 0, i64 5, i64 3
  %1482 = getelementptr inbounds [8 x [4 x double]], [8 x [4 x double]]* %hourgam.i.i.i.i.i, i64 0, i64 6, i64 3
  %1483 = getelementptr inbounds [8 x [4 x double]], [8 x [4 x double]]* %hourgam.i.i.i.i.i, i64 0, i64 7, i64 3
  %1484 = getelementptr inbounds %class.Domain, %class.Domain* %domain, i64 0, i32 9, i32 0, i32 0, i32 0
  %1485 = getelementptr inbounds %class.Domain, %class.Domain* %domain, i64 0, i32 10, i32 0, i32 0, i32 0
  %1486 = getelementptr inbounds %class.Domain, %class.Domain* %domain, i64 0, i32 11, i32 0, i32 0, i32 0
  br label %1487

; <label>:1487                                    ; preds = %1605, %.lr.ph.i.i.i.i.i
  %indvars.iv3.i.i.i.i.i = phi i64 [ 0, %.lr.ph.i.i.i.i.i ], [ %indvars.iv.next4.i.i.i.i.i, %1605 ]
  call void @llvm.lifetime.start(i64 256, i8* %1444) #2
  %1488 = trunc i64 %indvars.iv3.i.i.i.i.i to i32
  %1489 = shl nsw i32 %1488, 3
  %1490 = sext i32 %1489 to i64
  %1491 = load i32*, i32** %1445, align 8, !tbaa !5
  %1492 = getelementptr inbounds double, double* %79, i64 %indvars.iv3.i.i.i.i.i
  %1493 = load double, double* %1492, align 8, !tbaa !1
  %1494 = fdiv double 1.000000e+00, %1493
  %1495 = getelementptr inbounds double, double* %835, i64 %1490
  %1496 = load double, double* %1495, align 8
  %1497 = or i32 %1489, 1
  %1498 = sext i32 %1497 to i64
  %1499 = getelementptr inbounds double, double* %835, i64 %1498
  %1500 = load double, double* %1499, align 8
  %1501 = or i32 %1489, 2
  %1502 = sext i32 %1501 to i64
  %1503 = getelementptr inbounds double, double* %835, i64 %1502
  %1504 = load double, double* %1503, align 8
  %1505 = or i32 %1489, 3
  %1506 = sext i32 %1505 to i64
  %1507 = getelementptr inbounds double, double* %835, i64 %1506
  %1508 = load double, double* %1507, align 8
  %1509 = or i32 %1489, 4
  %1510 = sext i32 %1509 to i64
  %1511 = getelementptr inbounds double, double* %835, i64 %1510
  %1512 = load double, double* %1511, align 8
  %1513 = or i32 %1489, 5
  %1514 = sext i32 %1513 to i64
  %1515 = getelementptr inbounds double, double* %835, i64 %1514
  %1516 = load double, double* %1515, align 8
  %1517 = or i32 %1489, 6
  %1518 = sext i32 %1517 to i64
  %1519 = getelementptr inbounds double, double* %835, i64 %1518
  %1520 = load double, double* %1519, align 8
  %1521 = or i32 %1489, 7
  %1522 = sext i32 %1521 to i64
  %1523 = getelementptr inbounds double, double* %835, i64 %1522
  %1524 = load double, double* %1523, align 8
  %1525 = getelementptr inbounds double, double* %837, i64 %1490
  %1526 = load double, double* %1525, align 8
  %1527 = getelementptr inbounds double, double* %837, i64 %1498
  %1528 = load double, double* %1527, align 8
  %1529 = getelementptr inbounds double, double* %837, i64 %1502
  %1530 = load double, double* %1529, align 8
  %1531 = getelementptr inbounds double, double* %837, i64 %1506
  %1532 = load double, double* %1531, align 8
  %1533 = getelementptr inbounds double, double* %837, i64 %1510
  %1534 = load double, double* %1533, align 8
  %1535 = getelementptr inbounds double, double* %837, i64 %1514
  %1536 = load double, double* %1535, align 8
  %1537 = getelementptr inbounds double, double* %837, i64 %1518
  %1538 = load double, double* %1537, align 8
  %1539 = getelementptr inbounds double, double* %837, i64 %1522
  %1540 = load double, double* %1539, align 8
  %1541 = getelementptr inbounds double, double* %839, i64 %1490
  %1542 = load double, double* %1541, align 8
  %1543 = getelementptr inbounds double, double* %839, i64 %1498
  %1544 = load double, double* %1543, align 8
  %1545 = getelementptr inbounds double, double* %839, i64 %1502
  %1546 = load double, double* %1545, align 8
  %1547 = getelementptr inbounds double, double* %839, i64 %1506
  %1548 = load double, double* %1547, align 8
  %1549 = getelementptr inbounds double, double* %839, i64 %1510
  %1550 = load double, double* %1549, align 8
  %1551 = getelementptr inbounds double, double* %839, i64 %1514
  %1552 = load double, double* %1551, align 8
  %1553 = getelementptr inbounds double, double* %839, i64 %1518
  %1554 = load double, double* %1553, align 8
  %1555 = getelementptr inbounds double, double* %839, i64 %1522
  %1556 = load double, double* %1555, align 8
  %1557 = getelementptr inbounds double, double* %829, i64 %1490
  %1558 = load double, double* %1557, align 8
  %1559 = getelementptr inbounds double, double* %831, i64 %1490
  %1560 = load double, double* %1559, align 8
  %1561 = getelementptr inbounds double, double* %833, i64 %1490
  %1562 = load double, double* %1561, align 8
  %1563 = getelementptr inbounds double, double* %829, i64 %1498
  %1564 = load double, double* %1563, align 8
  %1565 = getelementptr inbounds double, double* %831, i64 %1498
  %1566 = load double, double* %1565, align 8
  %1567 = getelementptr inbounds double, double* %833, i64 %1498
  %1568 = load double, double* %1567, align 8
  %1569 = getelementptr inbounds double, double* %829, i64 %1502
  %1570 = load double, double* %1569, align 8
  %1571 = getelementptr inbounds double, double* %831, i64 %1502
  %1572 = load double, double* %1571, align 8
  %1573 = getelementptr inbounds double, double* %833, i64 %1502
  %1574 = load double, double* %1573, align 8
  %1575 = getelementptr inbounds double, double* %829, i64 %1506
  %1576 = load double, double* %1575, align 8
  %1577 = getelementptr inbounds double, double* %831, i64 %1506
  %1578 = load double, double* %1577, align 8
  %1579 = getelementptr inbounds double, double* %833, i64 %1506
  %1580 = load double, double* %1579, align 8
  %1581 = getelementptr inbounds double, double* %829, i64 %1510
  %1582 = load double, double* %1581, align 8
  %1583 = getelementptr inbounds double, double* %831, i64 %1510
  %1584 = load double, double* %1583, align 8
  %1585 = getelementptr inbounds double, double* %833, i64 %1510
  %1586 = load double, double* %1585, align 8
  %1587 = getelementptr inbounds double, double* %829, i64 %1514
  %1588 = load double, double* %1587, align 8
  %1589 = getelementptr inbounds double, double* %831, i64 %1514
  %1590 = load double, double* %1589, align 8
  %1591 = getelementptr inbounds double, double* %833, i64 %1514
  %1592 = load double, double* %1591, align 8
  %1593 = getelementptr inbounds double, double* %829, i64 %1518
  %1594 = load double, double* %1593, align 8
  %1595 = getelementptr inbounds double, double* %831, i64 %1518
  %1596 = load double, double* %1595, align 8
  %1597 = getelementptr inbounds double, double* %833, i64 %1518
  %1598 = load double, double* %1597, align 8
  %1599 = getelementptr inbounds double, double* %829, i64 %1522
  %1600 = load double, double* %1599, align 8
  %1601 = getelementptr inbounds double, double* %831, i64 %1522
  %1602 = load double, double* %1601, align 8
  %1603 = getelementptr inbounds double, double* %833, i64 %1522
  %1604 = load double, double* %1603, align 8
  br label %2171

; <label>:1605                                    ; preds = %2171
  %1606 = getelementptr inbounds i32, i32* %1491, i64 %1490
  %1607 = load double*, double** %1446, align 8, !tbaa !9
  %1608 = getelementptr inbounds double, double* %1607, i64 %indvars.iv3.i.i.i.i.i
  %1609 = load double, double* %1608, align 8, !tbaa !1
  %1610 = load double*, double** %1447, align 8, !tbaa !9
  %1611 = getelementptr inbounds double, double* %1610, i64 %indvars.iv3.i.i.i.i.i
  %1612 = load double, double* %1611, align 8, !tbaa !1
  %1613 = load double, double* %1492, align 8, !tbaa !1
  %1614 = call double @cbrt(double %1613) #2
  %1615 = load i32, i32* %1606, align 4, !tbaa !12
  %1616 = getelementptr inbounds i32, i32* %1606, i64 1
  %1617 = load i32, i32* %1616, align 4, !tbaa !12
  %1618 = getelementptr inbounds i32, i32* %1606, i64 2
  %1619 = load i32, i32* %1618, align 4, !tbaa !12
  %1620 = getelementptr inbounds i32, i32* %1606, i64 3
  %1621 = load i32, i32* %1620, align 4, !tbaa !12
  %1622 = getelementptr inbounds i32, i32* %1606, i64 4
  %1623 = load i32, i32* %1622, align 4, !tbaa !12
  %1624 = getelementptr inbounds i32, i32* %1606, i64 5
  %1625 = load i32, i32* %1624, align 4, !tbaa !12
  %1626 = getelementptr inbounds i32, i32* %1606, i64 6
  %1627 = load i32, i32* %1626, align 4, !tbaa !12
  %1628 = getelementptr inbounds i32, i32* %1606, i64 7
  %1629 = load i32, i32* %1628, align 4, !tbaa !12
  %1630 = sext i32 %1615 to i64
  %1631 = load double*, double** %1448, align 8, !tbaa !9
  %1632 = getelementptr inbounds double, double* %1631, i64 %1630
  %1633 = load double, double* %1632, align 8, !tbaa !1
  %1634 = sext i32 %1617 to i64
  %1635 = getelementptr inbounds double, double* %1631, i64 %1634
  %1636 = load double, double* %1635, align 8, !tbaa !1
  %1637 = sext i32 %1619 to i64
  %1638 = getelementptr inbounds double, double* %1631, i64 %1637
  %1639 = load double, double* %1638, align 8, !tbaa !1
  %1640 = sext i32 %1621 to i64
  %1641 = getelementptr inbounds double, double* %1631, i64 %1640
  %1642 = load double, double* %1641, align 8, !tbaa !1
  %1643 = sext i32 %1623 to i64
  %1644 = getelementptr inbounds double, double* %1631, i64 %1643
  %1645 = load double, double* %1644, align 8, !tbaa !1
  %1646 = sext i32 %1625 to i64
  %1647 = getelementptr inbounds double, double* %1631, i64 %1646
  %1648 = load double, double* %1647, align 8, !tbaa !1
  %1649 = sext i32 %1627 to i64
  %1650 = getelementptr inbounds double, double* %1631, i64 %1649
  %1651 = load double, double* %1650, align 8, !tbaa !1
  %1652 = sext i32 %1629 to i64
  %1653 = getelementptr inbounds double, double* %1631, i64 %1652
  %1654 = load double, double* %1653, align 8, !tbaa !1
  %1655 = load double*, double** %1449, align 8, !tbaa !9
  %1656 = getelementptr inbounds double, double* %1655, i64 %1630
  %1657 = load double, double* %1656, align 8, !tbaa !1
  %1658 = getelementptr inbounds double, double* %1655, i64 %1634
  %1659 = load double, double* %1658, align 8, !tbaa !1
  %1660 = getelementptr inbounds double, double* %1655, i64 %1637
  %1661 = load double, double* %1660, align 8, !tbaa !1
  %1662 = getelementptr inbounds double, double* %1655, i64 %1640
  %1663 = load double, double* %1662, align 8, !tbaa !1
  %1664 = getelementptr inbounds double, double* %1655, i64 %1643
  %1665 = load double, double* %1664, align 8, !tbaa !1
  %1666 = getelementptr inbounds double, double* %1655, i64 %1646
  %1667 = load double, double* %1666, align 8, !tbaa !1
  %1668 = getelementptr inbounds double, double* %1655, i64 %1649
  %1669 = load double, double* %1668, align 8, !tbaa !1
  %1670 = getelementptr inbounds double, double* %1655, i64 %1652
  %1671 = load double, double* %1670, align 8, !tbaa !1
  %1672 = load double*, double** %1450, align 8, !tbaa !9
  %1673 = getelementptr inbounds double, double* %1672, i64 %1630
  %1674 = load double, double* %1673, align 8, !tbaa !1
  %1675 = getelementptr inbounds double, double* %1672, i64 %1634
  %1676 = load double, double* %1675, align 8, !tbaa !1
  %1677 = getelementptr inbounds double, double* %1672, i64 %1637
  %1678 = load double, double* %1677, align 8, !tbaa !1
  %1679 = getelementptr inbounds double, double* %1672, i64 %1640
  %1680 = load double, double* %1679, align 8, !tbaa !1
  %1681 = getelementptr inbounds double, double* %1672, i64 %1643
  %1682 = load double, double* %1681, align 8, !tbaa !1
  %1683 = getelementptr inbounds double, double* %1672, i64 %1646
  %1684 = load double, double* %1683, align 8, !tbaa !1
  %1685 = getelementptr inbounds double, double* %1672, i64 %1649
  %1686 = load double, double* %1685, align 8, !tbaa !1
  %1687 = getelementptr inbounds double, double* %1672, i64 %1652
  %1688 = load double, double* %1687, align 8, !tbaa !1
  %1689 = fmul double %1451, %1609
  %1690 = fmul double %1689, %1612
  %1691 = fdiv double %1690, %1614
  %1692 = load double, double* %1452, align 16, !tbaa !1
  %1693 = fmul double %1633, %1692
  %1694 = load double, double* %1453, align 16, !tbaa !1
  %1695 = fmul double %1636, %1694
  %1696 = fadd double %1693, %1695
  %1697 = load double, double* %1454, align 16, !tbaa !1
  %1698 = fmul double %1639, %1697
  %1699 = fadd double %1696, %1698
  %1700 = load double, double* %1455, align 16, !tbaa !1
  %1701 = fmul double %1642, %1700
  %1702 = fadd double %1699, %1701
  %1703 = load double, double* %1456, align 16, !tbaa !1
  %1704 = fmul double %1645, %1703
  %1705 = fadd double %1702, %1704
  %1706 = load double, double* %1457, align 16, !tbaa !1
  %1707 = fmul double %1648, %1706
  %1708 = fadd double %1705, %1707
  %1709 = load double, double* %1458, align 16, !tbaa !1
  %1710 = fmul double %1651, %1709
  %1711 = fadd double %1708, %1710
  %1712 = load double, double* %1459, align 16, !tbaa !1
  %1713 = fmul double %1654, %1712
  %1714 = fadd double %1711, %1713
  %1715 = load double, double* %1460, align 8, !tbaa !1
  %1716 = fmul double %1633, %1715
  %1717 = load double, double* %1461, align 8, !tbaa !1
  %1718 = fmul double %1636, %1717
  %1719 = fadd double %1716, %1718
  %1720 = load double, double* %1462, align 8, !tbaa !1
  %1721 = fmul double %1639, %1720
  %1722 = fadd double %1719, %1721
  %1723 = load double, double* %1463, align 8, !tbaa !1
  %1724 = fmul double %1642, %1723
  %1725 = fadd double %1722, %1724
  %1726 = load double, double* %1464, align 8, !tbaa !1
  %1727 = fmul double %1645, %1726
  %1728 = fadd double %1725, %1727
  %1729 = load double, double* %1465, align 8, !tbaa !1
  %1730 = fmul double %1648, %1729
  %1731 = fadd double %1728, %1730
  %1732 = load double, double* %1466, align 8, !tbaa !1
  %1733 = fmul double %1651, %1732
  %1734 = fadd double %1731, %1733
  %1735 = load double, double* %1467, align 8, !tbaa !1
  %1736 = fmul double %1654, %1735
  %1737 = fadd double %1734, %1736
  %1738 = load double, double* %1468, align 16, !tbaa !1
  %1739 = fmul double %1633, %1738
  %1740 = load double, double* %1469, align 16, !tbaa !1
  %1741 = fmul double %1636, %1740
  %1742 = fadd double %1739, %1741
  %1743 = load double, double* %1470, align 16, !tbaa !1
  %1744 = fmul double %1639, %1743
  %1745 = fadd double %1742, %1744
  %1746 = load double, double* %1471, align 16, !tbaa !1
  %1747 = fmul double %1642, %1746
  %1748 = fadd double %1745, %1747
  %1749 = load double, double* %1472, align 16, !tbaa !1
  %1750 = fmul double %1645, %1749
  %1751 = fadd double %1748, %1750
  %1752 = load double, double* %1473, align 16, !tbaa !1
  %1753 = fmul double %1648, %1752
  %1754 = fadd double %1751, %1753
  %1755 = load double, double* %1474, align 16, !tbaa !1
  %1756 = fmul double %1651, %1755
  %1757 = fadd double %1754, %1756
  %1758 = load double, double* %1475, align 16, !tbaa !1
  %1759 = fmul double %1654, %1758
  %1760 = fadd double %1757, %1759
  %1761 = load double, double* %1476, align 8, !tbaa !1
  %1762 = fmul double %1633, %1761
  %1763 = load double, double* %1477, align 8, !tbaa !1
  %1764 = fmul double %1636, %1763
  %1765 = fadd double %1762, %1764
  %1766 = load double, double* %1478, align 8, !tbaa !1
  %1767 = fmul double %1639, %1766
  %1768 = fadd double %1765, %1767
  %1769 = load double, double* %1479, align 8, !tbaa !1
  %1770 = fmul double %1642, %1769
  %1771 = fadd double %1768, %1770
  %1772 = load double, double* %1480, align 8, !tbaa !1
  %1773 = fmul double %1645, %1772
  %1774 = fadd double %1771, %1773
  %1775 = load double, double* %1481, align 8, !tbaa !1
  %1776 = fmul double %1648, %1775
  %1777 = fadd double %1774, %1776
  %1778 = load double, double* %1482, align 8, !tbaa !1
  %1779 = fmul double %1651, %1778
  %1780 = fadd double %1777, %1779
  %1781 = load double, double* %1483, align 8, !tbaa !1
  %1782 = fmul double %1654, %1781
  %1783 = fadd double %1780, %1782
  %1784 = fmul double %1692, %1714
  %1785 = fmul double %1715, %1737
  %1786 = fadd double %1784, %1785
  %1787 = fmul double %1738, %1760
  %1788 = fadd double %1786, %1787
  %1789 = fmul double %1761, %1783
  %1790 = fadd double %1788, %1789
  %1791 = fmul double %1691, %1790
  %1792 = fmul double %1694, %1714
  %1793 = fmul double %1717, %1737
  %1794 = fadd double %1792, %1793
  %1795 = fmul double %1740, %1760
  %1796 = fadd double %1794, %1795
  %1797 = fmul double %1763, %1783
  %1798 = fadd double %1796, %1797
  %1799 = fmul double %1691, %1798
  %1800 = fmul double %1697, %1714
  %1801 = fmul double %1720, %1737
  %1802 = fadd double %1800, %1801
  %1803 = fmul double %1743, %1760
  %1804 = fadd double %1802, %1803
  %1805 = fmul double %1766, %1783
  %1806 = fadd double %1804, %1805
  %1807 = fmul double %1691, %1806
  %1808 = fmul double %1700, %1714
  %1809 = fmul double %1723, %1737
  %1810 = fadd double %1808, %1809
  %1811 = fmul double %1746, %1760
  %1812 = fadd double %1810, %1811
  %1813 = fmul double %1769, %1783
  %1814 = fadd double %1812, %1813
  %1815 = fmul double %1691, %1814
  %1816 = fmul double %1703, %1714
  %1817 = fmul double %1726, %1737
  %1818 = fadd double %1816, %1817
  %1819 = fmul double %1749, %1760
  %1820 = fadd double %1818, %1819
  %1821 = fmul double %1772, %1783
  %1822 = fadd double %1820, %1821
  %1823 = fmul double %1691, %1822
  %1824 = fmul double %1706, %1714
  %1825 = fmul double %1729, %1737
  %1826 = fadd double %1824, %1825
  %1827 = fmul double %1752, %1760
  %1828 = fadd double %1826, %1827
  %1829 = fmul double %1775, %1783
  %1830 = fadd double %1828, %1829
  %1831 = fmul double %1691, %1830
  %1832 = fmul double %1709, %1714
  %1833 = fmul double %1732, %1737
  %1834 = fadd double %1832, %1833
  %1835 = fmul double %1755, %1760
  %1836 = fadd double %1834, %1835
  %1837 = fmul double %1778, %1783
  %1838 = fadd double %1836, %1837
  %1839 = fmul double %1691, %1838
  %1840 = fmul double %1712, %1714
  %1841 = fmul double %1735, %1737
  %1842 = fadd double %1840, %1841
  %1843 = fmul double %1758, %1760
  %1844 = fadd double %1842, %1843
  %1845 = fmul double %1781, %1783
  %1846 = fadd double %1844, %1845
  %1847 = fmul double %1691, %1846
  %1848 = fmul double %1657, %1692
  %1849 = fmul double %1659, %1694
  %1850 = fadd double %1848, %1849
  %1851 = fmul double %1661, %1697
  %1852 = fadd double %1850, %1851
  %1853 = fmul double %1663, %1700
  %1854 = fadd double %1852, %1853
  %1855 = fmul double %1665, %1703
  %1856 = fadd double %1854, %1855
  %1857 = fmul double %1667, %1706
  %1858 = fadd double %1856, %1857
  %1859 = fmul double %1669, %1709
  %1860 = fadd double %1858, %1859
  %1861 = fmul double %1671, %1712
  %1862 = fadd double %1860, %1861
  %1863 = fmul double %1657, %1715
  %1864 = fmul double %1659, %1717
  %1865 = fadd double %1863, %1864
  %1866 = fmul double %1661, %1720
  %1867 = fadd double %1865, %1866
  %1868 = fmul double %1663, %1723
  %1869 = fadd double %1867, %1868
  %1870 = fmul double %1665, %1726
  %1871 = fadd double %1869, %1870
  %1872 = fmul double %1667, %1729
  %1873 = fadd double %1871, %1872
  %1874 = fmul double %1669, %1732
  %1875 = fadd double %1873, %1874
  %1876 = fmul double %1671, %1735
  %1877 = fadd double %1875, %1876
  %1878 = fmul double %1657, %1738
  %1879 = fmul double %1659, %1740
  %1880 = fadd double %1878, %1879
  %1881 = fmul double %1661, %1743
  %1882 = fadd double %1880, %1881
  %1883 = fmul double %1663, %1746
  %1884 = fadd double %1882, %1883
  %1885 = fmul double %1665, %1749
  %1886 = fadd double %1884, %1885
  %1887 = fmul double %1667, %1752
  %1888 = fadd double %1886, %1887
  %1889 = fmul double %1669, %1755
  %1890 = fadd double %1888, %1889
  %1891 = fmul double %1671, %1758
  %1892 = fadd double %1890, %1891
  %1893 = fmul double %1657, %1761
  %1894 = fmul double %1659, %1763
  %1895 = fadd double %1893, %1894
  %1896 = fmul double %1661, %1766
  %1897 = fadd double %1895, %1896
  %1898 = fmul double %1663, %1769
  %1899 = fadd double %1897, %1898
  %1900 = fmul double %1665, %1772
  %1901 = fadd double %1899, %1900
  %1902 = fmul double %1667, %1775
  %1903 = fadd double %1901, %1902
  %1904 = fmul double %1669, %1778
  %1905 = fadd double %1903, %1904
  %1906 = fmul double %1671, %1781
  %1907 = fadd double %1905, %1906
  %1908 = fmul double %1692, %1862
  %1909 = fmul double %1715, %1877
  %1910 = fadd double %1908, %1909
  %1911 = fmul double %1738, %1892
  %1912 = fadd double %1910, %1911
  %1913 = fmul double %1761, %1907
  %1914 = fadd double %1912, %1913
  %1915 = fmul double %1691, %1914
  %1916 = fmul double %1694, %1862
  %1917 = fmul double %1717, %1877
  %1918 = fadd double %1916, %1917
  %1919 = fmul double %1740, %1892
  %1920 = fadd double %1918, %1919
  %1921 = fmul double %1763, %1907
  %1922 = fadd double %1920, %1921
  %1923 = fmul double %1691, %1922
  %1924 = fmul double %1697, %1862
  %1925 = fmul double %1720, %1877
  %1926 = fadd double %1924, %1925
  %1927 = fmul double %1743, %1892
  %1928 = fadd double %1926, %1927
  %1929 = fmul double %1766, %1907
  %1930 = fadd double %1928, %1929
  %1931 = fmul double %1691, %1930
  %1932 = fmul double %1700, %1862
  %1933 = fmul double %1723, %1877
  %1934 = fadd double %1932, %1933
  %1935 = fmul double %1746, %1892
  %1936 = fadd double %1934, %1935
  %1937 = fmul double %1769, %1907
  %1938 = fadd double %1936, %1937
  %1939 = fmul double %1691, %1938
  %1940 = fmul double %1703, %1862
  %1941 = fmul double %1726, %1877
  %1942 = fadd double %1940, %1941
  %1943 = fmul double %1749, %1892
  %1944 = fadd double %1942, %1943
  %1945 = fmul double %1772, %1907
  %1946 = fadd double %1944, %1945
  %1947 = fmul double %1691, %1946
  %1948 = fmul double %1706, %1862
  %1949 = fmul double %1729, %1877
  %1950 = fadd double %1948, %1949
  %1951 = fmul double %1752, %1892
  %1952 = fadd double %1950, %1951
  %1953 = fmul double %1775, %1907
  %1954 = fadd double %1952, %1953
  %1955 = fmul double %1691, %1954
  %1956 = fmul double %1709, %1862
  %1957 = fmul double %1732, %1877
  %1958 = fadd double %1956, %1957
  %1959 = fmul double %1755, %1892
  %1960 = fadd double %1958, %1959
  %1961 = fmul double %1778, %1907
  %1962 = fadd double %1960, %1961
  %1963 = fmul double %1691, %1962
  %1964 = fmul double %1712, %1862
  %1965 = fmul double %1735, %1877
  %1966 = fadd double %1964, %1965
  %1967 = fmul double %1758, %1892
  %1968 = fadd double %1966, %1967
  %1969 = fmul double %1781, %1907
  %1970 = fadd double %1968, %1969
  %1971 = fmul double %1691, %1970
  %1972 = fmul double %1674, %1692
  %1973 = fmul double %1676, %1694
  %1974 = fadd double %1972, %1973
  %1975 = fmul double %1678, %1697
  %1976 = fadd double %1974, %1975
  %1977 = fmul double %1680, %1700
  %1978 = fadd double %1976, %1977
  %1979 = fmul double %1682, %1703
  %1980 = fadd double %1978, %1979
  %1981 = fmul double %1684, %1706
  %1982 = fadd double %1980, %1981
  %1983 = fmul double %1686, %1709
  %1984 = fadd double %1982, %1983
  %1985 = fmul double %1688, %1712
  %1986 = fadd double %1984, %1985
  %1987 = fmul double %1674, %1715
  %1988 = fmul double %1676, %1717
  %1989 = fadd double %1987, %1988
  %1990 = fmul double %1678, %1720
  %1991 = fadd double %1989, %1990
  %1992 = fmul double %1680, %1723
  %1993 = fadd double %1991, %1992
  %1994 = fmul double %1682, %1726
  %1995 = fadd double %1993, %1994
  %1996 = fmul double %1684, %1729
  %1997 = fadd double %1995, %1996
  %1998 = fmul double %1686, %1732
  %1999 = fadd double %1997, %1998
  %2000 = fmul double %1688, %1735
  %2001 = fadd double %1999, %2000
  %2002 = fmul double %1674, %1738
  %2003 = fmul double %1676, %1740
  %2004 = fadd double %2002, %2003
  %2005 = fmul double %1678, %1743
  %2006 = fadd double %2004, %2005
  %2007 = fmul double %1680, %1746
  %2008 = fadd double %2006, %2007
  %2009 = fmul double %1682, %1749
  %2010 = fadd double %2008, %2009
  %2011 = fmul double %1684, %1752
  %2012 = fadd double %2010, %2011
  %2013 = fmul double %1686, %1755
  %2014 = fadd double %2012, %2013
  %2015 = fmul double %1688, %1758
  %2016 = fadd double %2014, %2015
  %2017 = fmul double %1674, %1761
  %2018 = fmul double %1676, %1763
  %2019 = fadd double %2017, %2018
  %2020 = fmul double %1678, %1766
  %2021 = fadd double %2019, %2020
  %2022 = fmul double %1680, %1769
  %2023 = fadd double %2021, %2022
  %2024 = fmul double %1682, %1772
  %2025 = fadd double %2023, %2024
  %2026 = fmul double %1684, %1775
  %2027 = fadd double %2025, %2026
  %2028 = fmul double %1686, %1778
  %2029 = fadd double %2027, %2028
  %2030 = fmul double %1688, %1781
  %2031 = fadd double %2029, %2030
  %2032 = fmul double %1692, %1986
  %2033 = fmul double %1715, %2001
  %2034 = fadd double %2032, %2033
  %2035 = fmul double %1738, %2016
  %2036 = fadd double %2034, %2035
  %2037 = fmul double %1761, %2031
  %2038 = fadd double %2036, %2037
  %2039 = fmul double %1691, %2038
  %2040 = fmul double %1694, %1986
  %2041 = fmul double %1717, %2001
  %2042 = fadd double %2040, %2041
  %2043 = fmul double %1740, %2016
  %2044 = fadd double %2042, %2043
  %2045 = fmul double %1763, %2031
  %2046 = fadd double %2044, %2045
  %2047 = fmul double %1691, %2046
  %2048 = fmul double %1697, %1986
  %2049 = fmul double %1720, %2001
  %2050 = fadd double %2048, %2049
  %2051 = fmul double %1743, %2016
  %2052 = fadd double %2050, %2051
  %2053 = fmul double %1766, %2031
  %2054 = fadd double %2052, %2053
  %2055 = fmul double %1691, %2054
  %2056 = fmul double %1700, %1986
  %2057 = fmul double %1723, %2001
  %2058 = fadd double %2056, %2057
  %2059 = fmul double %1746, %2016
  %2060 = fadd double %2058, %2059
  %2061 = fmul double %1769, %2031
  %2062 = fadd double %2060, %2061
  %2063 = fmul double %1691, %2062
  %2064 = fmul double %1703, %1986
  %2065 = fmul double %1726, %2001
  %2066 = fadd double %2064, %2065
  %2067 = fmul double %1749, %2016
  %2068 = fadd double %2066, %2067
  %2069 = fmul double %1772, %2031
  %2070 = fadd double %2068, %2069
  %2071 = fmul double %1691, %2070
  %2072 = fmul double %1706, %1986
  %2073 = fmul double %1729, %2001
  %2074 = fadd double %2072, %2073
  %2075 = fmul double %1752, %2016
  %2076 = fadd double %2074, %2075
  %2077 = fmul double %1775, %2031
  %2078 = fadd double %2076, %2077
  %2079 = fmul double %1691, %2078
  %2080 = fmul double %1709, %1986
  %2081 = fmul double %1732, %2001
  %2082 = fadd double %2080, %2081
  %2083 = fmul double %1755, %2016
  %2084 = fadd double %2082, %2083
  %2085 = fmul double %1778, %2031
  %2086 = fadd double %2084, %2085
  %2087 = fmul double %1691, %2086
  %2088 = fmul double %1712, %1986
  %2089 = fmul double %1735, %2001
  %2090 = fadd double %2088, %2089
  %2091 = fmul double %1758, %2016
  %2092 = fadd double %2090, %2091
  %2093 = fmul double %1781, %2031
  %2094 = fadd double %2092, %2093
  %2095 = fmul double %1691, %2094
  %2096 = load double*, double** %1484, align 8, !tbaa !9
  %2097 = getelementptr inbounds double, double* %2096, i64 %1630
  %2098 = load double, double* %2097, align 8, !tbaa !1
  %2099 = fadd double %2098, %1791
  store double %2099, double* %2097, align 8, !tbaa !1
  %2100 = load double*, double** %1485, align 8, !tbaa !9
  %2101 = getelementptr inbounds double, double* %2100, i64 %1630
  %2102 = load double, double* %2101, align 8, !tbaa !1
  %2103 = fadd double %2102, %1915
  store double %2103, double* %2101, align 8, !tbaa !1
  %2104 = load double*, double** %1486, align 8, !tbaa !9
  %2105 = getelementptr inbounds double, double* %2104, i64 %1630
  %2106 = load double, double* %2105, align 8, !tbaa !1
  %2107 = fadd double %2039, %2106
  store double %2107, double* %2105, align 8, !tbaa !1
  %2108 = getelementptr inbounds double, double* %2096, i64 %1634
  %2109 = load double, double* %2108, align 8, !tbaa !1
  %2110 = fadd double %1799, %2109
  store double %2110, double* %2108, align 8, !tbaa !1
  %2111 = getelementptr inbounds double, double* %2100, i64 %1634
  %2112 = load double, double* %2111, align 8, !tbaa !1
  %2113 = fadd double %1923, %2112
  store double %2113, double* %2111, align 8, !tbaa !1
  %2114 = getelementptr inbounds double, double* %2104, i64 %1634
  %2115 = load double, double* %2114, align 8, !tbaa !1
  %2116 = fadd double %2047, %2115
  store double %2116, double* %2114, align 8, !tbaa !1
  %2117 = getelementptr inbounds double, double* %2096, i64 %1637
  %2118 = load double, double* %2117, align 8, !tbaa !1
  %2119 = fadd double %1807, %2118
  store double %2119, double* %2117, align 8, !tbaa !1
  %2120 = getelementptr inbounds double, double* %2100, i64 %1637
  %2121 = load double, double* %2120, align 8, !tbaa !1
  %2122 = fadd double %1931, %2121
  store double %2122, double* %2120, align 8, !tbaa !1
  %2123 = getelementptr inbounds double, double* %2104, i64 %1637
  %2124 = load double, double* %2123, align 8, !tbaa !1
  %2125 = fadd double %2055, %2124
  store double %2125, double* %2123, align 8, !tbaa !1
  %2126 = getelementptr inbounds double, double* %2096, i64 %1640
  %2127 = load double, double* %2126, align 8, !tbaa !1
  %2128 = fadd double %1815, %2127
  store double %2128, double* %2126, align 8, !tbaa !1
  %2129 = getelementptr inbounds double, double* %2100, i64 %1640
  %2130 = load double, double* %2129, align 8, !tbaa !1
  %2131 = fadd double %1939, %2130
  store double %2131, double* %2129, align 8, !tbaa !1
  %2132 = getelementptr inbounds double, double* %2104, i64 %1640
  %2133 = load double, double* %2132, align 8, !tbaa !1
  %2134 = fadd double %2063, %2133
  store double %2134, double* %2132, align 8, !tbaa !1
  %2135 = getelementptr inbounds double, double* %2096, i64 %1643
  %2136 = load double, double* %2135, align 8, !tbaa !1
  %2137 = fadd double %1823, %2136
  store double %2137, double* %2135, align 8, !tbaa !1
  %2138 = getelementptr inbounds double, double* %2100, i64 %1643
  %2139 = load double, double* %2138, align 8, !tbaa !1
  %2140 = fadd double %1947, %2139
  store double %2140, double* %2138, align 8, !tbaa !1
  %2141 = getelementptr inbounds double, double* %2104, i64 %1643
  %2142 = load double, double* %2141, align 8, !tbaa !1
  %2143 = fadd double %2071, %2142
  store double %2143, double* %2141, align 8, !tbaa !1
  %2144 = getelementptr inbounds double, double* %2096, i64 %1646
  %2145 = load double, double* %2144, align 8, !tbaa !1
  %2146 = fadd double %1831, %2145
  store double %2146, double* %2144, align 8, !tbaa !1
  %2147 = getelementptr inbounds double, double* %2100, i64 %1646
  %2148 = load double, double* %2147, align 8, !tbaa !1
  %2149 = fadd double %1955, %2148
  store double %2149, double* %2147, align 8, !tbaa !1
  %2150 = getelementptr inbounds double, double* %2104, i64 %1646
  %2151 = load double, double* %2150, align 8, !tbaa !1
  %2152 = fadd double %2079, %2151
  store double %2152, double* %2150, align 8, !tbaa !1
  %2153 = getelementptr inbounds double, double* %2096, i64 %1649
  %2154 = load double, double* %2153, align 8, !tbaa !1
  %2155 = fadd double %1839, %2154
  store double %2155, double* %2153, align 8, !tbaa !1
  %2156 = getelementptr inbounds double, double* %2100, i64 %1649
  %2157 = load double, double* %2156, align 8, !tbaa !1
  %2158 = fadd double %1963, %2157
  store double %2158, double* %2156, align 8, !tbaa !1
  %2159 = getelementptr inbounds double, double* %2104, i64 %1649
  %2160 = load double, double* %2159, align 8, !tbaa !1
  %2161 = fadd double %2087, %2160
  store double %2161, double* %2159, align 8, !tbaa !1
  %2162 = getelementptr inbounds double, double* %2096, i64 %1652
  %2163 = load double, double* %2162, align 8, !tbaa !1
  %2164 = fadd double %1847, %2163
  store double %2164, double* %2162, align 8, !tbaa !1
  %2165 = getelementptr inbounds double, double* %2100, i64 %1652
  %2166 = load double, double* %2165, align 8, !tbaa !1
  %2167 = fadd double %1971, %2166
  store double %2167, double* %2165, align 8, !tbaa !1
  %2168 = getelementptr inbounds double, double* %2104, i64 %1652
  %2169 = load double, double* %2168, align 8, !tbaa !1
  %2170 = fadd double %2095, %2169
  store double %2170, double* %2168, align 8, !tbaa !1
  call void @llvm.lifetime.end(i64 256, i8* nonnull %1444) #2
  %indvars.iv.next4.i.i.i.i.i = add nuw nsw i64 %indvars.iv3.i.i.i.i.i, 1
  %lftr.wideiv98 = trunc i64 %indvars.iv.next4.i.i.i.i.i to i32
  %exitcond99 = icmp eq i32 %lftr.wideiv98, %824
  br i1 %exitcond99, label %_ZL28CalcFBHourglassForceForElemsR6DomainPdS1_S1_S1_S1_S1_S1_dii.exit.i.i.i.i.loopexit, label %1487

; <label>:2171                                    ; preds = %2171, %1487
  %indvars.iv.i.i.i.i.i = phi i64 [ 0, %1487 ], [ %indvars.iv.next.i.i.i.i.i, %2171 ]
  %2172 = getelementptr inbounds [4 x [8 x double]], [4 x [8 x double]]* %gamma.i.i.i.i.i, i64 0, i64 %indvars.iv.i.i.i.i.i, i64 0
  %2173 = load double, double* %2172, align 16, !tbaa !1
  %2174 = fmul double %1496, %2173
  %2175 = getelementptr inbounds [4 x [8 x double]], [4 x [8 x double]]* %gamma.i.i.i.i.i, i64 0, i64 %indvars.iv.i.i.i.i.i, i64 1
  %2176 = load double, double* %2175, align 8, !tbaa !1
  %2177 = fmul double %1500, %2176
  %2178 = fadd double %2174, %2177
  %2179 = getelementptr inbounds [4 x [8 x double]], [4 x [8 x double]]* %gamma.i.i.i.i.i, i64 0, i64 %indvars.iv.i.i.i.i.i, i64 2
  %2180 = load double, double* %2179, align 16, !tbaa !1
  %2181 = fmul double %1504, %2180
  %2182 = fadd double %2178, %2181
  %2183 = getelementptr inbounds [4 x [8 x double]], [4 x [8 x double]]* %gamma.i.i.i.i.i, i64 0, i64 %indvars.iv.i.i.i.i.i, i64 3
  %2184 = load double, double* %2183, align 8, !tbaa !1
  %2185 = fmul double %1508, %2184
  %2186 = fadd double %2182, %2185
  %2187 = getelementptr inbounds [4 x [8 x double]], [4 x [8 x double]]* %gamma.i.i.i.i.i, i64 0, i64 %indvars.iv.i.i.i.i.i, i64 4
  %2188 = load double, double* %2187, align 16, !tbaa !1
  %2189 = fmul double %1512, %2188
  %2190 = fadd double %2186, %2189
  %2191 = getelementptr inbounds [4 x [8 x double]], [4 x [8 x double]]* %gamma.i.i.i.i.i, i64 0, i64 %indvars.iv.i.i.i.i.i, i64 5
  %2192 = load double, double* %2191, align 8, !tbaa !1
  %2193 = fmul double %1516, %2192
  %2194 = fadd double %2190, %2193
  %2195 = getelementptr inbounds [4 x [8 x double]], [4 x [8 x double]]* %gamma.i.i.i.i.i, i64 0, i64 %indvars.iv.i.i.i.i.i, i64 6
  %2196 = load double, double* %2195, align 16, !tbaa !1
  %2197 = fmul double %1520, %2196
  %2198 = fadd double %2194, %2197
  %2199 = getelementptr inbounds [4 x [8 x double]], [4 x [8 x double]]* %gamma.i.i.i.i.i, i64 0, i64 %indvars.iv.i.i.i.i.i, i64 7
  %2200 = load double, double* %2199, align 8, !tbaa !1
  %2201 = fmul double %1524, %2200
  %2202 = fadd double %2198, %2201
  %2203 = fmul double %1526, %2173
  %2204 = fmul double %1528, %2176
  %2205 = fadd double %2203, %2204
  %2206 = fmul double %1530, %2180
  %2207 = fadd double %2205, %2206
  %2208 = fmul double %1532, %2184
  %2209 = fadd double %2207, %2208
  %2210 = fmul double %1534, %2188
  %2211 = fadd double %2209, %2210
  %2212 = fmul double %1536, %2192
  %2213 = fadd double %2211, %2212
  %2214 = fmul double %1538, %2196
  %2215 = fadd double %2213, %2214
  %2216 = fmul double %1540, %2200
  %2217 = fadd double %2215, %2216
  %2218 = fmul double %1542, %2173
  %2219 = fmul double %1544, %2176
  %2220 = fadd double %2218, %2219
  %2221 = fmul double %1546, %2180
  %2222 = fadd double %2220, %2221
  %2223 = fmul double %1548, %2184
  %2224 = fadd double %2222, %2223
  %2225 = fmul double %1550, %2188
  %2226 = fadd double %2224, %2225
  %2227 = fmul double %1552, %2192
  %2228 = fadd double %2226, %2227
  %2229 = fmul double %1554, %2196
  %2230 = fadd double %2228, %2229
  %2231 = fmul double %1556, %2200
  %2232 = fadd double %2230, %2231
  %2233 = fmul double %1558, %2202
  %2234 = fmul double %1560, %2217
  %2235 = fadd double %2233, %2234
  %2236 = fmul double %1562, %2232
  %2237 = fadd double %2236, %2235
  %2238 = fmul double %1494, %2237
  %2239 = fsub double %2173, %2238
  %2240 = getelementptr inbounds [8 x [4 x double]], [8 x [4 x double]]* %hourgam.i.i.i.i.i, i64 0, i64 0, i64 %indvars.iv.i.i.i.i.i
  store double %2239, double* %2240, align 8, !tbaa !1
  %2241 = fmul double %1564, %2202
  %2242 = fmul double %1566, %2217
  %2243 = fadd double %2241, %2242
  %2244 = fmul double %1568, %2232
  %2245 = fadd double %2244, %2243
  %2246 = fmul double %1494, %2245
  %2247 = fsub double %2176, %2246
  %2248 = getelementptr inbounds [8 x [4 x double]], [8 x [4 x double]]* %hourgam.i.i.i.i.i, i64 0, i64 1, i64 %indvars.iv.i.i.i.i.i
  store double %2247, double* %2248, align 8, !tbaa !1
  %2249 = fmul double %1570, %2202
  %2250 = fmul double %1572, %2217
  %2251 = fadd double %2249, %2250
  %2252 = fmul double %1574, %2232
  %2253 = fadd double %2252, %2251
  %2254 = fmul double %1494, %2253
  %2255 = fsub double %2180, %2254
  %2256 = getelementptr inbounds [8 x [4 x double]], [8 x [4 x double]]* %hourgam.i.i.i.i.i, i64 0, i64 2, i64 %indvars.iv.i.i.i.i.i
  store double %2255, double* %2256, align 8, !tbaa !1
  %2257 = fmul double %1576, %2202
  %2258 = fmul double %1578, %2217
  %2259 = fadd double %2257, %2258
  %2260 = fmul double %1580, %2232
  %2261 = fadd double %2260, %2259
  %2262 = fmul double %1494, %2261
  %2263 = fsub double %2184, %2262
  %2264 = getelementptr inbounds [8 x [4 x double]], [8 x [4 x double]]* %hourgam.i.i.i.i.i, i64 0, i64 3, i64 %indvars.iv.i.i.i.i.i
  store double %2263, double* %2264, align 8, !tbaa !1
  %2265 = fmul double %1582, %2202
  %2266 = fmul double %1584, %2217
  %2267 = fadd double %2265, %2266
  %2268 = fmul double %1586, %2232
  %2269 = fadd double %2268, %2267
  %2270 = fmul double %1494, %2269
  %2271 = fsub double %2188, %2270
  %2272 = getelementptr inbounds [8 x [4 x double]], [8 x [4 x double]]* %hourgam.i.i.i.i.i, i64 0, i64 4, i64 %indvars.iv.i.i.i.i.i
  store double %2271, double* %2272, align 8, !tbaa !1
  %2273 = fmul double %1588, %2202
  %2274 = fmul double %1590, %2217
  %2275 = fadd double %2273, %2274
  %2276 = fmul double %1592, %2232
  %2277 = fadd double %2276, %2275
  %2278 = fmul double %1494, %2277
  %2279 = fsub double %2192, %2278
  %2280 = getelementptr inbounds [8 x [4 x double]], [8 x [4 x double]]* %hourgam.i.i.i.i.i, i64 0, i64 5, i64 %indvars.iv.i.i.i.i.i
  store double %2279, double* %2280, align 8, !tbaa !1
  %2281 = fmul double %1594, %2202
  %2282 = fmul double %1596, %2217
  %2283 = fadd double %2281, %2282
  %2284 = fmul double %1598, %2232
  %2285 = fadd double %2284, %2283
  %2286 = fmul double %1494, %2285
  %2287 = fsub double %2196, %2286
  %2288 = getelementptr inbounds [8 x [4 x double]], [8 x [4 x double]]* %hourgam.i.i.i.i.i, i64 0, i64 6, i64 %indvars.iv.i.i.i.i.i
  store double %2287, double* %2288, align 8, !tbaa !1
  %2289 = fmul double %1600, %2202
  %2290 = fmul double %1602, %2217
  %2291 = fadd double %2289, %2290
  %2292 = fmul double %1604, %2232
  %2293 = fadd double %2292, %2291
  %2294 = fmul double %1494, %2293
  %2295 = fsub double %2200, %2294
  %2296 = getelementptr inbounds [8 x [4 x double]], [8 x [4 x double]]* %hourgam.i.i.i.i.i, i64 0, i64 7, i64 %indvars.iv.i.i.i.i.i
  store double %2295, double* %2296, align 8, !tbaa !1
  %indvars.iv.next.i.i.i.i.i = add nuw nsw i64 %indvars.iv.i.i.i.i.i, 1
  %exitcond.i.i.i.i.i = icmp eq i64 %indvars.iv.next.i.i.i.i.i, 4
  br i1 %exitcond.i.i.i.i.i, label %1605, label %2171

_ZL28CalcFBHourglassForceForElemsR6DomainPdS1_S1_S1_S1_S1_S1_dii.exit.i.i.i.i.loopexit: ; preds = %1605
  br label %_ZL28CalcFBHourglassForceForElemsR6DomainPdS1_S1_S1_S1_S1_S1_dii.exit.i.i.i.i

_ZL28CalcFBHourglassForceForElemsR6DomainPdS1_S1_S1_S1_S1_S1_dii.exit.i.i.i.i: ; preds = %_ZL28CalcFBHourglassForceForElemsR6DomainPdS1_S1_S1_S1_S1_S1_dii.exit.i.i.i.i.loopexit, %1411
  call void @llvm.lifetime.end(i64 256, i8* %1412) #2
  br label %2297

; <label>:2297                                    ; preds = %_ZL28CalcFBHourglassForceForElemsR6DomainPdS1_S1_S1_S1_S1_S1_dii.exit.i.i.i.i, %._crit_edge.i.i.i.i
  %2298 = icmp eq i8* %838, null
  br i1 %2298, label %_Z7ReleaseIdEvPPT_.exit7.i.i.i.i, label %2299

; <label>:2299                                    ; preds = %2297
  call void @free(i8* nonnull %838) #2
  br label %_Z7ReleaseIdEvPPT_.exit7.i.i.i.i

_Z7ReleaseIdEvPPT_.exit7.i.i.i.i:                 ; preds = %2299, %2297
  %2300 = icmp eq i8* %836, null
  br i1 %2300, label %_Z7ReleaseIdEvPPT_.exit6.i.i.i.i, label %2301

; <label>:2301                                    ; preds = %_Z7ReleaseIdEvPPT_.exit7.i.i.i.i
  call void @free(i8* nonnull %836) #2
  br label %_Z7ReleaseIdEvPPT_.exit6.i.i.i.i

_Z7ReleaseIdEvPPT_.exit6.i.i.i.i:                 ; preds = %2301, %_Z7ReleaseIdEvPPT_.exit7.i.i.i.i
  %2302 = icmp eq i8* %834, null
  br i1 %2302, label %_Z7ReleaseIdEvPPT_.exit5.i.i.i.i, label %2303

; <label>:2303                                    ; preds = %_Z7ReleaseIdEvPPT_.exit6.i.i.i.i
  call void @free(i8* nonnull %834) #2
  br label %_Z7ReleaseIdEvPPT_.exit5.i.i.i.i

_Z7ReleaseIdEvPPT_.exit5.i.i.i.i:                 ; preds = %2303, %_Z7ReleaseIdEvPPT_.exit6.i.i.i.i
  %2304 = icmp eq i8* %832, null
  br i1 %2304, label %_Z7ReleaseIdEvPPT_.exit4.i.i.i.i, label %2305

; <label>:2305                                    ; preds = %_Z7ReleaseIdEvPPT_.exit5.i.i.i.i
  call void @free(i8* nonnull %832) #2
  br label %_Z7ReleaseIdEvPPT_.exit4.i.i.i.i

_Z7ReleaseIdEvPPT_.exit4.i.i.i.i:                 ; preds = %2305, %_Z7ReleaseIdEvPPT_.exit5.i.i.i.i
  %2306 = icmp eq i8* %830, null
  br i1 %2306, label %_Z7ReleaseIdEvPPT_.exit3.i.i.i.i, label %2307

; <label>:2307                                    ; preds = %_Z7ReleaseIdEvPPT_.exit4.i.i.i.i
  call void @free(i8* nonnull %830) #2
  br label %_Z7ReleaseIdEvPPT_.exit3.i.i.i.i

_Z7ReleaseIdEvPPT_.exit3.i.i.i.i:                 ; preds = %2307, %_Z7ReleaseIdEvPPT_.exit4.i.i.i.i
  %2308 = icmp eq i8* %828, null
  br i1 %2308, label %_ZL28CalcHourglassControlForElemsR6DomainPdd.exit.i.i.i, label %2309

; <label>:2309                                    ; preds = %_Z7ReleaseIdEvPPT_.exit3.i.i.i.i
  call void @free(i8* nonnull %828) #2
  br label %_ZL28CalcHourglassControlForElemsR6DomainPdd.exit.i.i.i

_ZL28CalcHourglassControlForElemsR6DomainPdd.exit.i.i.i: ; preds = %2309, %_Z7ReleaseIdEvPPT_.exit3.i.i.i.i
  %2310 = icmp eq i8* %78, null
  br i1 %2310, label %_Z7ReleaseIdEvPPT_.exit4.i.i.i, label %2311

; <label>:2311                                    ; preds = %_ZL28CalcHourglassControlForElemsR6DomainPdd.exit.i.i.i
  call void @free(i8* nonnull %78) #2
  br label %_Z7ReleaseIdEvPPT_.exit4.i.i.i

_Z7ReleaseIdEvPPT_.exit4.i.i.i:                   ; preds = %2311, %_ZL28CalcHourglassControlForElemsR6DomainPdd.exit.i.i.i
  %2312 = icmp eq i8* %76, null
  br i1 %2312, label %_Z7ReleaseIdEvPPT_.exit3.i.i.i, label %2313

; <label>:2313                                    ; preds = %_Z7ReleaseIdEvPPT_.exit4.i.i.i
  call void @free(i8* nonnull %76) #2
  br label %_Z7ReleaseIdEvPPT_.exit3.i.i.i

_Z7ReleaseIdEvPPT_.exit3.i.i.i:                   ; preds = %2313, %_Z7ReleaseIdEvPPT_.exit4.i.i.i
  %2314 = icmp eq i8* %74, null
  br i1 %2314, label %_Z7ReleaseIdEvPPT_.exit2.i.i.i, label %2315

; <label>:2315                                    ; preds = %_Z7ReleaseIdEvPPT_.exit3.i.i.i
  call void @free(i8* nonnull %74) #2
  br label %_Z7ReleaseIdEvPPT_.exit2.i.i.i

_Z7ReleaseIdEvPPT_.exit2.i.i.i:                   ; preds = %2315, %_Z7ReleaseIdEvPPT_.exit3.i.i.i
  %2316 = icmp eq i8* %72, null
  br i1 %2316, label %_ZL17CalcForceForNodesR6Domain.exit.i, label %2317

; <label>:2317                                    ; preds = %_Z7ReleaseIdEvPPT_.exit2.i.i.i
  call void @free(i8* nonnull %72) #2
  br label %_ZL17CalcForceForNodesR6Domain.exit.i

.lr.ph.i.i.i:                                     ; preds = %_ZL23IntegrateStressForElemsR6DomainPdS1_S1_S1_ii.exit.i.i.i, %.lr.ph.i.i.i.preheader
  %indvars.iv.i.i.i = phi i64 [ %indvars.iv.next.i.i.i, %_ZL23IntegrateStressForElemsR6DomainPdS1_S1_S1_ii.exit.i.i.i ], [ 0, %.lr.ph.i.i.i.preheader ]
  %2318 = getelementptr inbounds double, double* %79, i64 %indvars.iv.i.i.i
  %2319 = load double, double* %2318, align 8, !tbaa !1
  %2320 = fcmp ugt double %2319, 0.000000e+00
  %indvars.iv.next.i.i.i = add nuw nsw i64 %indvars.iv.i.i.i, 1
  br i1 %2320, label %_ZL23IntegrateStressForElemsR6DomainPdS1_S1_S1_ii.exit.i.i.i, label %2321

; <label>:2321                                    ; preds = %.lr.ph.i.i.i
  call void @exit(i32 -1) #20
  unreachable

scalar.ph:                                        ; preds = %scalar.ph, %scalar.ph.preheader.split.split
  %indvars.iv.i9.i = phi i64 [ %indvars.iv.i9.i.unr, %scalar.ph.preheader.split.split ], [ %indvars.iv.next.i10.i.3, %scalar.ph ]
  %2322 = getelementptr inbounds double, double* %9, i64 %indvars.iv.i9.i
  store double 0.000000e+00, double* %2322, align 8, !tbaa !1
  %2323 = getelementptr inbounds double, double* %11, i64 %indvars.iv.i9.i
  store double 0.000000e+00, double* %2323, align 8, !tbaa !1
  %2324 = getelementptr inbounds double, double* %13, i64 %indvars.iv.i9.i
  store double 0.000000e+00, double* %2324, align 8, !tbaa !1
  %indvars.iv.next.i10.i = add nuw nsw i64 %indvars.iv.i9.i, 1
  %2325 = getelementptr inbounds double, double* %9, i64 %indvars.iv.next.i10.i
  store double 0.000000e+00, double* %2325, align 8, !tbaa !1
  %2326 = getelementptr inbounds double, double* %11, i64 %indvars.iv.next.i10.i
  store double 0.000000e+00, double* %2326, align 8, !tbaa !1
  %2327 = getelementptr inbounds double, double* %13, i64 %indvars.iv.next.i10.i
  store double 0.000000e+00, double* %2327, align 8, !tbaa !1
  %indvars.iv.next.i10.i.1 = add nsw i64 %indvars.iv.i9.i, 2
  %2328 = getelementptr inbounds double, double* %9, i64 %indvars.iv.next.i10.i.1
  store double 0.000000e+00, double* %2328, align 8, !tbaa !1
  %2329 = getelementptr inbounds double, double* %11, i64 %indvars.iv.next.i10.i.1
  store double 0.000000e+00, double* %2329, align 8, !tbaa !1
  %2330 = getelementptr inbounds double, double* %13, i64 %indvars.iv.next.i10.i.1
  store double 0.000000e+00, double* %2330, align 8, !tbaa !1
  %indvars.iv.next.i10.i.2 = add nsw i64 %indvars.iv.i9.i, 3
  %2331 = getelementptr inbounds double, double* %9, i64 %indvars.iv.next.i10.i.2
  store double 0.000000e+00, double* %2331, align 8, !tbaa !1
  %2332 = getelementptr inbounds double, double* %11, i64 %indvars.iv.next.i10.i.2
  store double 0.000000e+00, double* %2332, align 8, !tbaa !1
  %2333 = getelementptr inbounds double, double* %13, i64 %indvars.iv.next.i10.i.2
  store double 0.000000e+00, double* %2333, align 8, !tbaa !1
  %indvars.iv.next.i10.i.3 = add nsw i64 %indvars.iv.i9.i, 4
  %lftr.wideiv104.3 = trunc i64 %indvars.iv.next.i10.i.3 to i32
  %exitcond105.3 = icmp eq i32 %lftr.wideiv104.3, %6
  br i1 %exitcond105.3, label %._crit_edge.i.i.loopexit.unr-lcssa, label %scalar.ph, !llvm.loop !37

_ZL17CalcForceForNodesR6Domain.exit.i:            ; preds = %2317, %_Z7ReleaseIdEvPPT_.exit2.i.i.i, %._crit_edge.i.i
  %2334 = load i32, i32* %5, align 4, !tbaa !12
  %2335 = icmp sgt i32 %2334, 0
  br i1 %2335, label %.lr.ph.i11.i, label %_ZL24CalcAccelerationForNodesR6Domaini.exit.i

.lr.ph.i11.i:                                     ; preds = %_ZL17CalcForceForNodesR6Domain.exit.i
  %2336 = getelementptr inbounds %class.Domain, %class.Domain* %domain, i64 0, i32 9, i32 0, i32 0, i32 0
  %2337 = load double*, double** %2336, align 8
  %2338 = getelementptr inbounds %class.Domain, %class.Domain* %domain, i64 0, i32 12, i32 0, i32 0, i32 0
  %2339 = load double*, double** %2338, align 8
  %2340 = getelementptr inbounds %class.Domain, %class.Domain* %domain, i64 0, i32 6, i32 0, i32 0, i32 0
  %2341 = load double*, double** %2340, align 8
  %2342 = getelementptr inbounds %class.Domain, %class.Domain* %domain, i64 0, i32 10, i32 0, i32 0, i32 0
  %2343 = load double*, double** %2342, align 8
  %2344 = getelementptr inbounds %class.Domain, %class.Domain* %domain, i64 0, i32 7, i32 0, i32 0, i32 0
  %2345 = load double*, double** %2344, align 8
  %2346 = getelementptr inbounds %class.Domain, %class.Domain* %domain, i64 0, i32 11, i32 0, i32 0, i32 0
  %2347 = load double*, double** %2346, align 8
  %2348 = getelementptr inbounds %class.Domain, %class.Domain* %domain, i64 0, i32 8, i32 0, i32 0, i32 0
  %2349 = load double*, double** %2348, align 8
  br label %2350

; <label>:2350                                    ; preds = %2350, %.lr.ph.i11.i
  %indvars.iv.i13.i = phi i64 [ 0, %.lr.ph.i11.i ], [ %indvars.iv.next.i14.i, %2350 ]
  %2351 = getelementptr inbounds double, double* %2337, i64 %indvars.iv.i13.i
  %2352 = load double, double* %2351, align 8, !tbaa !1
  %2353 = getelementptr inbounds double, double* %2339, i64 %indvars.iv.i13.i
  %2354 = load double, double* %2353, align 8, !tbaa !1
  %2355 = fdiv double %2352, %2354
  %2356 = getelementptr inbounds double, double* %2341, i64 %indvars.iv.i13.i
  store double %2355, double* %2356, align 8, !tbaa !1
  %2357 = getelementptr inbounds double, double* %2343, i64 %indvars.iv.i13.i
  %2358 = load double, double* %2357, align 8, !tbaa !1
  %2359 = load double, double* %2353, align 8, !tbaa !1
  %2360 = fdiv double %2358, %2359
  %2361 = getelementptr inbounds double, double* %2345, i64 %indvars.iv.i13.i
  store double %2360, double* %2361, align 8, !tbaa !1
  %2362 = getelementptr inbounds double, double* %2347, i64 %indvars.iv.i13.i
  %2363 = load double, double* %2362, align 8, !tbaa !1
  %2364 = load double, double* %2353, align 8, !tbaa !1
  %2365 = fdiv double %2363, %2364
  %2366 = getelementptr inbounds double, double* %2349, i64 %indvars.iv.i13.i
  store double %2365, double* %2366, align 8, !tbaa !1
  %indvars.iv.next.i14.i = add nuw nsw i64 %indvars.iv.i13.i, 1
  %lftr.wideiv96 = trunc i64 %indvars.iv.next.i14.i to i32
  %exitcond97 = icmp eq i32 %lftr.wideiv96, %2334
  br i1 %exitcond97, label %_ZL24CalcAccelerationForNodesR6Domaini.exit.i.loopexit, label %2350

_ZL24CalcAccelerationForNodesR6Domaini.exit.i.loopexit: ; preds = %2350
  br label %_ZL24CalcAccelerationForNodesR6Domaini.exit.i

_ZL24CalcAccelerationForNodesR6Domaini.exit.i:    ; preds = %_ZL24CalcAccelerationForNodesR6Domaini.exit.i.loopexit, %_ZL17CalcForceForNodesR6Domain.exit.i
  %2367 = getelementptr inbounds %class.Domain, %class.Domain* %domain, i64 0, i32 85
  %2368 = load i32, i32* %2367, align 4, !tbaa !12
  %2369 = add i32 %2368, 1
  %2370 = mul i32 %2369, %2369
  %2371 = getelementptr inbounds %class.Domain, %class.Domain* %domain, i64 0, i32 13, i32 0, i32 0, i32 0
  %2372 = load i32*, i32** %2371, align 8, !tbaa !5
  %2373 = getelementptr inbounds %class.Domain, %class.Domain* %domain, i64 0, i32 13, i32 0, i32 0, i32 1
  %2374 = load i32*, i32** %2373, align 8, !tbaa !38
  %2375 = icmp ne i32* %2372, %2374
  %2376 = icmp ne i32 %2370, 0
  %or.cond.i.i = and i1 %2375, %2376
  br i1 %or.cond.i.i, label %.lr.ph11.i.i, label %.loopexit6.i.i

.lr.ph11.i.i:                                     ; preds = %_ZL24CalcAccelerationForNodesR6Domaini.exit.i
  %2377 = getelementptr inbounds %class.Domain, %class.Domain* %domain, i64 0, i32 6, i32 0, i32 0, i32 0
  %2378 = load double*, double** %2377, align 8
  %2379 = zext i32 %2370 to i64
  %2380 = add nsw i64 %2379, -1
  %xtraiter339 = and i64 %2379, 3
  %lcmp.mod340 = icmp eq i64 %xtraiter339, 0
  br i1 %lcmp.mod340, label %.lr.ph11.i.i.split, label %.preheader350

.preheader350:                                    ; preds = %.lr.ph11.i.i
  br label %2381

; <label>:2381                                    ; preds = %2381, %.preheader350
  %indvars.iv16.i.i.prol = phi i64 [ %indvars.iv.next17.i.i.prol, %2381 ], [ 0, %.preheader350 ]
  %prol.iter341 = phi i64 [ %prol.iter341.sub, %2381 ], [ %xtraiter339, %.preheader350 ]
  %2382 = getelementptr inbounds i32, i32* %2372, i64 %indvars.iv16.i.i.prol
  %2383 = load i32, i32* %2382, align 4, !tbaa !12
  %2384 = sext i32 %2383 to i64
  %2385 = getelementptr inbounds double, double* %2378, i64 %2384
  store double 0.000000e+00, double* %2385, align 8, !tbaa !1
  %indvars.iv.next17.i.i.prol = add nuw nsw i64 %indvars.iv16.i.i.prol, 1
  %prol.iter341.sub = add i64 %prol.iter341, -1
  %prol.iter341.cmp = icmp eq i64 %prol.iter341.sub, 0
  br i1 %prol.iter341.cmp, label %.lr.ph11.i.i.split.loopexit, label %2381, !llvm.loop !39

.lr.ph11.i.i.split.loopexit:                      ; preds = %2381
  br label %.lr.ph11.i.i.split

.lr.ph11.i.i.split:                               ; preds = %.lr.ph11.i.i.split.loopexit, %.lr.ph11.i.i
  %indvars.iv16.i.i.unr = phi i64 [ 0, %.lr.ph11.i.i ], [ %indvars.iv.next17.i.i.prol, %.lr.ph11.i.i.split.loopexit ]
  %2386 = icmp ult i64 %2380, 3
  br i1 %2386, label %.loopexit6.i.i.loopexit, label %.lr.ph11.i.i.split.split

.lr.ph11.i.i.split.split:                         ; preds = %.lr.ph11.i.i.split
  br label %2387

; <label>:2387                                    ; preds = %2387, %.lr.ph11.i.i.split.split
  %indvars.iv16.i.i = phi i64 [ %indvars.iv16.i.i.unr, %.lr.ph11.i.i.split.split ], [ %indvars.iv.next17.i.i.3, %2387 ]
  %2388 = getelementptr inbounds i32, i32* %2372, i64 %indvars.iv16.i.i
  %2389 = load i32, i32* %2388, align 4, !tbaa !12
  %2390 = sext i32 %2389 to i64
