; ModuleID = 'lulesh.ll'
target datalayout = "e-m:e-i64:64-f80:128-n8:16:32:64-S128"
target triple = "x86_64-unknown-linux-gnu"

%"class.std::ios_base::Init" = type { i8 }
%struct._IO_FILE = type { i32, i8*, i8*, i8*, i8*, i8*, i8*, i8*, i8*, i8*, i8*, i8*, %struct._IO_marker*, %struct._IO_FILE*, i32, i32, i64, i16, i8, [1 x i8], i8*, i64, i8*, i8*, i8*, i8*, i64, i32, [20 x i8] }
%struct._IO_marker = type { %struct._IO_marker*, %struct._IO_FILE*, i32 }
%class.Domain = type { %"class.std::vector", %"class.std::vector", %"class.std::vector", %"class.std::vector", %"class.std::vector", %"class.std::vector", %"class.std::vector", %"class.std::vector", %"class.std::vector", %"class.std::vector", %"class.std::vector", %"class.std::vector", %"class.std::vector", %"class.std::vector.0", %"class.std::vector.0", %"class.std::vector.0", i32, i32, i32*, i32*, i32**, %"class.std::vector.0", %"class.std::vector.0", %"class.std::vector.0", %"class.std::vector.0", %"class.std::vector.0", %"class.std::vector.0", %"class.std::vector.0", %"class.std::vector.0", %"class.std::vector", %"class.std::vector", %"class.std::vector", %"class.std::vector", %"class.std::vector", %"class.std::vector", %"class.std::vector", %"class.std::vector", %"class.std::vector", %"class.std::vector", %"class.std::vector", %"class.std::vector", %"class.std::vector", %"class.std::vector", %"class.std::vector", %"class.std::vector", %"class.std::vector", %"class.std::vector", %"class.std::vector", %"class.std::vector", %"class.std::vector", %"class.std::vector", double, double, double, double, double, double, double, double, double, double, double, double, double, double, double, double, double, double, double, double, double, i32, double, double, double, double, double, double, double, i32, i32, i32, i32, i32, i32, i32, i32, i32, i32, i32, i32, i32*, i32*, i32, i32, i32, i32, i32, i32 }
%"class.std::vector.0" = type { %"struct.std::_Vector_base.1" }
%"struct.std::_Vector_base.1" = type { %"struct.std::_Vector_base<int, std::allocator<int> >::_Vector_impl" }
%"struct.std::_Vector_base<int, std::allocator<int> >::_Vector_impl" = type { i32*, i32*, i32* }
%"class.std::vector" = type { %"struct.std::_Vector_base" }
%"struct.std::_Vector_base" = type { %"struct.std::_Vector_base<double, std::allocator<double> >::_Vector_impl" }
%"struct.std::_Vector_base<double, std::allocator<double> >::_Vector_impl" = type { double*, double*, double* }
%struct.cmdLineOpts = type { i32, i32, i32, i32, i32, i32, i32, i32, i32 }
%struct.timeval = type { i64, i64 }
%struct.timezone = type { i32, i32 }
%"class.__gnu_cxx::__normal_iterator" = type { i32* }
%"class.__gnu_cxx::__normal_iterator.5" = type { double* }

$_ZN6Domain8nodelistEi = comdat any

$_ZNSt6vectorIiSaIiEEixEm = comdat any

$_ZN6Domain1xEi = comdat any

$_ZNSt6vectorIdSaIdEEixEm = comdat any

$_ZN6Domain1yEi = comdat any

$_ZN6Domain1zEi = comdat any

$_ZN6Domain4voloEi = comdat any

$_ZN6Domain1vEi = comdat any

$_ZN6Domain4delvEi = comdat any

$_ZSt3maxIdERKT_S2_S2_ = comdat any

$_Z4SQRTd = comdat any

$_ZN6Domain6arealgEi = comdat any

$_ZN6Domain2xdEi = comdat any

$_ZN6Domain2ydEi = comdat any

$_ZN6Domain2zdEi = comdat any

$_ZN6Domain3dxxEi = comdat any

$_ZN6Domain3dyyEi = comdat any

$_ZN6Domain3dzzEi = comdat any

$_ZN6Domain4timeEv = comdat any

$_ZN6Domain8stoptimeEv = comdat any

$_ZN6Domain5cycleEv = comdat any

$_ZN6Domain7dtfixedEv = comdat any

$_ZN6Domain9deltatimeEv = comdat any

$_ZN6Domain9dtcourantEv = comdat any

$_ZN6Domain7dthydroEv = comdat any

$_ZN6Domain15deltatimemultlbEv = comdat any

$_ZN6Domain15deltatimemultubEv = comdat any

$_ZN6Domain5dtmaxEv = comdat any

$_ZNK6Domain5u_cutEv = comdat any

$_ZN6Domain7numNodeEv = comdat any

$_ZN6Domain7numElemEv = comdat any

$_ZNK6Domain6hgcoefEv = comdat any

$_Z8AllocateIdEPT_m = comdat any

$_ZN6Domain1pEi = comdat any

$_ZN6Domain1qEi = comdat any

$_ZN6Domain2fxEi = comdat any

$_ZN6Domain2fyEi = comdat any

$_ZN6Domain2fzEi = comdat any

$_ZN6Domain2ssEi = comdat any

$_ZN6Domain8elemMassEi = comdat any

$_Z4CBRTd = comdat any

$_Z7ReleaseIdEvPPT_ = comdat any

$_ZN6Domain9nodalMassEi = comdat any

$_ZN6Domain3xddEi = comdat any

$_ZN6Domain3yddEi = comdat any

$_ZN6Domain3zddEi = comdat any

$_ZN6Domain5sizeXEv = comdat any

$_ZN6Domain10symmXemptyEv = comdat any

$_ZNKSt6vectorIiSaIiEE5emptyEv = comdat any

$_ZNKSt6vectorIiSaIiEE5beginEv = comdat any

$_ZN9__gnu_cxx17__normal_iteratorIPKiSt6vectorIiSaIiEEEC2ERKS2_ = comdat any

$_ZNKSt6vectorIiSaIiEE3endEv = comdat any

$_ZN9__gnu_cxxeqIPKiSt6vectorIiSaIiEEEEbRKNS_17__normal_iteratorIT_T0_EESB_ = comdat any

$_ZNK9__gnu_cxx17__normal_iteratorIPKiSt6vectorIiSaIiEEE4baseEv = comdat any

$_ZN6Domain5symmXEi = comdat any

$_ZN6Domain10symmYemptyEv = comdat any

$_ZN6Domain5symmYEi = comdat any

$_ZN6Domain10symmZemptyEv = comdat any

$_ZN6Domain5symmZEi = comdat any

$_Z4FABSd = comdat any

$_ZN6Domain15AllocateStrainsEi = comdat any

$_ZNSt6vectorIdSaIdEE6resizeEmd = comdat any

$_ZNKSt6vectorIdSaIdEE4sizeEv = comdat any

$_ZNSt6vectorIdSaIdEE3endEv = comdat any

$_ZN9__gnu_cxx17__normal_iteratorIPdSt6vectorIdSaIdEEEC2ERKS1_ = comdat any

$_ZNSt6vectorIdSaIdEE14_M_fill_insertEN9__gnu_cxx17__normal_iteratorIPdS1_EEmRKd = comdat any

$_ZN9__gnu_cxxmiIPdSt6vectorIdSaIdEEEENS_17__normal_iteratorIT_T0_E15difference_typeERKS8_SB_ = comdat any

$_ZNK9__gnu_cxx17__normal_iteratorIPdSt6vectorIdSaIdEEE4baseEv = comdat any

$_ZNSt12_Vector_baseIdSaIdEE19_M_get_Tp_allocatorEv = comdat any

$_ZSt22__uninitialized_move_aIPdS0_SaIdEET0_T_S3_S2_RT1_ = comdat any

$_ZSt22__uninitialized_copy_aIPdS0_dET0_T_S2_S1_RSaIT1_E = comdat any

$_ZSt18uninitialized_copyIPdS0_ET0_T_S2_S1_ = comdat any

$_ZNSt20__uninitialized_copyILb1EE13__uninit_copyIPdS2_EET0_T_S4_S3_ = comdat any

$_ZSt4copyIPdS0_ET0_T_S2_S1_ = comdat any

$_ZSt12__miter_baseIPdET_S1_ = comdat any

$_ZSt14__copy_move_a2ILb0EPdS0_ET1_T0_S2_S1_ = comdat any

$_ZSt12__niter_baseIPdET_S1_ = comdat any

$_ZSt13__copy_move_aILb0EPdS0_ET1_T0_S2_S1_ = comdat any

$_ZNSt11__copy_moveILb0ELb1ESt26random_access_iterator_tagE8__copy_mIdEEPT_PKS3_S6_S4_ = comdat any

$_ZSt13copy_backwardIPdS0_ET0_T_S2_S1_ = comdat any

$_ZSt23__copy_move_backward_a2ILb0EPdS0_ET1_T0_S2_S1_ = comdat any

$_ZSt22__copy_move_backward_aILb0EPdS0_ET1_T0_S2_S1_ = comdat any

$_ZNSt20__copy_move_backwardILb0ELb1ESt26random_access_iterator_tagE13__copy_move_bIdEEPT_PKS3_S6_S4_ = comdat any

$_ZSt4fillIPddEvT_S1_RKT0_ = comdat any

$_ZSt8__fill_aIPddEN9__gnu_cxx11__enable_ifIXsr11__is_scalarIT0_EE7__valueEvE6__typeET_S6_RKS3_ = comdat any

$_ZSt24__uninitialized_fill_n_aIPdmddET_S1_T0_RKT1_RSaIT2_E = comdat any

$_ZSt20uninitialized_fill_nIPdmdET_S1_T0_RKT1_ = comdat any

$_ZNSt22__uninitialized_fill_nILb1EE15__uninit_fill_nIPdmdEET_S3_T0_RKT1_ = comdat any

$_ZSt6fill_nIPdmdET_S1_T0_RKT1_ = comdat any

$_ZSt10__fill_n_aIPdmdEN9__gnu_cxx11__enable_ifIXsr11__is_scalarIT1_EE7__valueET_E6__typeES4_T0_RKS3_ = comdat any

$_ZNKSt6vectorIdSaIdEE12_M_check_lenEmPKc = comdat any

$_ZSt3maxImERKT_S2_S2_ = comdat any

$_ZNSt6vectorIdSaIdEE5beginEv = comdat any

$_ZNSt12_Vector_baseIdSaIdEE11_M_allocateEm = comdat any

$_ZN9__gnu_cxx14__alloc_traitsISaIdEE8allocateERS1_m = comdat any

$_ZN9__gnu_cxx13new_allocatorIdE8allocateEmPKv = comdat any

$_ZSt34__uninitialized_move_if_noexcept_aIPdS0_SaIdEET0_T_S3_S2_RT1_ = comdat any

$_ZNSt12_Vector_baseIdSaIdEE13_M_deallocateEPdm = comdat any

$_ZN9__gnu_cxx14__alloc_traitsISaIdEE10deallocateERS1_Pdm = comdat any

$_ZN9__gnu_cxx13new_allocatorIdE10deallocateEPdm = comdat any

$_ZNSt6vectorIdSaIdEE15_M_erase_at_endEPd = comdat any

$_ZN6Domain17DeallocateStrainsEv = comdat any

$_ZNSt6vectorIdSaIdEE5clearEv = comdat any

$_ZN6Domain4vdovEi = comdat any

$_ZN6Domain5sizeYEv = comdat any

$_ZN6Domain5sizeZEv = comdat any

$_ZN6Domain17AllocateGradientsEii = comdat any

$_ZN6Domain9delx_zetaEi = comdat any

$_ZN6Domain9delv_zetaEi = comdat any

$_ZN6Domain7delx_xiEi = comdat any

$_ZN6Domain7delv_xiEi = comdat any

$_ZN6Domain8delx_etaEi = comdat any

$_ZN6Domain8delv_etaEi = comdat any

$_ZN6Domain6numRegEv = comdat any

$_ZN6Domain11regElemSizeEi = comdat any

$_ZNK6Domain18monoq_limiter_multEv = comdat any

$_ZNK6Domain15monoq_max_slopeEv = comdat any

$_ZNK6Domain9qlc_monoqEv = comdat any

$_ZNK6Domain9qqc_monoqEv = comdat any

$_ZN6Domain11regElemlistEii = comdat any

$_ZN6Domain6elemBCEi = comdat any

$_ZN6Domain4lximEi = comdat any

$_ZN6Domain4lxipEi = comdat any

$_ZN6Domain5letamEi = comdat any

$_ZN6Domain5letapEi = comdat any

$_ZN6Domain6lzetamEi = comdat any

$_ZN6Domain6lzetapEi = comdat any

$_ZN6Domain2qqEi = comdat any

$_ZN6Domain2qlEi = comdat any

$_ZN6Domain19DeallocateGradientsEv = comdat any

$_ZNK6Domain5qstopEv = comdat any

$_ZNK6Domain7eosvminEv = comdat any

$_ZNK6Domain7eosvmaxEv = comdat any

$_ZN6Domain11regElemlistEi = comdat any

$_ZN6Domain4costEv = comdat any

$_ZNK6Domain5e_cutEv = comdat any

$_ZNK6Domain5p_cutEv = comdat any

$_ZNK6Domain5q_cutEv = comdat any

$_ZNK6Domain4pminEv = comdat any

$_ZNK6Domain4eminEv = comdat any

$_ZNK6Domain7refdensEv = comdat any

$_ZN6Domain1eEi = comdat any

$_ZNK6Domain5v_cutEv = comdat any

$_ZNK6Domain3qqcEv = comdat any

$_ZNK6Domain7dvovmaxEv = comdat any

$_ZNSt6vectorIdSaIdEEC2Ev = comdat any

$_ZNSt12_Vector_baseIdSaIdEEC2Ev = comdat any

$_ZNSt12_Vector_baseIdSaIdEE12_Vector_implC2Ev = comdat any

$_ZNSt6vectorIiSaIiEEC2Ev = comdat any

$_ZNSt12_Vector_baseIiSaIiEEC2Ev = comdat any

$_ZNSt12_Vector_baseIiSaIiEE12_Vector_implC2Ev = comdat any

$_ZN6Domain22AllocateElemPersistentEi = comdat any

$_ZNSt6vectorIiSaIiEE6resizeEmi = comdat any

$_ZNKSt6vectorIiSaIiEE4sizeEv = comdat any

$_ZNSt6vectorIiSaIiEE3endEv = comdat any

$_ZN9__gnu_cxx17__normal_iteratorIPiSt6vectorIiSaIiEEEC2ERKS1_ = comdat any

$_ZNSt6vectorIiSaIiEE14_M_fill_insertEN9__gnu_cxx17__normal_iteratorIPiS1_EEmRKi = comdat any

$_ZN9__gnu_cxxmiIPiSt6vectorIiSaIiEEEENS_17__normal_iteratorIT_T0_E15difference_typeERKS8_SB_ = comdat any

$_ZNK9__gnu_cxx17__normal_iteratorIPiSt6vectorIiSaIiEEE4baseEv = comdat any

$_ZNSt12_Vector_baseIiSaIiEE19_M_get_Tp_allocatorEv = comdat any

$_ZSt22__uninitialized_move_aIPiS0_SaIiEET0_T_S3_S2_RT1_ = comdat any

$_ZSt22__uninitialized_copy_aIPiS0_iET0_T_S2_S1_RSaIT1_E = comdat any

$_ZSt18uninitialized_copyIPiS0_ET0_T_S2_S1_ = comdat any

$_ZNSt20__uninitialized_copyILb1EE13__uninit_copyIPiS2_EET0_T_S4_S3_ = comdat any

$_ZSt4copyIPiS0_ET0_T_S2_S1_ = comdat any

$_ZSt12__miter_baseIPiET_S1_ = comdat any

$_ZSt14__copy_move_a2ILb0EPiS0_ET1_T0_S2_S1_ = comdat any

$_ZSt12__niter_baseIPiET_S1_ = comdat any

$_ZSt13__copy_move_aILb0EPiS0_ET1_T0_S2_S1_ = comdat any

$_ZNSt11__copy_moveILb0ELb1ESt26random_access_iterator_tagE8__copy_mIiEEPT_PKS3_S6_S4_ = comdat any

$_ZSt13copy_backwardIPiS0_ET0_T_S2_S1_ = comdat any

$_ZSt23__copy_move_backward_a2ILb0EPiS0_ET1_T0_S2_S1_ = comdat any

$_ZSt22__copy_move_backward_aILb0EPiS0_ET1_T0_S2_S1_ = comdat any

$_ZNSt20__copy_move_backwardILb0ELb1ESt26random_access_iterator_tagE13__copy_move_bIiEEPT_PKS3_S6_S4_ = comdat any

$_ZSt4fillIPiiEvT_S1_RKT0_ = comdat any

$_ZSt8__fill_aIPiiEN9__gnu_cxx11__enable_ifIXsr11__is_scalarIT0_EE7__valueEvE6__typeET_S6_RKS3_ = comdat any

$_ZSt24__uninitialized_fill_n_aIPimiiET_S1_T0_RKT1_RSaIT2_E = comdat any

$_ZSt20uninitialized_fill_nIPimiET_S1_T0_RKT1_ = comdat any

$_ZNSt22__uninitialized_fill_nILb1EE15__uninit_fill_nIPimiEET_S3_T0_RKT1_ = comdat any

$_ZSt6fill_nIPimiET_S1_T0_RKT1_ = comdat any

$_ZSt10__fill_n_aIPimiEN9__gnu_cxx11__enable_ifIXsr11__is_scalarIT1_EE7__valueET_E6__typeES4_T0_RKS3_ = comdat any

$_ZNKSt6vectorIiSaIiEE12_M_check_lenEmPKc = comdat any

$_ZNSt6vectorIiSaIiEE5beginEv = comdat any

$_ZNSt12_Vector_baseIiSaIiEE11_M_allocateEm = comdat any

$_ZN9__gnu_cxx14__alloc_traitsISaIiEE8allocateERS1_m = comdat any

$_ZN9__gnu_cxx13new_allocatorIiE8allocateEmPKv = comdat any

$_ZSt34__uninitialized_move_if_noexcept_aIPiS0_SaIiEET0_T_S3_S2_RT1_ = comdat any

$_ZNSt12_Vector_baseIiSaIiEE13_M_deallocateEPim = comdat any

$_ZN9__gnu_cxx14__alloc_traitsISaIiEE10deallocateERS1_Pim = comdat any

$_ZN9__gnu_cxx13new_allocatorIiE10deallocateEPim = comdat any

$_ZNSt6vectorIiSaIiEE15_M_erase_at_endEPi = comdat any

$_ZN6Domain22AllocateNodePersistentEi = comdat any

$_ZNSt6vectorIdSaIdEED2Ev = comdat any

$_ZNSt12_Vector_baseIdSaIdEED2Ev = comdat any

$_ZN6Domain10regNumListEi = comdat any

$_ZSt3powIiiEN9__gnu_cxx11__promote_2IT_T0_NS0_9__promoteIS2_Xsr3std12__is_integerIS2_EE7__valueEE6__typeENS4_IS3_Xsr3std12__is_integerIS3_EE7__valueEE6__typeEE6__typeES2_S3_ = comdat any

$_ZNSt6vectorIiSaIiEED2Ev = comdat any

$_ZNSt12_Vector_baseIiSaIiEED2Ev = comdat any

$__clang_call_terminate = comdat any

@llvm.global_ctors = appending global [1 x { i32, void ()*, i8* }] [{ i32, void ()*, i8* } { i32 65535, void ()* @_GLOBAL__sub_I_lulesh.cc, i8* null }]
@_ZStL8__ioinit = internal global %"class.std::ios_base::Init" zeroinitializer, align 1
@__dso_handle = external global i8
@.str = private unnamed_addr constant [55 x i8] c"Running problem size %d^3 per domain until completion\0A\00", align 1
@.str.1 = private unnamed_addr constant [20 x i8] c"Num processors: %d\0A\00", align 1
@.str.2 = private unnamed_addr constant [33 x i8] c"Total number of elements: %lld\0A\0A\00", align 1
@str = private unnamed_addr constant [38 x i8] c"To run other sizes, use -s <integer>.\00"
@str.14 = private unnamed_addr constant [55 x i8] c"To run a fixed number of iterations, use -i <integer>.\00"
@str.15 = private unnamed_addr constant [61 x i8] c"To run a more or less balanced region set, use -b <integer>.\00"
@str.16 = private unnamed_addr constant [59 x i8] c"To change the relative costs of regions, use -c <integer>.\00"
@str.17 = private unnamed_addr constant [30 x i8] c"To print out progress, use -p\00"
@str.18 = private unnamed_addr constant [42 x i8] c"To write an output file for VisIt, use -v\00"
@str.19 = private unnamed_addr constant [32 x i8] c"See help (-h) for more options\0A\00"
@.str.11 = private unnamed_addr constant [23 x i8] c"vector::_M_fill_insert\00", align 1
@stderr = external global %struct._IO_FILE*, align 8
@.str.12 = private unnamed_addr constant [31 x i8] c"Error in switch at %s line %d\0A\00", align 1
@.str.13 = private unnamed_addr constant [10 x i8] c"lulesh.cc\00", align 1
@.str.10 = private unnamed_addr constant [30 x i8] c"cycle = %d, time = %e, dt=%e\0A\00", align 1
@str.3 = private unnamed_addr constant [58 x i8] c"Must enable -DVIZ_MESH at compile time to call DumpDomain\00"
@.str.6 = private unnamed_addr constant [2 x i8] c"i\00", align 1
@.str.1.7 = private unnamed_addr constant [31 x i8] c"Missing integer argument to -i\00", align 1
@.str.2.8 = private unnamed_addr constant [64 x i8] c"Parse Error on option -i integer value required after argument\0A\00", align 1
@.str.3 = private unnamed_addr constant [2 x i8] c"s\00", align 1
@.str.4 = private unnamed_addr constant [32 x i8] c"Missing integer argument to -s\0A\00", align 1
@.str.5 = private unnamed_addr constant [64 x i8] c"Parse Error on option -s integer value required after argument\0A\00", align 1
@.str.6.9 = private unnamed_addr constant [3 x i8] c"-r\00", align 1
@.str.7 = private unnamed_addr constant [32 x i8] c"Missing integer argument to -r\0A\00", align 1
@.str.8 = private unnamed_addr constant [64 x i8] c"Parse Error on option -r integer value required after argument\0A\00", align 1
@.str.9 = private unnamed_addr constant [3 x i8] c"-f\00", align 1
@.str.10.10 = private unnamed_addr constant [32 x i8] c"Missing integer argument to -f\0A\00", align 1
@.str.11.11 = private unnamed_addr constant [64 x i8] c"Parse Error on option -f integer value required after argument\0A\00", align 1
@.str.12.12 = private unnamed_addr constant [3 x i8] c"-p\00", align 1
@.str.13.13 = private unnamed_addr constant [3 x i8] c"-q\00", align 1
@.str.14 = private unnamed_addr constant [3 x i8] c"-b\00", align 1
@.str.15 = private unnamed_addr constant [32 x i8] c"Missing integer argument to -b\0A\00", align 1
@.str.16 = private unnamed_addr constant [64 x i8] c"Parse Error on option -b integer value required after argument\0A\00", align 1
@.str.17 = private unnamed_addr constant [3 x i8] c"-c\00", align 1
@.str.18 = private unnamed_addr constant [32 x i8] c"Missing integer argument to -c\0A\00", align 1
@.str.19 = private unnamed_addr constant [64 x i8] c"Parse Error on option -c integer value required after argument\0A\00", align 1
@.str.20 = private unnamed_addr constant [3 x i8] c"-v\00", align 1
@.str.21 = private unnamed_addr constant [46 x i8] c"Use of -v requires compiling with -DVIZ_MESH\0A\00", align 1
@.str.22 = private unnamed_addr constant [3 x i8] c"-h\00", align 1
@.str.37 = private unnamed_addr constant [18 x i8] c"Usage: %s [opts]\0A\00", align 1
@str.20 = private unnamed_addr constant [33 x i8] c" where [opts] is one or more of:\00"
@str.50 = private unnamed_addr constant [52 x i8] c" -q              : quiet mode - suppress all stdout\00"
@str.51 = private unnamed_addr constant [43 x i8] c" -i <iterations> : number of cycles to run\00"
@str.52 = private unnamed_addr constant [50 x i8] c" -s <size>       : length of cube mesh along side\00"
@str.53 = private unnamed_addr constant [56 x i8] c" -r <numregions> : Number of distinct regions (def: 11)\00"
@str.54 = private unnamed_addr constant [69 x i8] c" -b <balance>    : Load balance between regions of a domain (def: 1)\00"
@str.55 = private unnamed_addr constant [65 x i8] c" -c <cost>       : Extra cost of more expensive regions (def: 1)\00"
@str.56 = private unnamed_addr constant [75 x i8] c" -f <numfiles>   : Number of files to split viz dump into (def: (np+10)/9)\00"
@str.57 = private unnamed_addr constant [38 x i8] c" -p              : Print out progress\00"
@str.58 = private unnamed_addr constant [71 x i8] c" -v              : Output viz file (requires compiling with -DVIZ_MESH\00"
@str.59 = private unnamed_addr constant [32 x i8] c" -h              : This message\00"
@str.60 = private unnamed_addr constant [2 x i8] c"\0A\00"
@.str.23 = private unnamed_addr constant [42 x i8] c"ERROR: Unknown command line argument: %s\0A\00", align 1
@str.61 = private unnamed_addr constant [17 x i8] c"Run completed:  \00"
@.str.25 = private unnamed_addr constant [31 x i8] c"   Problem size        =  %i \0A\00", align 1
@.str.26 = private unnamed_addr constant [31 x i8] c"   MPI tasks           =  %i \0A\00", align 1
@.str.27 = private unnamed_addr constant [31 x i8] c"   Iteration count     =  %i \0A\00", align 1
@.str.28 = private unnamed_addr constant [34 x i8] c"   Final Origin Energy = %12.6e \0A\00", align 1
@str.62 = private unnamed_addr constant [46 x i8] c"   Testing Plane 0 of Energy Array on rank 0:\00"
@.str.30 = private unnamed_addr constant [31 x i8] c"        MaxAbsDiff   = %12.6e\0A\00", align 1
@.str.31 = private unnamed_addr constant [31 x i8] c"        TotalAbsDiff = %12.6e\0A\00", align 1
@.str.32 = private unnamed_addr constant [32 x i8] c"        MaxRelDiff   = %12.6e\0A\0A\00", align 1
@.str.33 = private unnamed_addr constant [36 x i8] c"\0AElapsed time         = %10.2f (s)\0A\00", align 1
@.str.34 = private unnamed_addr constant [59 x i8] c"Grind time (us/z/c)  = %10.8g (per dom)  (%10.8g overall)\0A\00", align 1
@.str.35 = private unnamed_addr constant [38 x i8] c"FOM                  = %10.8g (z/s)\0A\0A\00", align 1
@.str.3.23 = private unnamed_addr constant [23 x i8] c"vector::_M_fill_insert\00", align 1
@str.26 = private unnamed_addr constant [60 x i8] c"Num processors must be a cube of an integer (1, 8, 27, ...)\00"

@_ZN6DomainC1Eiiiiiiiii = alias void (%class.Domain*, i32, i32, i32, i32, i32, i32, i32, i32, i32), void (%class.Domain*, i32, i32, i32, i32, i32, i32, i32, i32, i32)* @_ZN6DomainC2Eiiiiiiiii

; Function Attrs: uwtable
define internal void @_GLOBAL__sub_I_lulesh.cc() #0 section ".text.startup" {
  tail call fastcc void @__cxx_global_var_init()
  ret void
}

; Function Attrs: uwtable
define internal fastcc void @__cxx_global_var_init() unnamed_addr #0 section ".text.startup" {
  tail call void @_ZNSt8ios_base4InitC1Ev(%"class.std::ios_base::Init"* nonnull @_ZStL8__ioinit)
  %1 = tail call i32 @__cxa_atexit(void (i8*)* bitcast (void (%"class.std::ios_base::Init"*)* @_ZNSt8ios_base4InitD1Ev to void (i8*)*), i8* getelementptr inbounds (%"class.std::ios_base::Init", %"class.std::ios_base::Init"* @_ZStL8__ioinit, i64 0, i32 0), i8* nonnull @__dso_handle) #2
  ret void
}

declare void @_ZNSt8ios_base4InitC1Ev(%"class.std::ios_base::Init"*) #1

declare void @_ZNSt8ios_base4InitD1Ev(%"class.std::ios_base::Init"*) #1

; Function Attrs: nounwind
declare i32 @__cxa_atexit(void (i8*)*, i8*, i8*) #2

; Function Attrs: norecurse nounwind readonly uwtable
define double @_Z14CalcElemVolumePKdS0_S0_(double* nocapture readonly %x, double* nocapture readonly %y, double* nocapture readonly %z) #3 {
  %1 = load double, double* %x, align 8, !tbaa !1
  %2 = getelementptr inbounds double, double* %x, i64 1
  %3 = load double, double* %2, align 8, !tbaa !1
  %4 = getelementptr inbounds double, double* %x, i64 2
  %5 = load double, double* %4, align 8, !tbaa !1
  %6 = getelementptr inbounds double, double* %x, i64 3
  %7 = load double, double* %6, align 8, !tbaa !1
  %8 = getelementptr inbounds double, double* %x, i64 4
  %9 = load double, double* %8, align 8, !tbaa !1
  %10 = getelementptr inbounds double, double* %x, i64 5
  %11 = load double, double* %10, align 8, !tbaa !1
  %12 = getelementptr inbounds double, double* %x, i64 6
  %13 = load double, double* %12, align 8, !tbaa !1
  %14 = getelementptr inbounds double, double* %x, i64 7
  %15 = load double, double* %14, align 8, !tbaa !1
  %16 = load double, double* %y, align 8, !tbaa !1
  %17 = getelementptr inbounds double, double* %y, i64 1
  %18 = load double, double* %17, align 8, !tbaa !1
  %19 = getelementptr inbounds double, double* %y, i64 2
  %20 = load double, double* %19, align 8, !tbaa !1
  %21 = getelementptr inbounds double, double* %y, i64 3
  %22 = load double, double* %21, align 8, !tbaa !1
  %23 = getelementptr inbounds double, double* %y, i64 4
  %24 = load double, double* %23, align 8, !tbaa !1
  %25 = getelementptr inbounds double, double* %y, i64 5
  %26 = load double, double* %25, align 8, !tbaa !1
  %27 = getelementptr inbounds double, double* %y, i64 6
  %28 = load double, double* %27, align 8, !tbaa !1
  %29 = getelementptr inbounds double, double* %y, i64 7
  %30 = load double, double* %29, align 8, !tbaa !1
  %31 = load double, double* %z, align 8, !tbaa !1
  %32 = getelementptr inbounds double, double* %z, i64 1
  %33 = load double, double* %32, align 8, !tbaa !1
  %34 = getelementptr inbounds double, double* %z, i64 2
  %35 = load double, double* %34, align 8, !tbaa !1
  %36 = getelementptr inbounds double, double* %z, i64 3
  %37 = load double, double* %36, align 8, !tbaa !1
  %38 = getelementptr inbounds double, double* %z, i64 4
  %39 = load double, double* %38, align 8, !tbaa !1
  %40 = getelementptr inbounds double, double* %z, i64 5
  %41 = load double, double* %40, align 8, !tbaa !1
  %42 = getelementptr inbounds double, double* %z, i64 6
  %43 = load double, double* %42, align 8, !tbaa !1
  %44 = getelementptr inbounds double, double* %z, i64 7
  %45 = load double, double* %44, align 8, !tbaa !1
  %46 = tail call fastcc double @_ZL14CalcElemVolumedddddddddddddddddddddddd(double %1, double %3, double %5, double %7, double %9, double %11, double %13, double %15, double %16, double %18, double %20, double %22, double %24, double %26, double %28, double %30, double %31, double %33, double %35, double %37, double %39, double %41, double %43, double %45)
  ret double %46
}

; Function Attrs: inlinehint norecurse nounwind readnone uwtable
define internal fastcc double @_ZL14CalcElemVolumedddddddddddddddddddddddd(double %x0, double %x1, double %x2, double %x3, double %x4, double %x5, double %x6, double %x7, double %y0, double %y1, double %y2, double %y3, double %y4, double %y5, double %y6, double %y7, double %z0, double %z1, double %z2, double %z3, double %z4, double %z5, double %z6, double %z7) unnamed_addr #4 {
  %1 = fsub double %x6, %x1
  %2 = fsub double %y6, %y1
  %3 = fsub double %z6, %z1
  %4 = fsub double %x7, %x0
  %5 = fsub double %y7, %y0
  %6 = fsub double %z7, %z0
  %7 = fsub double %x6, %x3
  %8 = fsub double %y6, %y3
  %9 = fsub double %z6, %z3
  %10 = fsub double %x2, %x0
  %11 = fsub double %y2, %y0
  %12 = fsub double %z2, %z0
  %13 = fsub double %x5, %x0
  %14 = fsub double %y5, %y0
  %15 = fsub double %z5, %z0
  %16 = fsub double %x6, %x4
  %17 = fsub double %y6, %y4
  %18 = fsub double %z6, %z4
  %19 = fsub double %x3, %x1
  %20 = fsub double %y3, %y1
  %21 = fsub double %z3, %z1
  %22 = fsub double %x7, %x2
  %23 = fsub double %y7, %y2
  %24 = fsub double %z7, %z2
  %25 = fsub double %x4, %x3
  %26 = fsub double %y4, %y3
  %27 = fsub double %z4, %z3
  %28 = fsub double %x5, %x7
  %29 = fsub double %y5, %y7
  %30 = fsub double %z5, %z7
  %31 = fsub double %x1, %x4
  %32 = fsub double %y1, %y4
  %33 = fsub double %z1, %z4
  %34 = fsub double %x2, %x5
  %35 = fsub double %y2, %y5
  %36 = fsub double %z2, %z5
  %37 = fadd double %19, %22
  %38 = fmul double %8, %12
  %39 = fmul double %11, %9
  %40 = fsub double %38, %39
  %41 = fmul double %37, %40
  %42 = fadd double %20, %23
  %43 = fmul double %10, %9
  %44 = fmul double %7, %12
  %45 = fsub double %43, %44
  %46 = fmul double %42, %45
  %47 = fadd double %41, %46
  %48 = fadd double %21, %24
  %49 = fmul double %7, %11
  %50 = fmul double %10, %8
  %51 = fsub double %49, %50
  %52 = fmul double %51, %48
  %53 = fadd double %52, %47
  %54 = fadd double %25, %28
  %55 = fmul double %17, %6
  %56 = fmul double %5, %18
  %57 = fsub double %55, %56
  %58 = fmul double %54, %57
  %59 = fadd double %26, %29
  %60 = fmul double %4, %18
  %61 = fmul double %16, %6
  %62 = fsub double %60, %61
  %63 = fmul double %59, %62
  %64 = fadd double %58, %63
  %65 = fadd double %27, %30
  %66 = fmul double %16, %5
  %67 = fmul double %4, %17
  %68 = fsub double %66, %67
  %69 = fmul double %68, %65
  %70 = fadd double %69, %64
  %71 = fadd double %53, %70
  %72 = fadd double %31, %34
  %73 = fmul double %2, %15
  %74 = fmul double %14, %3
  %75 = fsub double %73, %74
  %76 = fmul double %72, %75
  %77 = fadd double %32, %35
  %78 = fmul double %13, %3
  %79 = fmul double %1, %15
  %80 = fsub double %78, %79
  %81 = fmul double %77, %80
  %82 = fadd double %76, %81
  %83 = fadd double %33, %36
  %84 = fmul double %1, %14
  %85 = fmul double %13, %2
  %86 = fsub double %84, %85
  %87 = fmul double %86, %83
  %88 = fadd double %87, %82
  %89 = fadd double %88, %71
  %90 = fmul double %89, 0x3FB5555555555555
  ret double %90
}

; Function Attrs: nounwind uwtable
define void @_Z22CalcKinematicsForElemsR6DomainPddi(%class.Domain* readonly dereferenceable(1456) %domain, double* nocapture %vnew, double %deltaTime, i32 %numElem) #5 {
  %B = alloca [3 x [8 x double]], align 16
  %D = alloca [6 x double], align 16
  %x_local = alloca [8 x double], align 16
  %y_local = alloca [8 x double], align 16
  %z_local = alloca [8 x double], align 16
  %xd_local = alloca [8 x double], align 16
  %yd_local = alloca [8 x double], align 16
  %zd_local = alloca [8 x double], align 16
  %detJ = alloca double, align 8
  %1 = icmp sgt i32 %numElem, 0
  br i1 %1, label %.lr.ph, label %._crit_edge

.lr.ph:                                           ; preds = %0
  %2 = bitcast [3 x [8 x double]]* %B to i8*
  %3 = bitcast [6 x double]* %D to i8*
  %4 = bitcast [8 x double]* %x_local to i8*
  %5 = bitcast [8 x double]* %y_local to i8*
  %6 = bitcast [8 x double]* %z_local to i8*
  %7 = bitcast [8 x double]* %xd_local to i8*
  %8 = bitcast [8 x double]* %yd_local to i8*
  %9 = bitcast [8 x double]* %zd_local to i8*
  %10 = bitcast double* %detJ to i8*
  %11 = getelementptr inbounds [8 x double], [8 x double]* %x_local, i64 0, i64 0
  %12 = getelementptr inbounds [8 x double], [8 x double]* %y_local, i64 0, i64 0
  %13 = getelementptr inbounds [8 x double], [8 x double]* %z_local, i64 0, i64 0
  %14 = fmul double %deltaTime, 5.000000e-01
  %15 = getelementptr inbounds [3 x [8 x double]], [3 x [8 x double]]* %B, i64 0, i64 0
  %16 = getelementptr inbounds [8 x double], [8 x double]* %xd_local, i64 0, i64 0
  %17 = getelementptr inbounds [8 x double], [8 x double]* %yd_local, i64 0, i64 0
  %18 = getelementptr inbounds [8 x double], [8 x double]* %zd_local, i64 0, i64 0
  %19 = getelementptr inbounds [6 x double], [6 x double]* %D, i64 0, i64 0
  %20 = bitcast [6 x double]* %D to i64*
  %21 = getelementptr inbounds [6 x double], [6 x double]* %D, i64 0, i64 1
  %22 = bitcast double* %21 to i64*
  %23 = getelementptr inbounds [6 x double], [6 x double]* %D, i64 0, i64 2
  %24 = bitcast double* %23 to i64*
  br label %25

._crit_edge.loopexit:                             ; preds = %57
  br label %._crit_edge

._crit_edge:                                      ; preds = %._crit_edge.loopexit, %0
  ret void

; <label>:25                                      ; preds = %57, %.lr.ph
  %indvars.iv7 = phi i64 [ 0, %.lr.ph ], [ %indvars.iv.next8, %57 ]
  call void @llvm.lifetime.start(i64 192, i8* %2) #2
  call void @llvm.lifetime.start(i64 48, i8* %3) #2
  call void @llvm.lifetime.start(i64 64, i8* %4) #2
  call void @llvm.lifetime.start(i64 64, i8* %5) #2
  call void @llvm.lifetime.start(i64 64, i8* %6) #2
  call void @llvm.lifetime.start(i64 64, i8* %7) #2
  call void @llvm.lifetime.start(i64 64, i8* %8) #2
  call void @llvm.lifetime.start(i64 64, i8* %9) #2
  call void @llvm.lifetime.start(i64 8, i8* %10) #2
  store double 0.000000e+00, double* %detJ, align 8, !tbaa !1
  %26 = trunc i64 %indvars.iv7 to i32
  %27 = call i32* @_ZN6Domain8nodelistEi(%class.Domain* nonnull %domain, i32 %26)
  call fastcc void @_ZL29CollectDomainNodesToElemNodesR6DomainPKiPdS3_S3_(%class.Domain* nonnull dereferenceable(1456) %domain, i32* nonnull %27, double* %11, double* %12, double* %13)
  %28 = call double @_Z14CalcElemVolumePKdS0_S0_(double* %11, double* %12, double* %13)
  %29 = call dereferenceable(8) double* @_ZN6Domain4voloEi(%class.Domain* nonnull %domain, i32 %26)
  %30 = load double, double* %29, align 8, !tbaa !1
  %31 = fdiv double %28, %30
  %32 = getelementptr inbounds double, double* %vnew, i64 %indvars.iv7
  store double %31, double* %32, align 8, !tbaa !1
  %33 = call dereferenceable(8) double* @_ZN6Domain1vEi(%class.Domain* nonnull %domain, i32 %26)
  %34 = load double, double* %33, align 8, !tbaa !1
  %35 = fsub double %31, %34
  %36 = call dereferenceable(8) double* @_ZN6Domain4delvEi(%class.Domain* nonnull %domain, i32 %26)
  store double %35, double* %36, align 8, !tbaa !1
  %37 = call fastcc double @_ZL28CalcElemCharacteristicLengthPKdS0_S0_d(double* %11, double* %12, double* %13, double %28)
  %38 = call dereferenceable(8) double* @_ZN6Domain6arealgEi(%class.Domain* nonnull %domain, i32 %26)
  store double %37, double* %38, align 8, !tbaa !1
  br label %39

; <label>:39                                      ; preds = %39, %25
  %indvars.iv = phi i64 [ 0, %25 ], [ %indvars.iv.next, %39 ]
  %40 = getelementptr inbounds i32, i32* %27, i64 %indvars.iv
  %41 = load i32, i32* %40, align 4, !tbaa !5
  %42 = call dereferenceable(8) double* @_ZN6Domain2xdEi(%class.Domain* nonnull %domain, i32 %41)
  %43 = bitcast double* %42 to i64*
  %44 = load i64, i64* %43, align 8, !tbaa !1
  %45 = getelementptr inbounds [8 x double], [8 x double]* %xd_local, i64 0, i64 %indvars.iv
  %46 = bitcast double* %45 to i64*
  store i64 %44, i64* %46, align 8, !tbaa !1
  %47 = call dereferenceable(8) double* @_ZN6Domain2ydEi(%class.Domain* nonnull %domain, i32 %41)
  %48 = bitcast double* %47 to i64*
  %49 = load i64, i64* %48, align 8, !tbaa !1
  %50 = getelementptr inbounds [8 x double], [8 x double]* %yd_local, i64 0, i64 %indvars.iv
  %51 = bitcast double* %50 to i64*
  store i64 %49, i64* %51, align 8, !tbaa !1
  %52 = call dereferenceable(8) double* @_ZN6Domain2zdEi(%class.Domain* nonnull %domain, i32 %41)
  %53 = bitcast double* %52 to i64*
  %54 = load i64, i64* %53, align 8, !tbaa !1
  %55 = getelementptr inbounds [8 x double], [8 x double]* %zd_local, i64 0, i64 %indvars.iv
  %56 = bitcast double* %55 to i64*
  store i64 %54, i64* %56, align 8, !tbaa !1
  %indvars.iv.next = add nuw nsw i64 %indvars.iv, 1
  %exitcond = icmp eq i64 %indvars.iv.next, 8
  br i1 %exitcond, label %.preheader.preheader, label %39

.preheader.preheader:                             ; preds = %39
  br label %.preheader

; <label>:57                                      ; preds = %.preheader
  call fastcc void @_ZL32CalcElemShapeFunctionDerivativesPKdS0_S0_PA8_dPd(double* nonnull %11, double* nonnull %12, double* nonnull %13, [8 x double]* %15, double* nonnull %detJ)
  %58 = load double, double* %detJ, align 8, !tbaa !1
  call fastcc void @_ZL24CalcElemVelocityGradientPKdS0_S0_PA8_S_dPd(double* nonnull %16, double* nonnull %17, double* nonnull %18, [8 x double]* %15, double %58, double* %19)
  %59 = load i64, i64* %20, align 16, !tbaa !1
  %60 = call dereferenceable(8) double* @_ZN6Domain3dxxEi(%class.Domain* nonnull %domain, i32 %26)
  %61 = bitcast double* %60 to i64*
  store i64 %59, i64* %61, align 8, !tbaa !1
  %62 = load i64, i64* %22, align 8, !tbaa !1
  %63 = call dereferenceable(8) double* @_ZN6Domain3dyyEi(%class.Domain* nonnull %domain, i32 %26)
  %64 = bitcast double* %63 to i64*
  store i64 %62, i64* %64, align 8, !tbaa !1
  %65 = load i64, i64* %24, align 16, !tbaa !1
  %66 = call dereferenceable(8) double* @_ZN6Domain3dzzEi(%class.Domain* nonnull %domain, i32 %26)
  %67 = bitcast double* %66 to i64*
  store i64 %65, i64* %67, align 8, !tbaa !1
  call void @llvm.lifetime.end(i64 8, i8* %10) #2
  call void @llvm.lifetime.end(i64 64, i8* nonnull %9) #2
  call void @llvm.lifetime.end(i64 64, i8* nonnull %8) #2
  call void @llvm.lifetime.end(i64 64, i8* nonnull %7) #2
  call void @llvm.lifetime.end(i64 64, i8* nonnull %6) #2
  call void @llvm.lifetime.end(i64 64, i8* nonnull %5) #2
  call void @llvm.lifetime.end(i64 64, i8* nonnull %4) #2
  call void @llvm.lifetime.end(i64 48, i8* %3) #2
  call void @llvm.lifetime.end(i64 192, i8* %2) #2
  %indvars.iv.next8 = add nuw nsw i64 %indvars.iv7, 1
  %lftr.wideiv = trunc i64 %indvars.iv.next8 to i32
  %exitcond9 = icmp eq i32 %lftr.wideiv, %numElem
  br i1 %exitcond9, label %._crit_edge.loopexit, label %25

.preheader:                                       ; preds = %.preheader.preheader, %.preheader
  %indvars.iv4 = phi i64 [ %indvars.iv.next5, %.preheader ], [ 0, %.preheader.preheader ]
  %68 = getelementptr inbounds [8 x double], [8 x double]* %xd_local, i64 0, i64 %indvars.iv4
  %69 = load double, double* %68, align 8, !tbaa !1
  %70 = fmul double %14, %69
  %71 = getelementptr inbounds [8 x double], [8 x double]* %x_local, i64 0, i64 %indvars.iv4
  %72 = load double, double* %71, align 8, !tbaa !1
  %73 = fsub double %72, %70
  store double %73, double* %71, align 8, !tbaa !1
  %74 = getelementptr inbounds [8 x double], [8 x double]* %yd_local, i64 0, i64 %indvars.iv4
  %75 = load double, double* %74, align 8, !tbaa !1
  %76 = fmul double %14, %75
  %77 = getelementptr inbounds [8 x double], [8 x double]* %y_local, i64 0, i64 %indvars.iv4
  %78 = load double, double* %77, align 8, !tbaa !1
  %79 = fsub double %78, %76
  store double %79, double* %77, align 8, !tbaa !1
  %80 = getelementptr inbounds [8 x double], [8 x double]* %zd_local, i64 0, i64 %indvars.iv4
  %81 = load double, double* %80, align 8, !tbaa !1
  %82 = fmul double %14, %81
  %83 = getelementptr inbounds [8 x double], [8 x double]* %z_local, i64 0, i64 %indvars.iv4
  %84 = load double, double* %83, align 8, !tbaa !1
  %85 = fsub double %84, %82
  store double %85, double* %83, align 8, !tbaa !1
  %indvars.iv.next5 = add nuw nsw i64 %indvars.iv4, 1
  %exitcond6 = icmp eq i64 %indvars.iv.next5, 8
  br i1 %exitcond6, label %57, label %.preheader
}

; Function Attrs: argmemonly nounwind
declare void @llvm.lifetime.start(i64, i8* nocapture) #6

; Function Attrs: norecurse nounwind readonly uwtable
define linkonce_odr nonnull i32* @_ZN6Domain8nodelistEi(%class.Domain* nocapture readonly %this, i32 %idx) #3 comdat align 2 {
  %1 = getelementptr inbounds %class.Domain, %class.Domain* %this, i64 0, i32 21
  %2 = shl nsw i32 %idx, 3
  %3 = sext i32 %2 to i64
  %4 = tail call dereferenceable(4) i32* @_ZNSt6vectorIiSaIiEEixEm(%"class.std::vector.0"* %1, i64 %3)
  ret i32* %4
}

; Function Attrs: norecurse nounwind readonly uwtable
define linkonce_odr dereferenceable(4) i32* @_ZNSt6vectorIiSaIiEEixEm(%"class.std::vector.0"* nocapture readonly %this, i64 %__n) #3 comdat align 2 {
  %1 = getelementptr inbounds %"class.std::vector.0", %"class.std::vector.0"* %this, i64 0, i32 0, i32 0, i32 0
  %2 = load i32*, i32** %1, align 8, !tbaa !7
  %3 = getelementptr inbounds i32, i32* %2, i64 %__n
  ret i32* %3
}

; Function Attrs: inlinehint norecurse nounwind uwtable
define internal fastcc void @_ZL29CollectDomainNodesToElemNodesR6DomainPKiPdS3_S3_(%class.Domain* readonly dereferenceable(1456) %domain, i32* nocapture readonly %elemToNode, double* nocapture %elemX, double* nocapture %elemY, double* nocapture %elemZ) unnamed_addr #7 {
  %1 = load i32, i32* %elemToNode, align 4, !tbaa !5
  %2 = getelementptr inbounds i32, i32* %elemToNode, i64 1
  %3 = load i32, i32* %2, align 4, !tbaa !5
  %4 = getelementptr inbounds i32, i32* %elemToNode, i64 2
  %5 = load i32, i32* %4, align 4, !tbaa !5
  %6 = getelementptr inbounds i32, i32* %elemToNode, i64 3
  %7 = load i32, i32* %6, align 4, !tbaa !5
  %8 = getelementptr inbounds i32, i32* %elemToNode, i64 4
  %9 = load i32, i32* %8, align 4, !tbaa !5
  %10 = getelementptr inbounds i32, i32* %elemToNode, i64 5
  %11 = load i32, i32* %10, align 4, !tbaa !5
  %12 = getelementptr inbounds i32, i32* %elemToNode, i64 6
  %13 = load i32, i32* %12, align 4, !tbaa !5
  %14 = getelementptr inbounds i32, i32* %elemToNode, i64 7
  %15 = load i32, i32* %14, align 4, !tbaa !5
  %16 = tail call dereferenceable(8) double* @_ZN6Domain1xEi(%class.Domain* nonnull %domain, i32 %1)
  %17 = bitcast double* %16 to i64*
  %18 = load i64, i64* %17, align 8, !tbaa !1
  %19 = bitcast double* %elemX to i64*
  store i64 %18, i64* %19, align 8, !tbaa !1
  %20 = tail call dereferenceable(8) double* @_ZN6Domain1xEi(%class.Domain* nonnull %domain, i32 %3)
  %21 = bitcast double* %20 to i64*
  %22 = load i64, i64* %21, align 8, !tbaa !1
  %23 = getelementptr inbounds double, double* %elemX, i64 1
  %24 = bitcast double* %23 to i64*
  store i64 %22, i64* %24, align 8, !tbaa !1
  %25 = tail call dereferenceable(8) double* @_ZN6Domain1xEi(%class.Domain* nonnull %domain, i32 %5)
  %26 = bitcast double* %25 to i64*
  %27 = load i64, i64* %26, align 8, !tbaa !1
  %28 = getelementptr inbounds double, double* %elemX, i64 2
  %29 = bitcast double* %28 to i64*
  store i64 %27, i64* %29, align 8, !tbaa !1
  %30 = tail call dereferenceable(8) double* @_ZN6Domain1xEi(%class.Domain* nonnull %domain, i32 %7)
  %31 = bitcast double* %30 to i64*
  %32 = load i64, i64* %31, align 8, !tbaa !1
  %33 = getelementptr inbounds double, double* %elemX, i64 3
  %34 = bitcast double* %33 to i64*
  store i64 %32, i64* %34, align 8, !tbaa !1
  %35 = tail call dereferenceable(8) double* @_ZN6Domain1xEi(%class.Domain* nonnull %domain, i32 %9)
  %36 = bitcast double* %35 to i64*
  %37 = load i64, i64* %36, align 8, !tbaa !1
  %38 = getelementptr inbounds double, double* %elemX, i64 4
  %39 = bitcast double* %38 to i64*
  store i64 %37, i64* %39, align 8, !tbaa !1
  %40 = tail call dereferenceable(8) double* @_ZN6Domain1xEi(%class.Domain* nonnull %domain, i32 %11)
  %41 = bitcast double* %40 to i64*
  %42 = load i64, i64* %41, align 8, !tbaa !1
  %43 = getelementptr inbounds double, double* %elemX, i64 5
  %44 = bitcast double* %43 to i64*
  store i64 %42, i64* %44, align 8, !tbaa !1
  %45 = tail call dereferenceable(8) double* @_ZN6Domain1xEi(%class.Domain* nonnull %domain, i32 %13)
  %46 = bitcast double* %45 to i64*
  %47 = load i64, i64* %46, align 8, !tbaa !1
  %48 = getelementptr inbounds double, double* %elemX, i64 6
  %49 = bitcast double* %48 to i64*
  store i64 %47, i64* %49, align 8, !tbaa !1
  %50 = tail call dereferenceable(8) double* @_ZN6Domain1xEi(%class.Domain* nonnull %domain, i32 %15)
  %51 = bitcast double* %50 to i64*
  %52 = load i64, i64* %51, align 8, !tbaa !1
  %53 = getelementptr inbounds double, double* %elemX, i64 7
  %54 = bitcast double* %53 to i64*
  store i64 %52, i64* %54, align 8, !tbaa !1
  %55 = tail call dereferenceable(8) double* @_ZN6Domain1yEi(%class.Domain* nonnull %domain, i32 %1)
  %56 = bitcast double* %55 to i64*
  %57 = load i64, i64* %56, align 8, !tbaa !1
  %58 = bitcast double* %elemY to i64*
  store i64 %57, i64* %58, align 8, !tbaa !1
  %59 = tail call dereferenceable(8) double* @_ZN6Domain1yEi(%class.Domain* nonnull %domain, i32 %3)
  %60 = bitcast double* %59 to i64*
  %61 = load i64, i64* %60, align 8, !tbaa !1
  %62 = getelementptr inbounds double, double* %elemY, i64 1
  %63 = bitcast double* %62 to i64*
  store i64 %61, i64* %63, align 8, !tbaa !1
  %64 = tail call dereferenceable(8) double* @_ZN6Domain1yEi(%class.Domain* nonnull %domain, i32 %5)
  %65 = bitcast double* %64 to i64*
  %66 = load i64, i64* %65, align 8, !tbaa !1
  %67 = getelementptr inbounds double, double* %elemY, i64 2
  %68 = bitcast double* %67 to i64*
  store i64 %66, i64* %68, align 8, !tbaa !1
  %69 = tail call dereferenceable(8) double* @_ZN6Domain1yEi(%class.Domain* nonnull %domain, i32 %7)
  %70 = bitcast double* %69 to i64*
  %71 = load i64, i64* %70, align 8, !tbaa !1
  %72 = getelementptr inbounds double, double* %elemY, i64 3
  %73 = bitcast double* %72 to i64*
  store i64 %71, i64* %73, align 8, !tbaa !1
  %74 = tail call dereferenceable(8) double* @_ZN6Domain1yEi(%class.Domain* nonnull %domain, i32 %9)
  %75 = bitcast double* %74 to i64*
  %76 = load i64, i64* %75, align 8, !tbaa !1
  %77 = getelementptr inbounds double, double* %elemY, i64 4
  %78 = bitcast double* %77 to i64*
  store i64 %76, i64* %78, align 8, !tbaa !1
  %79 = tail call dereferenceable(8) double* @_ZN6Domain1yEi(%class.Domain* nonnull %domain, i32 %11)
  %80 = bitcast double* %79 to i64*
  %81 = load i64, i64* %80, align 8, !tbaa !1
  %82 = getelementptr inbounds double, double* %elemY, i64 5
  %83 = bitcast double* %82 to i64*
  store i64 %81, i64* %83, align 8, !tbaa !1
  %84 = tail call dereferenceable(8) double* @_ZN6Domain1yEi(%class.Domain* nonnull %domain, i32 %13)
  %85 = bitcast double* %84 to i64*
  %86 = load i64, i64* %85, align 8, !tbaa !1
  %87 = getelementptr inbounds double, double* %elemY, i64 6
  %88 = bitcast double* %87 to i64*
  store i64 %86, i64* %88, align 8, !tbaa !1
  %89 = tail call dereferenceable(8) double* @_ZN6Domain1yEi(%class.Domain* nonnull %domain, i32 %15)
  %90 = bitcast double* %89 to i64*
  %91 = load i64, i64* %90, align 8, !tbaa !1
  %92 = getelementptr inbounds double, double* %elemY, i64 7
  %93 = bitcast double* %92 to i64*
  store i64 %91, i64* %93, align 8, !tbaa !1
  %94 = tail call dereferenceable(8) double* @_ZN6Domain1zEi(%class.Domain* nonnull %domain, i32 %1)
  %95 = bitcast double* %94 to i64*
  %96 = load i64, i64* %95, align 8, !tbaa !1
  %97 = bitcast double* %elemZ to i64*
  store i64 %96, i64* %97, align 8, !tbaa !1
  %98 = tail call dereferenceable(8) double* @_ZN6Domain1zEi(%class.Domain* nonnull %domain, i32 %3)
  %99 = bitcast double* %98 to i64*
  %100 = load i64, i64* %99, align 8, !tbaa !1
  %101 = getelementptr inbounds double, double* %elemZ, i64 1
  %102 = bitcast double* %101 to i64*
  store i64 %100, i64* %102, align 8, !tbaa !1
  %103 = tail call dereferenceable(8) double* @_ZN6Domain1zEi(%class.Domain* nonnull %domain, i32 %5)
  %104 = bitcast double* %103 to i64*
  %105 = load i64, i64* %104, align 8, !tbaa !1
  %106 = getelementptr inbounds double, double* %elemZ, i64 2
  %107 = bitcast double* %106 to i64*
  store i64 %105, i64* %107, align 8, !tbaa !1
  %108 = tail call dereferenceable(8) double* @_ZN6Domain1zEi(%class.Domain* nonnull %domain, i32 %7)
  %109 = bitcast double* %108 to i64*
  %110 = load i64, i64* %109, align 8, !tbaa !1
  %111 = getelementptr inbounds double, double* %elemZ, i64 3
  %112 = bitcast double* %111 to i64*
  store i64 %110, i64* %112, align 8, !tbaa !1
  %113 = tail call dereferenceable(8) double* @_ZN6Domain1zEi(%class.Domain* nonnull %domain, i32 %9)
  %114 = bitcast double* %113 to i64*
  %115 = load i64, i64* %114, align 8, !tbaa !1
  %116 = getelementptr inbounds double, double* %elemZ, i64 4
  %117 = bitcast double* %116 to i64*
  store i64 %115, i64* %117, align 8, !tbaa !1
  %118 = tail call dereferenceable(8) double* @_ZN6Domain1zEi(%class.Domain* nonnull %domain, i32 %11)
  %119 = bitcast double* %118 to i64*
  %120 = load i64, i64* %119, align 8, !tbaa !1
  %121 = getelementptr inbounds double, double* %elemZ, i64 5
  %122 = bitcast double* %121 to i64*
  store i64 %120, i64* %122, align 8, !tbaa !1
  %123 = tail call dereferenceable(8) double* @_ZN6Domain1zEi(%class.Domain* nonnull %domain, i32 %13)
  %124 = bitcast double* %123 to i64*
  %125 = load i64, i64* %124, align 8, !tbaa !1
  %126 = getelementptr inbounds double, double* %elemZ, i64 6
  %127 = bitcast double* %126 to i64*
  store i64 %125, i64* %127, align 8, !tbaa !1
  %128 = tail call dereferenceable(8) double* @_ZN6Domain1zEi(%class.Domain* nonnull %domain, i32 %15)
  %129 = bitcast double* %128 to i64*
  %130 = load i64, i64* %129, align 8, !tbaa !1
  %131 = getelementptr inbounds double, double* %elemZ, i64 7
  %132 = bitcast double* %131 to i64*
  store i64 %130, i64* %132, align 8, !tbaa !1
  ret void
}

; Function Attrs: norecurse nounwind readonly uwtable
define linkonce_odr nonnull dereferenceable(8) double* @_ZN6Domain1xEi(%class.Domain* nocapture readonly %this, i32 %idx) #3 comdat align 2 {
  %1 = getelementptr inbounds %class.Domain, %class.Domain* %this, i64 0, i32 0
  %2 = sext i32 %idx to i64
  %3 = tail call dereferenceable(8) double* @_ZNSt6vectorIdSaIdEEixEm(%"class.std::vector"* %1, i64 %2)
  ret double* %3
}

; Function Attrs: norecurse nounwind readonly uwtable
define linkonce_odr dereferenceable(8) double* @_ZNSt6vectorIdSaIdEEixEm(%"class.std::vector"* nocapture readonly %this, i64 %__n) #3 comdat align 2 {
  %1 = getelementptr inbounds %"class.std::vector", %"class.std::vector"* %this, i64 0, i32 0, i32 0, i32 0
  %2 = load double*, double** %1, align 8, !tbaa !11
  %3 = getelementptr inbounds double, double* %2, i64 %__n
  ret double* %3
}

; Function Attrs: norecurse nounwind readonly uwtable
define linkonce_odr nonnull dereferenceable(8) double* @_ZN6Domain1yEi(%class.Domain* nocapture readonly %this, i32 %idx) #3 comdat align 2 {
  %1 = getelementptr inbounds %class.Domain, %class.Domain* %this, i64 0, i32 1
  %2 = sext i32 %idx to i64
  %3 = tail call dereferenceable(8) double* @_ZNSt6vectorIdSaIdEEixEm(%"class.std::vector"* %1, i64 %2)
  ret double* %3
}

; Function Attrs: norecurse nounwind readonly uwtable
define linkonce_odr nonnull dereferenceable(8) double* @_ZN6Domain1zEi(%class.Domain* nocapture readonly %this, i32 %idx) #3 comdat align 2 {
  %1 = getelementptr inbounds %class.Domain, %class.Domain* %this, i64 0, i32 2
  %2 = sext i32 %idx to i64
  %3 = tail call dereferenceable(8) double* @_ZNSt6vectorIdSaIdEEixEm(%"class.std::vector"* %1, i64 %2)
  ret double* %3
}

; Function Attrs: norecurse nounwind readonly uwtable
define linkonce_odr nonnull dereferenceable(8) double* @_ZN6Domain4voloEi(%class.Domain* nocapture readonly %this, i32 %idx) #3 comdat align 2 {
  %1 = getelementptr inbounds %class.Domain, %class.Domain* %this, i64 0, i32 44
  %2 = sext i32 %idx to i64
  %3 = tail call dereferenceable(8) double* @_ZNSt6vectorIdSaIdEEixEm(%"class.std::vector"* %1, i64 %2)
  ret double* %3
}

; Function Attrs: norecurse nounwind readonly uwtable
define linkonce_odr nonnull dereferenceable(8) double* @_ZN6Domain1vEi(%class.Domain* nocapture readonly %this, i32 %idx) #3 comdat align 2 {
  %1 = getelementptr inbounds %class.Domain, %class.Domain* %this, i64 0, i32 43
  %2 = sext i32 %idx to i64
  %3 = tail call dereferenceable(8) double* @_ZNSt6vectorIdSaIdEEixEm(%"class.std::vector"* %1, i64 %2)
  ret double* %3
}

; Function Attrs: norecurse nounwind readonly uwtable
define linkonce_odr nonnull dereferenceable(8) double* @_ZN6Domain4delvEi(%class.Domain* nocapture readonly %this, i32 %idx) #3 comdat align 2 {
  %1 = getelementptr inbounds %class.Domain, %class.Domain* %this, i64 0, i32 46
  %2 = sext i32 %idx to i64
  %3 = tail call dereferenceable(8) double* @_ZNSt6vectorIdSaIdEEixEm(%"class.std::vector"* %1, i64 %2)
  ret double* %3
}

; Function Attrs: inlinehint nounwind uwtable
define internal fastcc double @_ZL28CalcElemCharacteristicLengthPKdS0_S0_d(double* nocapture readonly %x, double* nocapture readonly %y, double* nocapture readonly %z, double %volume) unnamed_addr #8 {
  %a = alloca double, align 8
  %charLength = alloca double, align 8
  %1 = bitcast double* %a to i8*
  call void @llvm.lifetime.start(i64 8, i8* %1) #2
  %2 = bitcast double* %charLength to i8*
  call void @llvm.lifetime.start(i64 8, i8* %2) #2
  store double 0.000000e+00, double* %charLength, align 8, !tbaa !1
  %3 = load double, double* %x, align 8, !tbaa !1
  %4 = getelementptr inbounds double, double* %x, i64 1
  %5 = load double, double* %4, align 8, !tbaa !1
  %6 = getelementptr inbounds double, double* %x, i64 2
  %7 = load double, double* %6, align 8, !tbaa !1
  %8 = getelementptr inbounds double, double* %x, i64 3
  %9 = load double, double* %8, align 8, !tbaa !1
  %10 = load double, double* %y, align 8, !tbaa !1
  %11 = getelementptr inbounds double, double* %y, i64 1
  %12 = load double, double* %11, align 8, !tbaa !1
  %13 = getelementptr inbounds double, double* %y, i64 2
  %14 = load double, double* %13, align 8, !tbaa !1
  %15 = getelementptr inbounds double, double* %y, i64 3
  %16 = load double, double* %15, align 8, !tbaa !1
  %17 = load double, double* %z, align 8, !tbaa !1
  %18 = getelementptr inbounds double, double* %z, i64 1
  %19 = load double, double* %18, align 8, !tbaa !1
  %20 = getelementptr inbounds double, double* %z, i64 2
  %21 = load double, double* %20, align 8, !tbaa !1
  %22 = getelementptr inbounds double, double* %z, i64 3
  %23 = load double, double* %22, align 8, !tbaa !1
  %24 = tail call fastcc double @_ZL8AreaFacedddddddddddd(double %3, double %5, double %7, double %9, double %10, double %12, double %14, double %16, double %17, double %19, double %21, double %23)
  store double %24, double* %a, align 8, !tbaa !1
  %25 = call dereferenceable(8) double* @_ZSt3maxIdERKT_S2_S2_(double* nonnull dereferenceable(8) %a, double* nonnull dereferenceable(8) %charLength)
  %26 = bitcast double* %25 to i64*
  %27 = load i64, i64* %26, align 8, !tbaa !1
  %28 = bitcast double* %charLength to i64*
  store i64 %27, i64* %28, align 8, !tbaa !1
  %29 = getelementptr inbounds double, double* %x, i64 4
  %30 = load double, double* %29, align 8, !tbaa !1
  %31 = getelementptr inbounds double, double* %x, i64 5
  %32 = load double, double* %31, align 8, !tbaa !1
  %33 = getelementptr inbounds double, double* %x, i64 6
  %34 = load double, double* %33, align 8, !tbaa !1
  %35 = getelementptr inbounds double, double* %x, i64 7
  %36 = load double, double* %35, align 8, !tbaa !1
  %37 = getelementptr inbounds double, double* %y, i64 4
  %38 = load double, double* %37, align 8, !tbaa !1
  %39 = getelementptr inbounds double, double* %y, i64 5
  %40 = load double, double* %39, align 8, !tbaa !1
  %41 = getelementptr inbounds double, double* %y, i64 6
  %42 = load double, double* %41, align 8, !tbaa !1
  %43 = getelementptr inbounds double, double* %y, i64 7
  %44 = load double, double* %43, align 8, !tbaa !1
  %45 = getelementptr inbounds double, double* %z, i64 4
  %46 = load double, double* %45, align 8, !tbaa !1
  %47 = getelementptr inbounds double, double* %z, i64 5
  %48 = load double, double* %47, align 8, !tbaa !1
  %49 = getelementptr inbounds double, double* %z, i64 6
  %50 = load double, double* %49, align 8, !tbaa !1
  %51 = getelementptr inbounds double, double* %z, i64 7
  %52 = load double, double* %51, align 8, !tbaa !1
  %53 = tail call fastcc double @_ZL8AreaFacedddddddddddd(double %30, double %32, double %34, double %36, double %38, double %40, double %42, double %44, double %46, double %48, double %50, double %52)
  store double %53, double* %a, align 8, !tbaa !1
  %54 = call dereferenceable(8) double* @_ZSt3maxIdERKT_S2_S2_(double* nonnull dereferenceable(8) %a, double* nonnull dereferenceable(8) %charLength)
  %55 = bitcast double* %54 to i64*
  %56 = load i64, i64* %55, align 8, !tbaa !1
  store i64 %56, i64* %28, align 8, !tbaa !1
  %57 = tail call fastcc double @_ZL8AreaFacedddddddddddd(double %3, double %5, double %32, double %30, double %10, double %12, double %40, double %38, double %17, double %19, double %48, double %46)
  store double %57, double* %a, align 8, !tbaa !1
  %58 = call dereferenceable(8) double* @_ZSt3maxIdERKT_S2_S2_(double* nonnull dereferenceable(8) %a, double* nonnull dereferenceable(8) %charLength)
  %59 = bitcast double* %58 to i64*
  %60 = load i64, i64* %59, align 8, !tbaa !1
  store i64 %60, i64* %28, align 8, !tbaa !1
  %61 = tail call fastcc double @_ZL8AreaFacedddddddddddd(double %5, double %7, double %34, double %32, double %12, double %14, double %42, double %40, double %19, double %21, double %50, double %48)
  store double %61, double* %a, align 8, !tbaa !1
  %62 = call dereferenceable(8) double* @_ZSt3maxIdERKT_S2_S2_(double* nonnull dereferenceable(8) %a, double* nonnull dereferenceable(8) %charLength)
  %63 = bitcast double* %62 to i64*
  %64 = load i64, i64* %63, align 8, !tbaa !1
  store i64 %64, i64* %28, align 8, !tbaa !1
  %65 = tail call fastcc double @_ZL8AreaFacedddddddddddd(double %7, double %9, double %36, double %34, double %14, double %16, double %44, double %42, double %21, double %23, double %52, double %50)
  store double %65, double* %a, align 8, !tbaa !1
  %66 = call dereferenceable(8) double* @_ZSt3maxIdERKT_S2_S2_(double* nonnull dereferenceable(8) %a, double* nonnull dereferenceable(8) %charLength)
  %67 = bitcast double* %66 to i64*
  %68 = load i64, i64* %67, align 8, !tbaa !1
  store i64 %68, i64* %28, align 8, !tbaa !1
  %69 = tail call fastcc double @_ZL8AreaFacedddddddddddd(double %9, double %3, double %30, double %36, double %16, double %10, double %38, double %44, double %23, double %17, double %46, double %52)
  store double %69, double* %a, align 8, !tbaa !1
  %70 = call dereferenceable(8) double* @_ZSt3maxIdERKT_S2_S2_(double* nonnull dereferenceable(8) %a, double* nonnull dereferenceable(8) %charLength)
  %71 = load double, double* %70, align 8, !tbaa !1
  %72 = fmul double %volume, 4.000000e+00
  %73 = tail call double @_Z4SQRTd(double %71)
  %74 = fdiv double %72, %73
  call void @llvm.lifetime.end(i64 8, i8* %2) #2
  call void @llvm.lifetime.end(i64 8, i8* %1) #2
  ret double %74
}

; Function Attrs: inlinehint norecurse nounwind readnone uwtable
define internal fastcc double @_ZL8AreaFacedddddddddddd(double %x0, double %x1, double %x2, double %x3, double %y0, double %y1, double %y2, double %y3, double %z0, double %z1, double %z2, double %z3) unnamed_addr #4 {
  %1 = fsub double %x2, %x0
  %2 = fsub double %x3, %x1
  %3 = fsub double %1, %2
  %4 = fsub double %y2, %y0
  %5 = fsub double %y3, %y1
  %6 = fsub double %4, %5
  %7 = fsub double %z2, %z0
  %8 = fsub double %z3, %z1
  %9 = fsub double %7, %8
  %10 = fadd double %1, %2
  %11 = fadd double %4, %5
  %12 = fadd double %7, %8
  %13 = fmul double %3, %3
  %14 = fmul double %6, %6
  %15 = fadd double %13, %14
  %16 = fmul double %9, %9
  %17 = fadd double %15, %16
  %18 = fmul double %10, %10
  %19 = fmul double %11, %11
  %20 = fadd double %18, %19
  %21 = fmul double %12, %12
  %22 = fadd double %20, %21
  %23 = fmul double %17, %22
  %24 = fmul double %3, %10
  %25 = fmul double %6, %11
  %26 = fadd double %24, %25
  %27 = fmul double %9, %12
  %28 = fadd double %26, %27
  %29 = fmul double %28, %28
  %30 = fsub double %23, %29
  ret double %30
}

; Function Attrs: inlinehint norecurse nounwind readonly uwtable
define linkonce_odr nonnull dereferenceable(8) double* @_ZSt3maxIdERKT_S2_S2_(double* readonly dereferenceable(8) %__a, double* readonly dereferenceable(8) %__b) #9 comdat {
  %1 = load double, double* %__a, align 8, !tbaa !1
  %2 = load double, double* %__b, align 8, !tbaa !1
  %3 = fcmp olt double %1, %2
  %__b.__a = select i1 %3, double* %__b, double* %__a
  ret double* %__b.__a
}

; Function Attrs: inlinehint nounwind uwtable
define linkonce_odr double @_Z4SQRTd(double %arg) #8 comdat {
  %1 = tail call double @sqrt(double %arg) #2
  ret double %1
}

; Function Attrs: nounwind
declare double @sqrt(double) #10

; Function Attrs: argmemonly nounwind
declare void @llvm.lifetime.end(i64, i8* nocapture) #6

; Function Attrs: norecurse nounwind readonly uwtable
define linkonce_odr nonnull dereferenceable(8) double* @_ZN6Domain6arealgEi(%class.Domain* nocapture readonly %this, i32 %idx) #3 comdat align 2 {
  %1 = getelementptr inbounds %class.Domain, %class.Domain* %this, i64 0, i32 48
  %2 = sext i32 %idx to i64
  %3 = tail call dereferenceable(8) double* @_ZNSt6vectorIdSaIdEEixEm(%"class.std::vector"* %1, i64 %2)
  ret double* %3
}

; Function Attrs: norecurse nounwind readonly uwtable
define linkonce_odr nonnull dereferenceable(8) double* @_ZN6Domain2xdEi(%class.Domain* nocapture readonly %this, i32 %idx) #3 comdat align 2 {
  %1 = getelementptr inbounds %class.Domain, %class.Domain* %this, i64 0, i32 3
  %2 = sext i32 %idx to i64
  %3 = tail call dereferenceable(8) double* @_ZNSt6vectorIdSaIdEEixEm(%"class.std::vector"* %1, i64 %2)
  ret double* %3
}

; Function Attrs: norecurse nounwind readonly uwtable
define linkonce_odr nonnull dereferenceable(8) double* @_ZN6Domain2ydEi(%class.Domain* nocapture readonly %this, i32 %idx) #3 comdat align 2 {
  %1 = getelementptr inbounds %class.Domain, %class.Domain* %this, i64 0, i32 4
  %2 = sext i32 %idx to i64
  %3 = tail call dereferenceable(8) double* @_ZNSt6vectorIdSaIdEEixEm(%"class.std::vector"* %1, i64 %2)
  ret double* %3
}

; Function Attrs: norecurse nounwind readonly uwtable
define linkonce_odr nonnull dereferenceable(8) double* @_ZN6Domain2zdEi(%class.Domain* nocapture readonly %this, i32 %idx) #3 comdat align 2 {
  %1 = getelementptr inbounds %class.Domain, %class.Domain* %this, i64 0, i32 5
  %2 = sext i32 %idx to i64
  %3 = tail call dereferenceable(8) double* @_ZNSt6vectorIdSaIdEEixEm(%"class.std::vector"* %1, i64 %2)
  ret double* %3
}

; Function Attrs: inlinehint norecurse nounwind uwtable
define internal fastcc void @_ZL32CalcElemShapeFunctionDerivativesPKdS0_S0_PA8_dPd(double* nocapture readonly %x, double* nocapture readonly %y, double* nocapture readonly %z, [8 x double]* %b, double* nocapture %volume) unnamed_addr #7 {
  %1 = load double, double* %x, align 8, !tbaa !1
  %2 = getelementptr inbounds double, double* %x, i64 1
  %3 = load double, double* %2, align 8, !tbaa !1
  %4 = getelementptr inbounds double, double* %x, i64 2
  %5 = load double, double* %4, align 8, !tbaa !1
  %6 = getelementptr inbounds double, double* %x, i64 3
  %7 = load double, double* %6, align 8, !tbaa !1
  %8 = getelementptr inbounds double, double* %x, i64 4
  %9 = load double, double* %8, align 8, !tbaa !1
  %10 = getelementptr inbounds double, double* %x, i64 5
  %11 = load double, double* %10, align 8, !tbaa !1
  %12 = getelementptr inbounds double, double* %x, i64 6
  %13 = load double, double* %12, align 8, !tbaa !1
  %14 = getelementptr inbounds double, double* %x, i64 7
  %15 = load double, double* %14, align 8, !tbaa !1
  %16 = load double, double* %y, align 8, !tbaa !1
  %17 = getelementptr inbounds double, double* %y, i64 1
  %18 = load double, double* %17, align 8, !tbaa !1
  %19 = getelementptr inbounds double, double* %y, i64 2
  %20 = load double, double* %19, align 8, !tbaa !1
  %21 = getelementptr inbounds double, double* %y, i64 3
  %22 = load double, double* %21, align 8, !tbaa !1
  %23 = getelementptr inbounds double, double* %y, i64 4
  %24 = load double, double* %23, align 8, !tbaa !1
  %25 = getelementptr inbounds double, double* %y, i64 5
  %26 = load double, double* %25, align 8, !tbaa !1
  %27 = getelementptr inbounds double, double* %y, i64 6
  %28 = load double, double* %27, align 8, !tbaa !1
  %29 = getelementptr inbounds double, double* %y, i64 7
  %30 = load double, double* %29, align 8, !tbaa !1
  %31 = load double, double* %z, align 8, !tbaa !1
  %32 = getelementptr inbounds double, double* %z, i64 1
  %33 = load double, double* %32, align 8, !tbaa !1
  %34 = getelementptr inbounds double, double* %z, i64 2
  %35 = load double, double* %34, align 8, !tbaa !1
  %36 = getelementptr inbounds double, double* %z, i64 3
  %37 = load double, double* %36, align 8, !tbaa !1
  %38 = getelementptr inbounds double, double* %z, i64 4
  %39 = load double, double* %38, align 8, !tbaa !1
  %40 = getelementptr inbounds double, double* %z, i64 5
  %41 = load double, double* %40, align 8, !tbaa !1
  %42 = getelementptr inbounds double, double* %z, i64 6
  %43 = load double, double* %42, align 8, !tbaa !1
  %44 = getelementptr inbounds double, double* %z, i64 7
  %45 = load double, double* %44, align 8, !tbaa !1
  %46 = fsub double %13, %1
  %47 = fsub double %11, %7
  %48 = fadd double %47, %46
  %49 = fsub double %15, %3
  %50 = fsub double %48, %49
  %51 = fsub double %9, %5
  %52 = fsub double %50, %51
  %53 = fmul double %52, 1.250000e-01
  %54 = fsub double %46, %47
  %55 = fadd double %54, %49
  %56 = fsub double %55, %51
  %57 = fmul double %56, 1.250000e-01
  %58 = fadd double %48, %49
  %59 = fadd double %51, %58
  %60 = fmul double %59, 1.250000e-01
  %61 = fsub double %28, %16
  %62 = fsub double %26, %22
  %63 = fadd double %62, %61
  %64 = fsub double %30, %18
  %65 = fsub double %63, %64
  %66 = fsub double %24, %20
  %67 = fsub double %65, %66
  %68 = fmul double %67, 1.250000e-01
  %69 = fsub double %61, %62
  %70 = fadd double %69, %64
  %71 = fsub double %70, %66
  %72 = fmul double %71, 1.250000e-01
  %73 = fadd double %63, %64
  %74 = fadd double %66, %73
  %75 = fmul double %74, 1.250000e-01
  %76 = fsub double %43, %31
  %77 = fsub double %41, %37
  %78 = fadd double %77, %76
  %79 = fsub double %45, %33
  %80 = fsub double %78, %79
  %81 = fsub double %39, %35
  %82 = fsub double %80, %81
  %83 = fmul double %82, 1.250000e-01
  %84 = fsub double %76, %77
  %85 = fadd double %84, %79
  %86 = fsub double %85, %81
  %87 = fmul double %86, 1.250000e-01
  %88 = fadd double %78, %79
  %89 = fadd double %81, %88
  %90 = fmul double %89, 1.250000e-01
  %91 = fmul double %72, %90
  %92 = fmul double %75, %87
  %93 = fsub double %91, %92
  %94 = fmul double %68, %90
  %95 = fmul double %75, %83
  %96 = fsub double %95, %94
  %97 = fmul double %68, %87
  %98 = fmul double %72, %83
  %99 = fsub double %97, %98
  %100 = fmul double %57, %90
  %101 = fmul double %60, %87
  %102 = fsub double %101, %100
  %103 = fmul double %53, %90
  %104 = fmul double %60, %83
  %105 = fsub double %103, %104
  %106 = fmul double %53, %87
  %107 = fmul double %57, %83
  %108 = fsub double %107, %106
  %109 = fmul double %57, %75
  %110 = fmul double %60, %72
  %111 = fsub double %109, %110
  %112 = fmul double %53, %75
  %113 = fmul double %60, %68
  %114 = fsub double %113, %112
  %115 = fmul double %53, %72
  %116 = fmul double %57, %68
  %117 = fsub double %115, %116
  %118 = fsub double -0.000000e+00, %93
  %119 = fsub double %118, %96
  %120 = fsub double %119, %99
  %121 = getelementptr inbounds [8 x double], [8 x double]* %b, i64 0, i64 0
  store double %120, double* %121, align 8, !tbaa !1
  %122 = fsub double %93, %96
  %123 = fsub double %122, %99
  %124 = getelementptr inbounds [8 x double], [8 x double]* %b, i64 0, i64 1
  store double %123, double* %124, align 8, !tbaa !1
  %125 = fadd double %93, %96
  %126 = fsub double %125, %99
  %127 = getelementptr inbounds [8 x double], [8 x double]* %b, i64 0, i64 2
  store double %126, double* %127, align 8, !tbaa !1
  %128 = fsub double %96, %93
  %129 = fsub double %128, %99
  %130 = getelementptr inbounds [8 x double], [8 x double]* %b, i64 0, i64 3
  store double %129, double* %130, align 8, !tbaa !1
  %131 = fsub double -0.000000e+00, %126
  %132 = getelementptr inbounds [8 x double], [8 x double]* %b, i64 0, i64 4
  store double %131, double* %132, align 8, !tbaa !1
  %133 = fsub double -0.000000e+00, %129
  %134 = getelementptr inbounds [8 x double], [8 x double]* %b, i64 0, i64 5
  store double %133, double* %134, align 8, !tbaa !1
  %135 = fsub double -0.000000e+00, %120
  %136 = getelementptr inbounds [8 x double], [8 x double]* %b, i64 0, i64 6
  store double %135, double* %136, align 8, !tbaa !1
  %137 = fsub double -0.000000e+00, %123
  %138 = getelementptr inbounds [8 x double], [8 x double]* %b, i64 0, i64 7
  store double %137, double* %138, align 8, !tbaa !1
  %139 = fsub double -0.000000e+00, %102
  %140 = fsub double %139, %105
  %141 = fsub double %140, %108
  %142 = getelementptr inbounds [8 x double], [8 x double]* %b, i64 1, i64 0
  store double %141, double* %142, align 8, !tbaa !1
  %143 = fsub double %102, %105
  %144 = fsub double %143, %108
  %145 = getelementptr inbounds [8 x double], [8 x double]* %b, i64 1, i64 1
  store double %144, double* %145, align 8, !tbaa !1
  %146 = fadd double %102, %105
  %147 = fsub double %146, %108
  %148 = getelementptr inbounds [8 x double], [8 x double]* %b, i64 1, i64 2
  store double %147, double* %148, align 8, !tbaa !1
  %149 = fsub double %105, %102
  %150 = fsub double %149, %108
  %151 = getelementptr inbounds [8 x double], [8 x double]* %b, i64 1, i64 3
  store double %150, double* %151, align 8, !tbaa !1
  %152 = fsub double -0.000000e+00, %147
  %153 = getelementptr inbounds [8 x double], [8 x double]* %b, i64 1, i64 4
  store double %152, double* %153, align 8, !tbaa !1
  %154 = fsub double -0.000000e+00, %150
  %155 = getelementptr inbounds [8 x double], [8 x double]* %b, i64 1, i64 5
  store double %154, double* %155, align 8, !tbaa !1
  %156 = fsub double -0.000000e+00, %141
  %157 = getelementptr inbounds [8 x double], [8 x double]* %b, i64 1, i64 6
  store double %156, double* %157, align 8, !tbaa !1
  %158 = fsub double -0.000000e+00, %144
  %159 = getelementptr inbounds [8 x double], [8 x double]* %b, i64 1, i64 7
  store double %158, double* %159, align 8, !tbaa !1
  %160 = fsub double -0.000000e+00, %111
  %161 = fsub double %160, %114
  %162 = fsub double %161, %117
  %163 = getelementptr inbounds [8 x double], [8 x double]* %b, i64 2, i64 0
  store double %162, double* %163, align 8, !tbaa !1
  %164 = fsub double %111, %114
  %165 = fsub double %164, %117
  %166 = getelementptr inbounds [8 x double], [8 x double]* %b, i64 2, i64 1
  store double %165, double* %166, align 8, !tbaa !1
  %167 = fadd double %111, %114
  %168 = fsub double %167, %117
  %169 = getelementptr inbounds [8 x double], [8 x double]* %b, i64 2, i64 2
  store double %168, double* %169, align 8, !tbaa !1
  %170 = fsub double %114, %111
  %171 = fsub double %170, %117
  %172 = getelementptr inbounds [8 x double], [8 x double]* %b, i64 2, i64 3
  store double %171, double* %172, align 8, !tbaa !1
  %173 = fsub double -0.000000e+00, %168
  %174 = getelementptr inbounds [8 x double], [8 x double]* %b, i64 2, i64 4
  store double %173, double* %174, align 8, !tbaa !1
  %175 = fsub double -0.000000e+00, %171
  %176 = getelementptr inbounds [8 x double], [8 x double]* %b, i64 2, i64 5
  store double %175, double* %176, align 8, !tbaa !1
  %177 = fsub double -0.000000e+00, %162
  %178 = getelementptr inbounds [8 x double], [8 x double]* %b, i64 2, i64 6
  store double %177, double* %178, align 8, !tbaa !1
  %179 = fsub double -0.000000e+00, %165
  %180 = getelementptr inbounds [8 x double], [8 x double]* %b, i64 2, i64 7
  store double %179, double* %180, align 8, !tbaa !1
  %181 = fmul double %57, %96
  %182 = fmul double %72, %105
  %183 = fadd double %181, %182
  %184 = fmul double %114, %87
  %185 = fadd double %184, %183
  %186 = fmul double %185, 8.000000e+00
  store double %186, double* %volume, align 8, !tbaa !1
  ret void
}

; Function Attrs: inlinehint norecurse nounwind uwtable
define internal fastcc void @_ZL24CalcElemVelocityGradientPKdS0_S0_PA8_S_dPd(double* nocapture readonly %xvel, double* nocapture readonly %yvel, double* nocapture readonly %zvel, [8 x double]* nocapture readonly %b, double %detJ, double* nocapture %d) unnamed_addr #7 {
  %1 = fdiv double 1.000000e+00, %detJ
  %2 = getelementptr inbounds [8 x double], [8 x double]* %b, i64 0, i64 0
  %3 = getelementptr inbounds [8 x double], [8 x double]* %b, i64 1, i64 0
  %4 = getelementptr inbounds [8 x double], [8 x double]* %b, i64 2, i64 0
  %5 = load double, double* %2, align 8, !tbaa !1
  %6 = load double, double* %xvel, align 8, !tbaa !1
  %7 = getelementptr inbounds double, double* %xvel, i64 6
  %8 = load double, double* %7, align 8, !tbaa !1
  %9 = fsub double %6, %8
  %10 = fmul double %5, %9
  %11 = getelementptr inbounds [8 x double], [8 x double]* %b, i64 0, i64 1
  %12 = load double, double* %11, align 8, !tbaa !1
  %13 = getelementptr inbounds double, double* %xvel, i64 1
  %14 = load double, double* %13, align 8, !tbaa !1
  %15 = getelementptr inbounds double, double* %xvel, i64 7
  %16 = load double, double* %15, align 8, !tbaa !1
  %17 = fsub double %14, %16
  %18 = fmul double %12, %17
  %19 = fadd double %10, %18
  %20 = getelementptr inbounds [8 x double], [8 x double]* %b, i64 0, i64 2
  %21 = load double, double* %20, align 8, !tbaa !1
  %22 = getelementptr inbounds double, double* %xvel, i64 2
  %23 = load double, double* %22, align 8, !tbaa !1
  %24 = getelementptr inbounds double, double* %xvel, i64 4
  %25 = load double, double* %24, align 8, !tbaa !1
  %26 = fsub double %23, %25
  %27 = fmul double %21, %26
  %28 = fadd double %19, %27
  %29 = getelementptr inbounds [8 x double], [8 x double]* %b, i64 0, i64 3
  %30 = load double, double* %29, align 8, !tbaa !1
  %31 = getelementptr inbounds double, double* %xvel, i64 3
  %32 = load double, double* %31, align 8, !tbaa !1
  %33 = getelementptr inbounds double, double* %xvel, i64 5
  %34 = load double, double* %33, align 8, !tbaa !1
  %35 = fsub double %32, %34
  %36 = fmul double %30, %35
  %37 = fadd double %28, %36
  %38 = fmul double %1, %37
  store double %38, double* %d, align 8, !tbaa !1
  %39 = load double, double* %3, align 8, !tbaa !1
  %40 = load double, double* %yvel, align 8, !tbaa !1
  %41 = getelementptr inbounds double, double* %yvel, i64 6
  %42 = load double, double* %41, align 8, !tbaa !1
  %43 = fsub double %40, %42
  %44 = fmul double %39, %43
  %45 = getelementptr inbounds [8 x double], [8 x double]* %b, i64 1, i64 1
  %46 = load double, double* %45, align 8, !tbaa !1
  %47 = getelementptr inbounds double, double* %yvel, i64 1
  %48 = load double, double* %47, align 8, !tbaa !1
  %49 = getelementptr inbounds double, double* %yvel, i64 7
  %50 = load double, double* %49, align 8, !tbaa !1
  %51 = fsub double %48, %50
  %52 = fmul double %46, %51
  %53 = fadd double %44, %52
  %54 = getelementptr inbounds [8 x double], [8 x double]* %b, i64 1, i64 2
  %55 = load double, double* %54, align 8, !tbaa !1
  %56 = getelementptr inbounds double, double* %yvel, i64 2
  %57 = load double, double* %56, align 8, !tbaa !1
  %58 = getelementptr inbounds double, double* %yvel, i64 4
  %59 = load double, double* %58, align 8, !tbaa !1
  %60 = fsub double %57, %59
  %61 = fmul double %55, %60
  %62 = fadd double %53, %61
  %63 = getelementptr inbounds [8 x double], [8 x double]* %b, i64 1, i64 3
  %64 = load double, double* %63, align 8, !tbaa !1
  %65 = getelementptr inbounds double, double* %yvel, i64 3
  %66 = load double, double* %65, align 8, !tbaa !1
  %67 = getelementptr inbounds double, double* %yvel, i64 5
  %68 = load double, double* %67, align 8, !tbaa !1
  %69 = fsub double %66, %68
  %70 = fmul double %64, %69
  %71 = fadd double %62, %70
  %72 = fmul double %1, %71
  %73 = getelementptr inbounds double, double* %d, i64 1
  store double %72, double* %73, align 8, !tbaa !1
  %74 = load double, double* %4, align 8, !tbaa !1
  %75 = load double, double* %zvel, align 8, !tbaa !1
  %76 = getelementptr inbounds double, double* %zvel, i64 6
  %77 = load double, double* %76, align 8, !tbaa !1
  %78 = fsub double %75, %77
  %79 = fmul double %74, %78
  %80 = getelementptr inbounds [8 x double], [8 x double]* %b, i64 2, i64 1
  %81 = load double, double* %80, align 8, !tbaa !1
  %82 = getelementptr inbounds double, double* %zvel, i64 1
  %83 = load double, double* %82, align 8, !tbaa !1
  %84 = getelementptr inbounds double, double* %zvel, i64 7
  %85 = load double, double* %84, align 8, !tbaa !1
  %86 = fsub double %83, %85
  %87 = fmul double %81, %86
  %88 = fadd double %79, %87
  %89 = getelementptr inbounds [8 x double], [8 x double]* %b, i64 2, i64 2
  %90 = load double, double* %89, align 8, !tbaa !1
  %91 = getelementptr inbounds double, double* %zvel, i64 2
  %92 = load double, double* %91, align 8, !tbaa !1
  %93 = getelementptr inbounds double, double* %zvel, i64 4
  %94 = load double, double* %93, align 8, !tbaa !1
  %95 = fsub double %92, %94
  %96 = fmul double %90, %95
  %97 = fadd double %88, %96
  %98 = getelementptr inbounds [8 x double], [8 x double]* %b, i64 2, i64 3
  %99 = load double, double* %98, align 8, !tbaa !1
  %100 = getelementptr inbounds double, double* %zvel, i64 3
  %101 = load double, double* %100, align 8, !tbaa !1
  %102 = getelementptr inbounds double, double* %zvel, i64 5
  %103 = load double, double* %102, align 8, !tbaa !1
  %104 = fsub double %101, %103
  %105 = fmul double %99, %104
  %106 = fadd double %97, %105
  %107 = fmul double %1, %106
  %108 = getelementptr inbounds double, double* %d, i64 2
  store double %107, double* %108, align 8, !tbaa !1
  %109 = load double, double* %2, align 8, !tbaa !1
  %110 = load double, double* %yvel, align 8, !tbaa !1
  %111 = load double, double* %41, align 8, !tbaa !1
  %112 = fsub double %110, %111
  %113 = fmul double %109, %112
  %114 = load double, double* %11, align 8, !tbaa !1
  %115 = load double, double* %47, align 8, !tbaa !1
  %116 = load double, double* %49, align 8, !tbaa !1
  %117 = fsub double %115, %116
  %118 = fmul double %114, %117
  %119 = fadd double %113, %118
  %120 = load double, double* %20, align 8, !tbaa !1
  %121 = load double, double* %56, align 8, !tbaa !1
  %122 = load double, double* %58, align 8, !tbaa !1
  %123 = fsub double %121, %122
  %124 = fmul double %120, %123
  %125 = fadd double %119, %124
  %126 = load double, double* %29, align 8, !tbaa !1
  %127 = load double, double* %65, align 8, !tbaa !1
  %128 = load double, double* %67, align 8, !tbaa !1
  %129 = fsub double %127, %128
  %130 = fmul double %126, %129
  %131 = fadd double %125, %130
  %132 = fmul double %1, %131
  %133 = load double, double* %3, align 8, !tbaa !1
  %134 = load double, double* %xvel, align 8, !tbaa !1
  %135 = load double, double* %7, align 8, !tbaa !1
  %136 = fsub double %134, %135
  %137 = fmul double %133, %136
  %138 = load double, double* %45, align 8, !tbaa !1
  %139 = load double, double* %13, align 8, !tbaa !1
  %140 = load double, double* %15, align 8, !tbaa !1
  %141 = fsub double %139, %140
  %142 = fmul double %138, %141
  %143 = fadd double %137, %142
  %144 = load double, double* %54, align 8, !tbaa !1
  %145 = load double, double* %22, align 8, !tbaa !1
  %146 = load double, double* %24, align 8, !tbaa !1
  %147 = fsub double %145, %146
  %148 = fmul double %144, %147
  %149 = fadd double %143, %148
  %150 = load double, double* %63, align 8, !tbaa !1
  %151 = load double, double* %31, align 8, !tbaa !1
  %152 = load double, double* %33, align 8, !tbaa !1
  %153 = fsub double %151, %152
  %154 = fmul double %150, %153
  %155 = fadd double %149, %154
  %156 = fmul double %1, %155
  %157 = load double, double* %zvel, align 8, !tbaa !1
  %158 = load double, double* %76, align 8, !tbaa !1
  %159 = fsub double %157, %158
  %160 = fmul double %109, %159
  %161 = load double, double* %82, align 8, !tbaa !1
  %162 = load double, double* %84, align 8, !tbaa !1
  %163 = fsub double %161, %162
  %164 = fmul double %114, %163
  %165 = fadd double %160, %164
  %166 = load double, double* %91, align 8, !tbaa !1
  %167 = load double, double* %93, align 8, !tbaa !1
  %168 = fsub double %166, %167
  %169 = fmul double %120, %168
  %170 = fadd double %165, %169
  %171 = load double, double* %100, align 8, !tbaa !1
  %172 = load double, double* %102, align 8, !tbaa !1
  %173 = fsub double %171, %172
  %174 = fmul double %126, %173
  %175 = fadd double %170, %174
  %176 = fmul double %1, %175
  %177 = load double, double* %4, align 8, !tbaa !1
  %178 = fmul double %136, %177
  %179 = load double, double* %80, align 8, !tbaa !1
  %180 = fmul double %141, %179
  %181 = fadd double %178, %180
  %182 = load double, double* %89, align 8, !tbaa !1
  %183 = fmul double %147, %182
  %184 = fadd double %181, %183
  %185 = load double, double* %98, align 8, !tbaa !1
  %186 = fmul double %153, %185
  %187 = fadd double %184, %186
  %188 = fmul double %1, %187
  %189 = fmul double %133, %159
  %190 = fmul double %138, %163
  %191 = fadd double %189, %190
  %192 = fmul double %144, %168
  %193 = fadd double %191, %192
  %194 = fmul double %150, %173
  %195 = fadd double %193, %194
  %196 = fmul double %1, %195
  %197 = fmul double %112, %177
  %198 = fmul double %117, %179
  %199 = fadd double %197, %198
  %200 = fmul double %123, %182
  %201 = fadd double %199, %200
  %202 = fmul double %129, %185
  %203 = fadd double %201, %202
  %204 = fmul double %1, %203
  %205 = fadd double %132, %156
  %206 = fmul double %205, 5.000000e-01
  %207 = getelementptr inbounds double, double* %d, i64 5
  store double %206, double* %207, align 8, !tbaa !1
  %208 = fadd double %176, %188
  %209 = fmul double %208, 5.000000e-01
  %210 = getelementptr inbounds double, double* %d, i64 4
  store double %209, double* %210, align 8, !tbaa !1
  %211 = fadd double %196, %204
  %212 = fmul double %211, 5.000000e-01
  %213 = getelementptr inbounds double, double* %d, i64 3
  store double %212, double* %213, align 8, !tbaa !1
  ret void
}

; Function Attrs: norecurse nounwind readonly uwtable
define linkonce_odr nonnull dereferenceable(8) double* @_ZN6Domain3dxxEi(%class.Domain* nocapture readonly %this, i32 %idx) #3 comdat align 2 {
  %1 = getelementptr inbounds %class.Domain, %class.Domain* %this, i64 0, i32 29
  %2 = sext i32 %idx to i64
  %3 = tail call dereferenceable(8) double* @_ZNSt6vectorIdSaIdEEixEm(%"class.std::vector"* %1, i64 %2)
  ret double* %3
}

; Function Attrs: norecurse nounwind readonly uwtable
define linkonce_odr nonnull dereferenceable(8) double* @_ZN6Domain3dyyEi(%class.Domain* nocapture readonly %this, i32 %idx) #3 comdat align 2 {
  %1 = getelementptr inbounds %class.Domain, %class.Domain* %this, i64 0, i32 30
  %2 = sext i32 %idx to i64
  %3 = tail call dereferenceable(8) double* @_ZNSt6vectorIdSaIdEEixEm(%"class.std::vector"* %1, i64 %2)
  ret double* %3
}

; Function Attrs: norecurse nounwind readonly uwtable
define linkonce_odr nonnull dereferenceable(8) double* @_ZN6Domain3dzzEi(%class.Domain* nocapture readonly %this, i32 %idx) #3 comdat align 2 {
  %1 = getelementptr inbounds %class.Domain, %class.Domain* %this, i64 0, i32 31
  %2 = sext i32 %idx to i64
  %3 = tail call dereferenceable(8) double* @_ZNSt6vectorIdSaIdEEixEm(%"class.std::vector"* %1, i64 %2)
  ret double* %3
}

; Function Attrs: norecurse uwtable
define i32 @main(i32 %argc, i8** %argv) #11 personality i8* bitcast (i32 (...)* @__gxx_personality_v0 to i8*) {
  %opts = alloca %struct.cmdLineOpts, align 4
  %col = alloca i32, align 4
  %row = alloca i32, align 4
  %plane = alloca i32, align 4
  %side = alloca i32, align 4
  %start = alloca %struct.timeval, align 8
  %end = alloca %struct.timeval, align 8
  %1 = bitcast %struct.cmdLineOpts* %opts to i8*
  call void @llvm.lifetime.start(i64 36, i8* %1) #2
  %2 = getelementptr inbounds %struct.cmdLineOpts, %struct.cmdLineOpts* %opts, i64 0, i32 0
  store i32 9999999, i32* %2, align 4, !tbaa !14
  %3 = getelementptr inbounds %struct.cmdLineOpts, %struct.cmdLineOpts* %opts, i64 0, i32 1
  store i32 30, i32* %3, align 4, !tbaa !16
  %4 = getelementptr inbounds %struct.cmdLineOpts, %struct.cmdLineOpts* %opts, i64 0, i32 2
  store i32 11, i32* %4, align 4, !tbaa !17
  %5 = getelementptr inbounds %struct.cmdLineOpts, %struct.cmdLineOpts* %opts, i64 0, i32 3
  store i32 1, i32* %5, align 4, !tbaa !18
  %6 = getelementptr inbounds %struct.cmdLineOpts, %struct.cmdLineOpts* %opts, i64 0, i32 4
  store i32 0, i32* %6, align 4, !tbaa !19
  %7 = getelementptr inbounds %struct.cmdLineOpts, %struct.cmdLineOpts* %opts, i64 0, i32 5
  store i32 0, i32* %7, align 4, !tbaa !20
  %8 = getelementptr inbounds %struct.cmdLineOpts, %struct.cmdLineOpts* %opts, i64 0, i32 6
  store i32 0, i32* %8, align 4, !tbaa !21
  %9 = getelementptr inbounds %struct.cmdLineOpts, %struct.cmdLineOpts* %opts, i64 0, i32 8
  store i32 1, i32* %9, align 4, !tbaa !22
  %10 = getelementptr inbounds %struct.cmdLineOpts, %struct.cmdLineOpts* %opts, i64 0, i32 7
  store i32 1, i32* %10, align 4, !tbaa !23
  call void @_Z23ParseCommandLineOptionsiPPciP11cmdLineOpts(i32 %argc, i8** %argv, i32 0, %struct.cmdLineOpts* nonnull %opts)
  %11 = load i32, i32* %7, align 4, !tbaa !20
  %12 = icmp eq i32 %11, 0
  br i1 %12, label %13, label %._crit_edge

._crit_edge:                                      ; preds = %0
  %.pre = load i32, i32* %3, align 4, !tbaa !16
  br label %21

; <label>:13                                      ; preds = %0
  %14 = load i32, i32* %3, align 4, !tbaa !16
  %15 = call i32 (i8*, ...) @printf(i8* nonnull getelementptr inbounds ([55 x i8], [55 x i8]* @.str, i64 0, i64 0), i32 %14)
  %16 = call i32 (i8*, ...) @printf(i8* nonnull getelementptr inbounds ([20 x i8], [20 x i8]* @.str.1, i64 0, i64 0), i32 1)
  %17 = mul nsw i32 %14, %14
  %18 = mul nsw i32 %17, %14
  %19 = sext i32 %18 to i64
  %20 = call i32 (i8*, ...) @printf(i8* nonnull getelementptr inbounds ([33 x i8], [33 x i8]* @.str.2, i64 0, i64 0), i64 %19)
  %puts = call i32 @puts(i8* nonnull getelementptr inbounds ([38 x i8], [38 x i8]* @str, i64 0, i64 0))
  %puts2 = call i32 @puts(i8* nonnull getelementptr inbounds ([55 x i8], [55 x i8]* @str.14, i64 0, i64 0))
  %puts3 = call i32 @puts(i8* nonnull getelementptr inbounds ([61 x i8], [61 x i8]* @str.15, i64 0, i64 0))
  %puts4 = call i32 @puts(i8* nonnull getelementptr inbounds ([59 x i8], [59 x i8]* @str.16, i64 0, i64 0))
  %puts5 = call i32 @puts(i8* nonnull getelementptr inbounds ([30 x i8], [30 x i8]* @str.17, i64 0, i64 0))
  %puts6 = call i32 @puts(i8* nonnull getelementptr inbounds ([42 x i8], [42 x i8]* @str.18, i64 0, i64 0))
  %puts7 = call i32 @puts(i8* nonnull getelementptr inbounds ([32 x i8], [32 x i8]* @str.19, i64 0, i64 0))
  br label %21

; <label>:21                                      ; preds = %._crit_edge, %13
  %22 = phi i32 [ %.pre, %._crit_edge ], [ %14, %13 ]
  %23 = bitcast i32* %col to i8*
  call void @llvm.lifetime.start(i64 4, i8* %23) #2
  %24 = bitcast i32* %row to i8*
  call void @llvm.lifetime.start(i64 4, i8* %24) #2
  %25 = bitcast i32* %plane to i8*
  call void @llvm.lifetime.start(i64 4, i8* %25) #2
  %26 = bitcast i32* %side to i8*
  call void @llvm.lifetime.start(i64 4, i8* %26) #2
  call void @_Z14InitMeshDecompiiPiS_S_S_(i32 1, i32 0, i32* nonnull %col, i32* nonnull %row, i32* nonnull %plane, i32* nonnull %side)
  %27 = call noalias i8* @_Znwm(i64 1456) #24
  %28 = bitcast i8* %27 to %class.Domain*
  %29 = load i32, i32* %col, align 4, !tbaa !5
  %30 = load i32, i32* %row, align 4, !tbaa !5
  %31 = load i32, i32* %plane, align 4, !tbaa !5
  %32 = load i32, i32* %side, align 4, !tbaa !5
  %33 = load i32, i32* %4, align 4, !tbaa !17
  %34 = load i32, i32* %9, align 4, !tbaa !22
  %35 = load i32, i32* %10, align 4, !tbaa !23
  invoke void @_ZN6DomainC1Eiiiiiiiii(%class.Domain* %28, i32 1, i32 %29, i32 %30, i32 %31, i32 %22, i32 %32, i32 %33, i32 %34, i32 %35)
          to label %36 unwind label %60

; <label>:36                                      ; preds = %21
  %37 = bitcast %struct.timeval* %start to i8*
  call void @llvm.lifetime.start(i64 16, i8* %37) #2
  %38 = call i32 @gettimeofday(%struct.timeval* nonnull %start, %struct.timezone* null) #2
  %39 = call dereferenceable(8) double* @_ZN6Domain4timeEv(%class.Domain* %28)
  %40 = load double, double* %39, align 8, !tbaa !1
  %41 = call dereferenceable(8) double* @_ZN6Domain8stoptimeEv(%class.Domain* %28)
  %42 = load double, double* %41, align 8, !tbaa !1
  %43 = fcmp olt double %40, %42
  br i1 %43, label %.lr.ph, label %.critedge

.lr.ph:                                           ; preds = %36
  %44 = call dereferenceable(4) i32* @_ZN6Domain5cycleEv(%class.Domain* %28)
  %.pre1 = load i32, i32* %2, align 4, !tbaa !14
  br label %45

; <label>:45                                      ; preds = %.backedge, %.lr.ph
  %46 = load i32, i32* %44, align 4, !tbaa !5
  %47 = icmp slt i32 %46, %.pre1
  br i1 %47, label %48, label %.critedge.loopexit

; <label>:48                                      ; preds = %45
  call fastcc void @_ZL13TimeIncrementR6Domain(%class.Domain* dereferenceable(1456) %28)
  call fastcc void @_ZL16LagrangeLeapFrogR6Domain(%class.Domain* dereferenceable(1456) %28)
  %49 = load i32, i32* %6, align 4, !tbaa !19
  %50 = icmp ne i32 %49, 0
  %or.cond = and i1 %50, %12
  br i1 %or.cond, label %51, label %.backedge

; <label>:51                                      ; preds = %48
  %52 = load i32, i32* %44, align 4, !tbaa !5
  %53 = load double, double* %39, align 8, !tbaa !1
  %54 = call dereferenceable(8) double* @_ZN6Domain9deltatimeEv(%class.Domain* %28)
  %55 = load double, double* %54, align 8, !tbaa !1
  %56 = call i32 (i8*, ...) @printf(i8* nonnull getelementptr inbounds ([30 x i8], [30 x i8]* @.str.10, i64 0, i64 0), i32 %52, double %53, double %55)
  br label %.backedge

.backedge:                                        ; preds = %51, %48
  %57 = load double, double* %39, align 8, !tbaa !1
  %58 = load double, double* %41, align 8, !tbaa !1
  %59 = fcmp olt double %57, %58
  br i1 %59, label %45, label %.critedge.loopexit

; <label>:60                                      ; preds = %21
  %61 = landingpad { i8*, i32 }
          cleanup
  call void @_ZdlPv(i8* nonnull %27) #25
  resume { i8*, i32 } %61

.critedge.loopexit:                               ; preds = %45, %.backedge
  br label %.critedge

.critedge:                                        ; preds = %.critedge.loopexit, %36
  %62 = bitcast %struct.timeval* %end to i8*
  call void @llvm.lifetime.start(i64 16, i8* %62) #2
  %63 = call i32 @gettimeofday(%struct.timeval* nonnull %end, %struct.timezone* null) #2
  %64 = getelementptr inbounds %struct.timeval, %struct.timeval* %end, i64 0, i32 0
  %65 = load i64, i64* %64, align 8, !tbaa !24
  %66 = getelementptr inbounds %struct.timeval, %struct.timeval* %start, i64 0, i32 0
  %67 = load i64, i64* %66, align 8, !tbaa !24
  %68 = sub nsw i64 %65, %67
  %69 = sitofp i64 %68 to double
  %70 = getelementptr inbounds %struct.timeval, %struct.timeval* %end, i64 0, i32 1
  %71 = load i64, i64* %70, align 8, !tbaa !27
  %72 = getelementptr inbounds %struct.timeval, %struct.timeval* %start, i64 0, i32 1
  %73 = load i64, i64* %72, align 8, !tbaa !27
  %74 = sub nsw i64 %71, %73
  %75 = sitofp i64 %74 to double
  %76 = fdiv double %75, 1.000000e+06
  %77 = fadd double %69, %76
  %78 = load i32, i32* %8, align 4, !tbaa !21
  %79 = icmp eq i32 %78, 0
  br i1 %79, label %82, label %80

; <label>:80                                      ; preds = %.critedge
  %81 = load i32, i32* %5, align 4, !tbaa !18
  call void @_Z11DumpToVisitR6Domainiii(%class.Domain* dereferenceable(1456) %28, i32 %81, i32 0, i32 1)
  br label %82

; <label>:82                                      ; preds = %80, %.critedge
  br i1 %12, label %83, label %84

; <label>:83                                      ; preds = %82
  call void @_Z25VerifyAndWriteFinalOutputdR6Domainii(double %77, %class.Domain* dereferenceable(1456) %28, i32 %22, i32 1)
  br label %84

; <label>:84                                      ; preds = %83, %82
  call void @llvm.lifetime.end(i64 16, i8* %62) #2
  call void @llvm.lifetime.end(i64 16, i8* nonnull %37) #2
  call void @llvm.lifetime.end(i64 4, i8* %26) #2
  call void @llvm.lifetime.end(i64 4, i8* %25) #2
  call void @llvm.lifetime.end(i64 4, i8* %24) #2
  call void @llvm.lifetime.end(i64 4, i8* %23) #2
  call void @llvm.lifetime.end(i64 36, i8* nonnull %1) #2
  ret i32 0
}

declare i32 @__gxx_personality_v0(...)

; Function Attrs: nounwind
declare i32 @printf(i8* nocapture readonly, ...) #10

; Function Attrs: nounwind
declare i32 @puts(i8* nocapture) #2

; Function Attrs: nobuiltin
declare noalias nonnull i8* @_Znwm(i64) #12

; Function Attrs: nounwind
declare i32 @gettimeofday(%struct.timeval* nocapture, %struct.timezone* nocapture) #10

; Function Attrs: norecurse nounwind readnone uwtable
define linkonce_odr dereferenceable(8) double* @_ZN6Domain4timeEv(%class.Domain* readnone %this) #13 comdat align 2 {
  %1 = getelementptr inbounds %class.Domain, %class.Domain* %this, i64 0, i32 74
  ret double* %1
}

; Function Attrs: norecurse nounwind readnone uwtable
define linkonce_odr dereferenceable(8) double* @_ZN6Domain8stoptimeEv(%class.Domain* readnone %this) #13 comdat align 2 {
  %1 = getelementptr inbounds %class.Domain, %class.Domain* %this, i64 0, i32 79
  ret double* %1
}

; Function Attrs: norecurse nounwind readnone uwtable
define linkonce_odr dereferenceable(4) i32* @_ZN6Domain5cycleEv(%class.Domain* readnone %this) #13 comdat align 2 {
  %1 = getelementptr inbounds %class.Domain, %class.Domain* %this, i64 0, i32 72
  ret i32* %1
}

; Function Attrs: inlinehint norecurse nounwind uwtable
define internal fastcc void @_ZL13TimeIncrementR6Domain(%class.Domain* dereferenceable(1456) %domain) unnamed_addr #7 {
  %1 = tail call dereferenceable(8) double* @_ZN6Domain8stoptimeEv(%class.Domain* nonnull %domain)
  %2 = load double, double* %1, align 8, !tbaa !1
  %3 = tail call dereferenceable(8) double* @_ZN6Domain4timeEv(%class.Domain* nonnull %domain)
  %4 = load double, double* %3, align 8, !tbaa !1
  %5 = fsub double %2, %4
  %6 = tail call dereferenceable(8) double* @_ZN6Domain7dtfixedEv(%class.Domain* nonnull %domain)
  %7 = load double, double* %6, align 8, !tbaa !1
  %8 = fcmp ugt double %7, 0.000000e+00
  br i1 %8, label %43, label %9

; <label>:9                                       ; preds = %0
  %10 = tail call dereferenceable(4) i32* @_ZN6Domain5cycleEv(%class.Domain* nonnull %domain)
  %11 = load i32, i32* %10, align 4, !tbaa !5
  %12 = icmp eq i32 %11, 0
  br i1 %12, label %43, label %13

; <label>:13                                      ; preds = %9
  %14 = tail call dereferenceable(8) double* @_ZN6Domain9deltatimeEv(%class.Domain* nonnull %domain)
  %15 = load double, double* %14, align 8, !tbaa !1
  %16 = tail call dereferenceable(8) double* @_ZN6Domain9dtcourantEv(%class.Domain* nonnull %domain)
  %17 = load double, double* %16, align 8, !tbaa !1
  %18 = fcmp olt double %17, 1.000000e+20
  %19 = fmul double %17, 5.000000e-01
  %gnewdt.0 = select i1 %18, double %19, double 1.000000e+20
  %20 = tail call dereferenceable(8) double* @_ZN6Domain7dthydroEv(%class.Domain* nonnull %domain)
  %21 = load double, double* %20, align 8, !tbaa !1
  %22 = fcmp olt double %21, %gnewdt.0
  br i1 %22, label %23, label %26

; <label>:23                                      ; preds = %13
  %24 = fmul double %21, 2.000000e+00
  %25 = fdiv double %24, 3.000000e+00
  br label %26

; <label>:26                                      ; preds = %23, %13
  %gnewdt.1 = phi double [ %25, %23 ], [ %gnewdt.0, %13 ]
  %27 = fdiv double %gnewdt.1, %15
  %28 = fcmp ult double %27, 1.000000e+00
  br i1 %28, label %39, label %29

; <label>:29                                      ; preds = %26
  %30 = tail call dereferenceable(8) double* @_ZN6Domain15deltatimemultlbEv(%class.Domain* nonnull %domain)
  %31 = load double, double* %30, align 8, !tbaa !1
  %32 = fcmp olt double %27, %31
  br i1 %32, label %39, label %33

; <label>:33                                      ; preds = %29
  %34 = tail call dereferenceable(8) double* @_ZN6Domain15deltatimemultubEv(%class.Domain* nonnull %domain)
  %35 = load double, double* %34, align 8, !tbaa !1
  %36 = fcmp ogt double %27, %35
  br i1 %36, label %37, label %39

; <label>:37                                      ; preds = %33
  %38 = fmul double %15, %35
  br label %39

; <label>:39                                      ; preds = %37, %33, %29, %26
  %newdt.0 = phi double [ %38, %37 ], [ %gnewdt.1, %33 ], [ %gnewdt.1, %26 ], [ %15, %29 ]
  %40 = tail call dereferenceable(8) double* @_ZN6Domain5dtmaxEv(%class.Domain* nonnull %domain)
  %41 = load double, double* %40, align 8, !tbaa !1
  %42 = fcmp ogt double %newdt.0, %41
  %newdt.1 = select i1 %42, double %41, double %newdt.0
  store double %newdt.1, double* %14, align 8, !tbaa !1
  br label %43

; <label>:43                                      ; preds = %39, %9, %0
  %44 = tail call dereferenceable(8) double* @_ZN6Domain9deltatimeEv(%class.Domain* nonnull %domain)
  %45 = load double, double* %44, align 8, !tbaa !1
  %46 = fcmp ogt double %5, %45
  br i1 %46, label %47, label %54

; <label>:47                                      ; preds = %43
  %48 = fmul double %45, 4.000000e+00
  %49 = fdiv double %48, 3.000000e+00
  %50 = fcmp olt double %5, %49
  br i1 %50, label %51, label %54

; <label>:51                                      ; preds = %47
  %52 = fmul double %45, 2.000000e+00
  %53 = fdiv double %52, 3.000000e+00
  br label %54

; <label>:54                                      ; preds = %51, %47, %43
  %targetdt.0 = phi double [ %53, %51 ], [ %5, %47 ], [ %5, %43 ]
  %55 = fcmp olt double %targetdt.0, %45
  br i1 %55, label %56, label %57

; <label>:56                                      ; preds = %54
  store double %targetdt.0, double* %44, align 8, !tbaa !1
  br label %57

; <label>:57                                      ; preds = %56, %54
  %58 = phi double [ %targetdt.0, %56 ], [ %45, %54 ]
  %59 = load double, double* %3, align 8, !tbaa !1
  %60 = fadd double %58, %59
  store double %60, double* %3, align 8, !tbaa !1
  %61 = tail call dereferenceable(4) i32* @_ZN6Domain5cycleEv(%class.Domain* nonnull %domain)
  %62 = load i32, i32* %61, align 4, !tbaa !5
  %63 = add nsw i32 %62, 1
  store i32 %63, i32* %61, align 4, !tbaa !5
  ret void
}

; Function Attrs: norecurse nounwind readnone uwtable
define linkonce_odr dereferenceable(8) double* @_ZN6Domain7dtfixedEv(%class.Domain* readnone %this) #13 comdat align 2 {
  %1 = getelementptr inbounds %class.Domain, %class.Domain* %this, i64 0, i32 73
  ret double* %1
}

; Function Attrs: norecurse nounwind readnone uwtable
define linkonce_odr dereferenceable(8) double* @_ZN6Domain9deltatimeEv(%class.Domain* readnone %this) #13 comdat align 2 {
  %1 = getelementptr inbounds %class.Domain, %class.Domain* %this, i64 0, i32 75
  ret double* %1
}

; Function Attrs: norecurse nounwind readnone uwtable
define linkonce_odr dereferenceable(8) double* @_ZN6Domain9dtcourantEv(%class.Domain* readnone %this) #13 comdat align 2 {
  %1 = getelementptr inbounds %class.Domain, %class.Domain* %this, i64 0, i32 70
  ret double* %1
}

; Function Attrs: norecurse nounwind readnone uwtable
define linkonce_odr dereferenceable(8) double* @_ZN6Domain7dthydroEv(%class.Domain* readnone %this) #13 comdat align 2 {
  %1 = getelementptr inbounds %class.Domain, %class.Domain* %this, i64 0, i32 71
  ret double* %1
}

; Function Attrs: norecurse nounwind readnone uwtable
define linkonce_odr dereferenceable(8) double* @_ZN6Domain15deltatimemultlbEv(%class.Domain* readnone %this) #13 comdat align 2 {
  %1 = getelementptr inbounds %class.Domain, %class.Domain* %this, i64 0, i32 76
  ret double* %1
}

; Function Attrs: norecurse nounwind readnone uwtable
define linkonce_odr dereferenceable(8) double* @_ZN6Domain15deltatimemultubEv(%class.Domain* readnone %this) #13 comdat align 2 {
  %1 = getelementptr inbounds %class.Domain, %class.Domain* %this, i64 0, i32 77
  ret double* %1
}

; Function Attrs: norecurse nounwind readnone uwtable
define linkonce_odr dereferenceable(8) double* @_ZN6Domain5dtmaxEv(%class.Domain* readnone %this) #13 comdat align 2 {
  %1 = getelementptr inbounds %class.Domain, %class.Domain* %this, i64 0, i32 78
  ret double* %1
}

; Function Attrs: inlinehint norecurse uwtable
define internal fastcc void @_ZL16LagrangeLeapFrogR6Domain(%class.Domain* dereferenceable(1456) %domain) unnamed_addr #14 {
  tail call fastcc void @_ZL13LagrangeNodalR6Domain(%class.Domain* nonnull dereferenceable(1456) %domain)
  %1 = tail call dereferenceable(4) i32* @_ZN6Domain7numElemEv(%class.Domain* nonnull %domain)
  %2 = load i32, i32* %1, align 4, !tbaa !5
  tail call fastcc void @_ZL16LagrangeElementsR6Domaini(%class.Domain* nonnull dereferenceable(1456) %domain, i32 %2)
  tail call fastcc void @_ZL27CalcTimeConstraintsForElemsR6Domain(%class.Domain* nonnull dereferenceable(1456) %domain)
  ret void
}

; Function Attrs: inlinehint norecurse nounwind uwtable
define internal fastcc void @_ZL13LagrangeNodalR6Domain(%class.Domain* readonly dereferenceable(1456) %domain) unnamed_addr #7 {
  %1 = tail call dereferenceable(8) double* @_ZN6Domain9deltatimeEv(%class.Domain* nonnull %domain)
  %2 = load double, double* %1, align 8, !tbaa !1
  %3 = tail call double @_ZNK6Domain5u_cutEv(%class.Domain* nonnull %domain)
  tail call fastcc void @_ZL17CalcForceForNodesR6Domain(%class.Domain* nonnull dereferenceable(1456) %domain)
  %4 = tail call dereferenceable(4) i32* @_ZN6Domain7numNodeEv(%class.Domain* nonnull %domain)
  %5 = load i32, i32* %4, align 4, !tbaa !5
  tail call fastcc void @_ZL24CalcAccelerationForNodesR6Domaini(%class.Domain* nonnull dereferenceable(1456) %domain, i32 %5)
  tail call fastcc void @_ZL43ApplyAccelerationBoundaryConditionsForNodesR6Domain(%class.Domain* nonnull dereferenceable(1456) %domain)
  %6 = load i32, i32* %4, align 4, !tbaa !5
  tail call fastcc void @_ZL20CalcVelocityForNodesR6Domainddi(%class.Domain* nonnull dereferenceable(1456) %domain, double %2, double %3, i32 %6)
  %7 = load i32, i32* %4, align 4, !tbaa !5
  tail call fastcc void @_ZL20CalcPositionForNodesR6Domaindi(%class.Domain* nonnull dereferenceable(1456) %domain, double %2, i32 %7)
  ret void
}

; Function Attrs: norecurse nounwind readonly uwtable
define linkonce_odr double @_ZNK6Domain5u_cutEv(%class.Domain* nocapture readonly %this) #3 comdat align 2 {
  %1 = getelementptr inbounds %class.Domain, %class.Domain* %this, i64 0, i32 55
  %2 = load double, double* %1, align 8, !tbaa !28
  ret double %2
}

; Function Attrs: inlinehint norecurse nounwind uwtable
define internal fastcc void @_ZL17CalcForceForNodesR6Domain(%class.Domain* readonly dereferenceable(1456) %domain) unnamed_addr #7 {
  %1 = tail call dereferenceable(4) i32* @_ZN6Domain7numNodeEv(%class.Domain* nonnull %domain)
  %2 = load i32, i32* %1, align 4, !tbaa !5
  %3 = icmp sgt i32 %2, 0
  br i1 %3, label %.lr.ph.preheader, label %._crit_edge

.lr.ph.preheader:                                 ; preds = %0
  br label %.lr.ph

._crit_edge.loopexit:                             ; preds = %.lr.ph
  br label %._crit_edge

._crit_edge:                                      ; preds = %._crit_edge.loopexit, %0
  tail call fastcc void @_ZL23CalcVolumeForceForElemsR6Domain(%class.Domain* nonnull dereferenceable(1456) %domain)
  ret void

.lr.ph:                                           ; preds = %.lr.ph.preheader, %.lr.ph
  %i.01 = phi i32 [ %7, %.lr.ph ], [ 0, %.lr.ph.preheader ]
  %4 = tail call dereferenceable(8) double* @_ZN6Domain2fxEi(%class.Domain* nonnull %domain, i32 %i.01)
  store double 0.000000e+00, double* %4, align 8, !tbaa !1
  %5 = tail call dereferenceable(8) double* @_ZN6Domain2fyEi(%class.Domain* nonnull %domain, i32 %i.01)
  store double 0.000000e+00, double* %5, align 8, !tbaa !1
  %6 = tail call dereferenceable(8) double* @_ZN6Domain2fzEi(%class.Domain* nonnull %domain, i32 %i.01)
  store double 0.000000e+00, double* %6, align 8, !tbaa !1
  %7 = add nuw nsw i32 %i.01, 1
  %exitcond = icmp eq i32 %7, %2
  br i1 %exitcond, label %._crit_edge.loopexit, label %.lr.ph
}

; Function Attrs: norecurse nounwind readnone uwtable
define linkonce_odr dereferenceable(4) i32* @_ZN6Domain7numNodeEv(%class.Domain* readnone %this) #13 comdat align 2 {
  %1 = getelementptr inbounds %class.Domain, %class.Domain* %this, i64 0, i32 89
  ret i32* %1
}

; Function Attrs: inlinehint norecurse nounwind uwtable
define internal fastcc void @_ZL23CalcVolumeForceForElemsR6Domain(%class.Domain* readonly dereferenceable(1456) %domain) unnamed_addr #7 {
  %sigxx = alloca double*, align 8
  %sigyy = alloca double*, align 8
  %sigzz = alloca double*, align 8
  %determ = alloca double*, align 8
  %1 = tail call dereferenceable(4) i32* @_ZN6Domain7numElemEv(%class.Domain* nonnull %domain)
  %2 = load i32, i32* %1, align 4, !tbaa !5
  %3 = icmp eq i32 %2, 0
  br i1 %3, label %23, label %4

; <label>:4                                       ; preds = %0
  %5 = tail call double @_ZNK6Domain6hgcoefEv(%class.Domain* nonnull %domain)
  %6 = bitcast double** %sigxx to i8*
  call void @llvm.lifetime.start(i64 8, i8* %6) #2
  %7 = sext i32 %2 to i64
  %8 = tail call double* @_Z8AllocateIdEPT_m(i64 %7)
  store double* %8, double** %sigxx, align 8, !tbaa !32
  %9 = bitcast double** %sigyy to i8*
  call void @llvm.lifetime.start(i64 8, i8* %9) #2
  %10 = tail call double* @_Z8AllocateIdEPT_m(i64 %7)
  store double* %10, double** %sigyy, align 8, !tbaa !32
  %11 = bitcast double** %sigzz to i8*
  call void @llvm.lifetime.start(i64 8, i8* %11) #2
  %12 = tail call double* @_Z8AllocateIdEPT_m(i64 %7)
  store double* %12, double** %sigzz, align 8, !tbaa !32
  %13 = bitcast double** %determ to i8*
  call void @llvm.lifetime.start(i64 8, i8* %13) #2
  %14 = tail call double* @_Z8AllocateIdEPT_m(i64 %7)
  store double* %14, double** %determ, align 8, !tbaa !32
  tail call fastcc void @_ZL23InitStressTermsForElemsR6DomainPdS1_S1_i(%class.Domain* nonnull dereferenceable(1456) %domain, double* %8, double* %10, double* %12, i32 %2)
  tail call fastcc void @_ZL23IntegrateStressForElemsR6DomainPdS1_S1_S1_ii(%class.Domain* nonnull dereferenceable(1456) %domain, double* %8, double* %10, double* %12, double* %14, i32 %2)
  %15 = icmp sgt i32 %2, 0
  br i1 %15, label %.lr.ph, label %._crit_edge

.lr.ph:                                           ; preds = %4
  br label %18

; <label>:16                                      ; preds = %18
  %17 = icmp slt i64 %indvars.iv.next, %7
  br i1 %17, label %18, label %._crit_edge.loopexit

._crit_edge.loopexit:                             ; preds = %16
  br label %._crit_edge

._crit_edge:                                      ; preds = %._crit_edge.loopexit, %4
  tail call fastcc void @_ZL28CalcHourglassControlForElemsR6DomainPdd(%class.Domain* nonnull dereferenceable(1456) %domain, double* %14, double %5)
  call void @_Z7ReleaseIdEvPPT_(double** nonnull %determ)
  call void @_Z7ReleaseIdEvPPT_(double** nonnull %sigzz)
  call void @_Z7ReleaseIdEvPPT_(double** nonnull %sigyy)
  call void @_Z7ReleaseIdEvPPT_(double** nonnull %sigxx)
  call void @llvm.lifetime.end(i64 8, i8* %13) #2
  call void @llvm.lifetime.end(i64 8, i8* %11) #2
  call void @llvm.lifetime.end(i64 8, i8* %9) #2
  call void @llvm.lifetime.end(i64 8, i8* %6) #2
  br label %23

; <label>:18                                      ; preds = %16, %.lr.ph
  %indvars.iv = phi i64 [ 0, %.lr.ph ], [ %indvars.iv.next, %16 ]
  %19 = getelementptr inbounds double, double* %14, i64 %indvars.iv
  %20 = load double, double* %19, align 8, !tbaa !1
  %21 = fcmp ugt double %20, 0.000000e+00
  %indvars.iv.next = add nuw nsw i64 %indvars.iv, 1
  br i1 %21, label %16, label %22

; <label>:22                                      ; preds = %18
  tail call void @exit(i32 -1) #26
  unreachable

; <label>:23                                      ; preds = %._crit_edge, %0
  ret void
}

; Function Attrs: norecurse nounwind readnone uwtable
define linkonce_odr dereferenceable(4) i32* @_ZN6Domain7numElemEv(%class.Domain* readnone %this) #13 comdat align 2 {
  %1 = getelementptr inbounds %class.Domain, %class.Domain* %this, i64 0, i32 88
  ret i32* %1
}

; Function Attrs: norecurse nounwind readonly uwtable
define linkonce_odr double @_ZNK6Domain6hgcoefEv(%class.Domain* nocapture readonly %this) #3 comdat align 2 {
  %1 = getelementptr inbounds %class.Domain, %class.Domain* %this, i64 0, i32 56
  %2 = load double, double* %1, align 8, !tbaa !33
  ret double %2
}

; Function Attrs: nounwind uwtable
define linkonce_odr noalias double* @_Z8AllocateIdEPT_m(i64 %size) #5 comdat {
  %1 = shl i64 %size, 3
  %2 = tail call noalias i8* @malloc(i64 %1) #2
  %3 = bitcast i8* %2 to double*
  ret double* %3
}

; Function Attrs: nounwind
declare noalias i8* @malloc(i64) #10

; Function Attrs: inlinehint norecurse nounwind uwtable
define internal fastcc void @_ZL23InitStressTermsForElemsR6DomainPdS1_S1_i(%class.Domain* nocapture readonly dereferenceable(1456) %domain, double* nocapture %sigxx, double* nocapture %sigyy, double* nocapture %sigzz, i32 %numElem) unnamed_addr #7 {
  %1 = icmp sgt i32 %numElem, 0
  br i1 %1, label %.lr.ph.preheader, label %._crit_edge

.lr.ph.preheader:                                 ; preds = %0
  br label %.lr.ph

._crit_edge.loopexit:                             ; preds = %.lr.ph
  br label %._crit_edge

._crit_edge:                                      ; preds = %._crit_edge.loopexit, %0
  ret void

.lr.ph:                                           ; preds = %.lr.ph.preheader, %.lr.ph
  %indvars.iv = phi i64 [ %indvars.iv.next, %.lr.ph ], [ 0, %.lr.ph.preheader ]
  %2 = trunc i64 %indvars.iv to i32
  %3 = tail call dereferenceable(8) double* @_ZN6Domain1pEi(%class.Domain* nonnull %domain, i32 %2)
  %4 = load double, double* %3, align 8, !tbaa !1
  %5 = fsub double -0.000000e+00, %4
  %6 = tail call dereferenceable(8) double* @_ZN6Domain1qEi(%class.Domain* nonnull %domain, i32 %2)
  %7 = load double, double* %6, align 8, !tbaa !1
  %8 = fsub double %5, %7
  %9 = getelementptr inbounds double, double* %sigzz, i64 %indvars.iv
  store double %8, double* %9, align 8, !tbaa !1
  %10 = getelementptr inbounds double, double* %sigyy, i64 %indvars.iv
  store double %8, double* %10, align 8, !tbaa !1
  %11 = getelementptr inbounds double, double* %sigxx, i64 %indvars.iv
  store double %8, double* %11, align 8, !tbaa !1
  %indvars.iv.next = add nuw nsw i64 %indvars.iv, 1
  %lftr.wideiv = trunc i64 %indvars.iv.next to i32
  %exitcond = icmp eq i32 %lftr.wideiv, %numElem
  br i1 %exitcond, label %._crit_edge.loopexit, label %.lr.ph
}

; Function Attrs: norecurse nounwind readonly uwtable
define linkonce_odr nonnull dereferenceable(8) double* @_ZN6Domain1pEi(%class.Domain* nocapture readonly %this, i32 %idx) #3 comdat align 2 {
  %1 = getelementptr inbounds %class.Domain, %class.Domain* %this, i64 0, i32 39
  %2 = sext i32 %idx to i64
  %3 = tail call dereferenceable(8) double* @_ZNSt6vectorIdSaIdEEixEm(%"class.std::vector"* %1, i64 %2)
  ret double* %3
}

; Function Attrs: norecurse nounwind readonly uwtable
define linkonce_odr nonnull dereferenceable(8) double* @_ZN6Domain1qEi(%class.Domain* nocapture readonly %this, i32 %idx) #3 comdat align 2 {
  %1 = getelementptr inbounds %class.Domain, %class.Domain* %this, i64 0, i32 40
  %2 = sext i32 %idx to i64
  %3 = tail call dereferenceable(8) double* @_ZNSt6vectorIdSaIdEEixEm(%"class.std::vector"* %1, i64 %2)
  ret double* %3
}

; Function Attrs: inlinehint norecurse nounwind uwtable
define internal fastcc void @_ZL23IntegrateStressForElemsR6DomainPdS1_S1_S1_ii(%class.Domain* readonly dereferenceable(1456) %domain, double* nocapture readonly %sigxx, double* nocapture readonly %sigyy, double* nocapture readonly %sigzz, double* nocapture %determ, i32 %numElem) unnamed_addr #7 {
  %fx_local = alloca [8 x double], align 16
  %fy_local = alloca [8 x double], align 16
  %fz_local = alloca [8 x double], align 16
  %B = alloca [3 x [8 x double]], align 16
  %x_local = alloca [8 x double], align 16
  %y_local = alloca [8 x double], align 16
  %z_local = alloca [8 x double], align 16
  %1 = bitcast [8 x double]* %fx_local to i8*
  call void @llvm.lifetime.start(i64 64, i8* %1) #2
  %2 = bitcast [8 x double]* %fy_local to i8*
  call void @llvm.lifetime.start(i64 64, i8* %2) #2
  %3 = bitcast [8 x double]* %fz_local to i8*
  call void @llvm.lifetime.start(i64 64, i8* %3) #2
  %4 = icmp sgt i32 %numElem, 0
  br i1 %4, label %.lr.ph, label %._crit_edge

.lr.ph:                                           ; preds = %0
  %5 = bitcast [3 x [8 x double]]* %B to i8*
  %6 = bitcast [8 x double]* %x_local to i8*
  %7 = bitcast [8 x double]* %y_local to i8*
  %8 = bitcast [8 x double]* %z_local to i8*
  %9 = getelementptr inbounds [8 x double], [8 x double]* %x_local, i64 0, i64 0
  %10 = getelementptr inbounds [8 x double], [8 x double]* %y_local, i64 0, i64 0
  %11 = getelementptr inbounds [8 x double], [8 x double]* %z_local, i64 0, i64 0
  %12 = getelementptr inbounds [3 x [8 x double]], [3 x [8 x double]]* %B, i64 0, i64 0
  %13 = getelementptr inbounds [3 x [8 x double]], [3 x [8 x double]]* %B, i64 0, i64 0, i64 0
  %14 = getelementptr inbounds [3 x [8 x double]], [3 x [8 x double]]* %B, i64 0, i64 1, i64 0
  %15 = getelementptr inbounds [3 x [8 x double]], [3 x [8 x double]]* %B, i64 0, i64 2, i64 0
  %16 = getelementptr inbounds [8 x double], [8 x double]* %fx_local, i64 0, i64 0
  %17 = getelementptr inbounds [8 x double], [8 x double]* %fy_local, i64 0, i64 0
  %18 = getelementptr inbounds [8 x double], [8 x double]* %fz_local, i64 0, i64 0
  br label %19

; <label>:19                                      ; preds = %47, %.lr.ph
  %indvars.iv3 = phi i64 [ 0, %.lr.ph ], [ %indvars.iv.next4, %47 ]
  %20 = trunc i64 %indvars.iv3 to i32
  %21 = call i32* @_ZN6Domain8nodelistEi(%class.Domain* nonnull %domain, i32 %20)
  call void @llvm.lifetime.start(i64 192, i8* %5) #2
  call void @llvm.lifetime.start(i64 64, i8* %6) #2
  call void @llvm.lifetime.start(i64 64, i8* %7) #2
  call void @llvm.lifetime.start(i64 64, i8* %8) #2
  call fastcc void @_ZL29CollectDomainNodesToElemNodesR6DomainPKiPdS3_S3_(%class.Domain* nonnull dereferenceable(1456) %domain, i32* nonnull %21, double* %9, double* %10, double* %11)
  %22 = getelementptr inbounds double, double* %determ, i64 %indvars.iv3
  call fastcc void @_ZL32CalcElemShapeFunctionDerivativesPKdS0_S0_PA8_dPd(double* %9, double* %10, double* %11, [8 x double]* %12, double* %22)
  call fastcc void @_ZL19CalcElemNodeNormalsPdS_S_PKdS1_S1_(double* %13, double* %14, double* %15, double* %9, double* %10, double* %11)
  %23 = getelementptr inbounds double, double* %sigzz, i64 %indvars.iv3
  %24 = load double, double* %23, align 8, !tbaa !1
  %25 = getelementptr inbounds double, double* %sigyy, i64 %indvars.iv3
  %26 = load double, double* %25, align 8, !tbaa !1
  %27 = getelementptr inbounds double, double* %sigxx, i64 %indvars.iv3
  %28 = load double, double* %27, align 8, !tbaa !1
  call fastcc void @_ZL27SumElemStressesToNodeForcesPA8_KddddPdS2_S2_([8 x double]* %12, double %28, double %26, double %24, double* %16, double* %17, double* %18)
  br label %29

; <label>:29                                      ; preds = %29, %19
  %indvars.iv = phi i64 [ 0, %19 ], [ %indvars.iv.next, %29 ]
  %30 = getelementptr inbounds i32, i32* %21, i64 %indvars.iv
  %31 = load i32, i32* %30, align 4, !tbaa !5
  %32 = getelementptr inbounds [8 x double], [8 x double]* %fx_local, i64 0, i64 %indvars.iv
  %33 = load double, double* %32, align 8, !tbaa !1
  %34 = call dereferenceable(8) double* @_ZN6Domain2fxEi(%class.Domain* nonnull %domain, i32 %31)
  %35 = load double, double* %34, align 8, !tbaa !1
  %36 = fadd double %33, %35
  store double %36, double* %34, align 8, !tbaa !1
  %37 = getelementptr inbounds [8 x double], [8 x double]* %fy_local, i64 0, i64 %indvars.iv
  %38 = load double, double* %37, align 8, !tbaa !1
  %39 = call dereferenceable(8) double* @_ZN6Domain2fyEi(%class.Domain* nonnull %domain, i32 %31)
  %40 = load double, double* %39, align 8, !tbaa !1
  %41 = fadd double %38, %40
  store double %41, double* %39, align 8, !tbaa !1
  %42 = getelementptr inbounds [8 x double], [8 x double]* %fz_local, i64 0, i64 %indvars.iv
  %43 = load double, double* %42, align 8, !tbaa !1
  %44 = call dereferenceable(8) double* @_ZN6Domain2fzEi(%class.Domain* nonnull %domain, i32 %31)
  %45 = load double, double* %44, align 8, !tbaa !1
  %46 = fadd double %43, %45
  store double %46, double* %44, align 8, !tbaa !1
  %indvars.iv.next = add nuw nsw i64 %indvars.iv, 1
  %exitcond = icmp eq i64 %indvars.iv.next, 8
  br i1 %exitcond, label %47, label %29

; <label>:47                                      ; preds = %29
  call void @llvm.lifetime.end(i64 64, i8* %8) #2
  call void @llvm.lifetime.end(i64 64, i8* %7) #2
  call void @llvm.lifetime.end(i64 64, i8* %6) #2
  call void @llvm.lifetime.end(i64 192, i8* %5) #2
  %indvars.iv.next4 = add nuw nsw i64 %indvars.iv3, 1
  %lftr.wideiv = trunc i64 %indvars.iv.next4 to i32
  %exitcond5 = icmp eq i32 %lftr.wideiv, %numElem
  br i1 %exitcond5, label %._crit_edge.loopexit, label %19

._crit_edge.loopexit:                             ; preds = %47
  br label %._crit_edge

._crit_edge:                                      ; preds = %._crit_edge.loopexit, %0
  call void @llvm.lifetime.end(i64 64, i8* %3) #2
  call void @llvm.lifetime.end(i64 64, i8* %2) #2
  call void @llvm.lifetime.end(i64 64, i8* %1) #2
  ret void
}

; Function Attrs: inlinehint norecurse nounwind uwtable
define internal fastcc void @_ZL19CalcElemNodeNormalsPdS_S_PKdS1_S1_(double* nocapture %pfx, double* nocapture %pfy, double* nocapture %pfz, double* nocapture readonly %x, double* nocapture readonly %y, double* nocapture readonly %z) unnamed_addr #7 {
  br label %116

; <label>:1                                       ; preds = %116
  %2 = getelementptr inbounds double, double* %pfx, i64 1
  %3 = getelementptr inbounds double, double* %pfy, i64 1
  %4 = getelementptr inbounds double, double* %pfz, i64 1
  %5 = getelementptr inbounds double, double* %pfx, i64 2
  %6 = getelementptr inbounds double, double* %pfy, i64 2
  %7 = getelementptr inbounds double, double* %pfz, i64 2
  %8 = getelementptr inbounds double, double* %pfx, i64 3
  %9 = getelementptr inbounds double, double* %pfy, i64 3
  %10 = getelementptr inbounds double, double* %pfz, i64 3
  %11 = load double, double* %x, align 8, !tbaa !1
  %12 = load double, double* %y, align 8, !tbaa !1
  %13 = load double, double* %z, align 8, !tbaa !1
  %14 = getelementptr inbounds double, double* %x, i64 1
  %15 = load double, double* %14, align 8, !tbaa !1
  %16 = getelementptr inbounds double, double* %y, i64 1
  %17 = load double, double* %16, align 8, !tbaa !1
  %18 = getelementptr inbounds double, double* %z, i64 1
  %19 = load double, double* %18, align 8, !tbaa !1
  %20 = getelementptr inbounds double, double* %x, i64 2
  %21 = load double, double* %20, align 8, !tbaa !1
  %22 = getelementptr inbounds double, double* %y, i64 2
  %23 = load double, double* %22, align 8, !tbaa !1
  %24 = getelementptr inbounds double, double* %z, i64 2
  %25 = load double, double* %24, align 8, !tbaa !1
  %26 = getelementptr inbounds double, double* %x, i64 3
  %27 = load double, double* %26, align 8, !tbaa !1
  %28 = getelementptr inbounds double, double* %y, i64 3
  %29 = load double, double* %28, align 8, !tbaa !1
  %30 = getelementptr inbounds double, double* %z, i64 3
  %31 = load double, double* %30, align 8, !tbaa !1
  tail call fastcc void @_ZL17SumElemFaceNormalPdS_S_S_S_S_S_S_S_S_S_S_dddddddddddd(double* nonnull %pfx, double* nonnull %pfy, double* nonnull %pfz, double* %2, double* %3, double* %4, double* %5, double* %6, double* %7, double* %8, double* %9, double* %10, double %11, double %12, double %13, double %15, double %17, double %19, double %21, double %23, double %25, double %27, double %29, double %31)
  %32 = getelementptr inbounds double, double* %pfx, i64 4
  %33 = getelementptr inbounds double, double* %pfy, i64 4
  %34 = getelementptr inbounds double, double* %pfz, i64 4
  %35 = getelementptr inbounds double, double* %pfx, i64 5
  %36 = getelementptr inbounds double, double* %pfy, i64 5
  %37 = getelementptr inbounds double, double* %pfz, i64 5
  %38 = load double, double* %x, align 8, !tbaa !1
  %39 = load double, double* %y, align 8, !tbaa !1
  %40 = load double, double* %z, align 8, !tbaa !1
  %41 = getelementptr inbounds double, double* %x, i64 4
  %42 = load double, double* %41, align 8, !tbaa !1
  %43 = getelementptr inbounds double, double* %y, i64 4
  %44 = load double, double* %43, align 8, !tbaa !1
  %45 = getelementptr inbounds double, double* %z, i64 4
  %46 = load double, double* %45, align 8, !tbaa !1
  %47 = getelementptr inbounds double, double* %x, i64 5
  %48 = load double, double* %47, align 8, !tbaa !1
  %49 = getelementptr inbounds double, double* %y, i64 5
  %50 = load double, double* %49, align 8, !tbaa !1
  %51 = getelementptr inbounds double, double* %z, i64 5
  %52 = load double, double* %51, align 8, !tbaa !1
  %53 = load double, double* %14, align 8, !tbaa !1
  %54 = load double, double* %16, align 8, !tbaa !1
  %55 = load double, double* %18, align 8, !tbaa !1
  tail call fastcc void @_ZL17SumElemFaceNormalPdS_S_S_S_S_S_S_S_S_S_S_dddddddddddd(double* nonnull %pfx, double* nonnull %pfy, double* nonnull %pfz, double* %32, double* %33, double* %34, double* %35, double* %36, double* %37, double* %2, double* %3, double* %4, double %38, double %39, double %40, double %42, double %44, double %46, double %48, double %50, double %52, double %53, double %54, double %55)
  %56 = getelementptr inbounds double, double* %pfx, i64 6
  %57 = getelementptr inbounds double, double* %pfy, i64 6
  %58 = getelementptr inbounds double, double* %pfz, i64 6
  %59 = load double, double* %14, align 8, !tbaa !1
  %60 = load double, double* %16, align 8, !tbaa !1
  %61 = load double, double* %18, align 8, !tbaa !1
  %62 = load double, double* %47, align 8, !tbaa !1
  %63 = load double, double* %49, align 8, !tbaa !1
  %64 = load double, double* %51, align 8, !tbaa !1
  %65 = getelementptr inbounds double, double* %x, i64 6
  %66 = load double, double* %65, align 8, !tbaa !1
  %67 = getelementptr inbounds double, double* %y, i64 6
  %68 = load double, double* %67, align 8, !tbaa !1
  %69 = getelementptr inbounds double, double* %z, i64 6
  %70 = load double, double* %69, align 8, !tbaa !1
  %71 = load double, double* %20, align 8, !tbaa !1
  %72 = load double, double* %22, align 8, !tbaa !1
  %73 = load double, double* %24, align 8, !tbaa !1
  tail call fastcc void @_ZL17SumElemFaceNormalPdS_S_S_S_S_S_S_S_S_S_S_dddddddddddd(double* %2, double* %3, double* %4, double* %35, double* %36, double* %37, double* %56, double* %57, double* %58, double* %5, double* %6, double* %7, double %59, double %60, double %61, double %62, double %63, double %64, double %66, double %68, double %70, double %71, double %72, double %73)
  %74 = getelementptr inbounds double, double* %pfx, i64 7
  %75 = getelementptr inbounds double, double* %pfy, i64 7
  %76 = getelementptr inbounds double, double* %pfz, i64 7
  %77 = load double, double* %20, align 8, !tbaa !1
  %78 = load double, double* %22, align 8, !tbaa !1
  %79 = load double, double* %24, align 8, !tbaa !1
  %80 = load double, double* %65, align 8, !tbaa !1
  %81 = load double, double* %67, align 8, !tbaa !1
  %82 = load double, double* %69, align 8, !tbaa !1
  %83 = getelementptr inbounds double, double* %x, i64 7
  %84 = load double, double* %83, align 8, !tbaa !1
  %85 = getelementptr inbounds double, double* %y, i64 7
  %86 = load double, double* %85, align 8, !tbaa !1
  %87 = getelementptr inbounds double, double* %z, i64 7
  %88 = load double, double* %87, align 8, !tbaa !1
  %89 = load double, double* %26, align 8, !tbaa !1
  %90 = load double, double* %28, align 8, !tbaa !1
  %91 = load double, double* %30, align 8, !tbaa !1
  tail call fastcc void @_ZL17SumElemFaceNormalPdS_S_S_S_S_S_S_S_S_S_S_dddddddddddd(double* %5, double* %6, double* %7, double* %56, double* %57, double* %58, double* %74, double* %75, double* %76, double* %8, double* %9, double* %10, double %77, double %78, double %79, double %80, double %81, double %82, double %84, double %86, double %88, double %89, double %90, double %91)
  %92 = load double, double* %26, align 8, !tbaa !1
  %93 = load double, double* %28, align 8, !tbaa !1
  %94 = load double, double* %30, align 8, !tbaa !1
  %95 = load double, double* %83, align 8, !tbaa !1
  %96 = load double, double* %85, align 8, !tbaa !1
  %97 = load double, double* %87, align 8, !tbaa !1
  %98 = load double, double* %41, align 8, !tbaa !1
  %99 = load double, double* %43, align 8, !tbaa !1
  %100 = load double, double* %45, align 8, !tbaa !1
  %101 = load double, double* %x, align 8, !tbaa !1
  %102 = load double, double* %y, align 8, !tbaa !1
  %103 = load double, double* %z, align 8, !tbaa !1
  tail call fastcc void @_ZL17SumElemFaceNormalPdS_S_S_S_S_S_S_S_S_S_S_dddddddddddd(double* %8, double* %9, double* %10, double* %74, double* %75, double* %76, double* %32, double* %33, double* %34, double* nonnull %pfx, double* nonnull %pfy, double* nonnull %pfz, double %92, double %93, double %94, double %95, double %96, double %97, double %98, double %99, double %100, double %101, double %102, double %103)
  %104 = load double, double* %41, align 8, !tbaa !1
  %105 = load double, double* %43, align 8, !tbaa !1
  %106 = load double, double* %45, align 8, !tbaa !1
  %107 = load double, double* %83, align 8, !tbaa !1
  %108 = load double, double* %85, align 8, !tbaa !1
  %109 = load double, double* %87, align 8, !tbaa !1
  %110 = load double, double* %65, align 8, !tbaa !1
  %111 = load double, double* %67, align 8, !tbaa !1
  %112 = load double, double* %69, align 8, !tbaa !1
  %113 = load double, double* %47, align 8, !tbaa !1
  %114 = load double, double* %49, align 8, !tbaa !1
  %115 = load double, double* %51, align 8, !tbaa !1
  tail call fastcc void @_ZL17SumElemFaceNormalPdS_S_S_S_S_S_S_S_S_S_S_dddddddddddd(double* %32, double* %33, double* %34, double* %74, double* %75, double* %76, double* %56, double* %57, double* %58, double* %35, double* %36, double* %37, double %104, double %105, double %106, double %107, double %108, double %109, double %110, double %111, double %112, double %113, double %114, double %115)
  ret void

; <label>:116                                     ; preds = %116, %0
  %indvars.iv = phi i64 [ 0, %0 ], [ %indvars.iv.next, %116 ]
  %117 = getelementptr inbounds double, double* %pfx, i64 %indvars.iv
  store double 0.000000e+00, double* %117, align 8, !tbaa !1
  %118 = getelementptr inbounds double, double* %pfy, i64 %indvars.iv
  store double 0.000000e+00, double* %118, align 8, !tbaa !1
  %119 = getelementptr inbounds double, double* %pfz, i64 %indvars.iv
  store double 0.000000e+00, double* %119, align 8, !tbaa !1
  %indvars.iv.next = add nuw nsw i64 %indvars.iv, 1
  %exitcond = icmp eq i64 %indvars.iv.next, 8
  br i1 %exitcond, label %1, label %116
}

; Function Attrs: inlinehint norecurse nounwind uwtable
define internal fastcc void @_ZL17SumElemFaceNormalPdS_S_S_S_S_S_S_S_S_S_S_dddddddddddd(double* nocapture %normalX0, double* nocapture %normalY0, double* nocapture %normalZ0, double* nocapture %normalX1, double* nocapture %normalY1, double* nocapture %normalZ1, double* nocapture %normalX2, double* nocapture %normalY2, double* nocapture %normalZ2, double* nocapture %normalX3, double* nocapture %normalY3, double* nocapture %normalZ3, double %x0, double %y0, double %z0, double %x1, double %y1, double %z1, double %x2, double %y2, double %z2, double %x3, double %y3, double %z3) unnamed_addr #7 {
  %1 = fadd double %x2, %x3
  %2 = fsub double %1, %x1
  %3 = fsub double %2, %x0
  %4 = fmul double %3, 5.000000e-01
  %5 = fadd double %y2, %y3
  %6 = fsub double %5, %y1
  %7 = fsub double %6, %y0
  %8 = fmul double %7, 5.000000e-01
  %9 = fadd double %z2, %z3
  %10 = fsub double %9, %z1
  %11 = fsub double %10, %z0
  %12 = fmul double %11, 5.000000e-01
  %13 = fadd double %x1, %x2
  %14 = fsub double %13, %x3
  %15 = fsub double %14, %x0
  %16 = fmul double %15, 5.000000e-01
  %17 = fadd double %y1, %y2
  %18 = fsub double %17, %y3
  %19 = fsub double %18, %y0
  %20 = fmul double %19, 5.000000e-01
  %21 = fadd double %z1, %z2
  %22 = fsub double %21, %z3
  %23 = fsub double %22, %z0
  %24 = fmul double %23, 5.000000e-01
  %25 = fmul double %8, %24
  %26 = fmul double %20, %12
  %27 = fsub double %25, %26
  %28 = fmul double %27, 2.500000e-01
  %29 = fmul double %16, %12
  %30 = fmul double %4, %24
  %31 = fsub double %29, %30
  %32 = fmul double %31, 2.500000e-01
  %33 = fmul double %4, %20
  %34 = fmul double %16, %8
  %35 = fsub double %33, %34
  %36 = fmul double %35, 2.500000e-01
  %37 = load double, double* %normalX0, align 8, !tbaa !1
  %38 = fadd double %28, %37
  store double %38, double* %normalX0, align 8, !tbaa !1
  %39 = load double, double* %normalX1, align 8, !tbaa !1
  %40 = fadd double %28, %39
  store double %40, double* %normalX1, align 8, !tbaa !1
  %41 = load double, double* %normalX2, align 8, !tbaa !1
  %42 = fadd double %28, %41
  store double %42, double* %normalX2, align 8, !tbaa !1
  %43 = load double, double* %normalX3, align 8, !tbaa !1
  %44 = fadd double %28, %43
  store double %44, double* %normalX3, align 8, !tbaa !1
  %45 = load double, double* %normalY0, align 8, !tbaa !1
  %46 = fadd double %32, %45
  store double %46, double* %normalY0, align 8, !tbaa !1
  %47 = load double, double* %normalY1, align 8, !tbaa !1
  %48 = fadd double %32, %47
  store double %48, double* %normalY1, align 8, !tbaa !1
  %49 = load double, double* %normalY2, align 8, !tbaa !1
  %50 = fadd double %32, %49
  store double %50, double* %normalY2, align 8, !tbaa !1
  %51 = load double, double* %normalY3, align 8, !tbaa !1
  %52 = fadd double %32, %51
  store double %52, double* %normalY3, align 8, !tbaa !1
  %53 = load double, double* %normalZ0, align 8, !tbaa !1
  %54 = fadd double %36, %53
  store double %54, double* %normalZ0, align 8, !tbaa !1
  %55 = load double, double* %normalZ1, align 8, !tbaa !1
  %56 = fadd double %36, %55
  store double %56, double* %normalZ1, align 8, !tbaa !1
  %57 = load double, double* %normalZ2, align 8, !tbaa !1
  %58 = fadd double %36, %57
  store double %58, double* %normalZ2, align 8, !tbaa !1
  %59 = load double, double* %normalZ3, align 8, !tbaa !1
  %60 = fadd double %36, %59
  store double %60, double* %normalZ3, align 8, !tbaa !1
  ret void
}

; Function Attrs: inlinehint norecurse nounwind uwtable
define internal fastcc void @_ZL27SumElemStressesToNodeForcesPA8_KddddPdS2_S2_([8 x double]* nocapture readonly %B, double %stress_xx, double %stress_yy, double %stress_zz, double* nocapture %fx, double* nocapture %fy, double* nocapture %fz) unnamed_addr #7 {
  br label %2

; <label>:1                                       ; preds = %2
  ret void

; <label>:2                                       ; preds = %2, %0
  %indvars.iv = phi i64 [ 0, %0 ], [ %indvars.iv.next, %2 ]
  %3 = getelementptr inbounds [8 x double], [8 x double]* %B, i64 0, i64 %indvars.iv
  %4 = load double, double* %3, align 8, !tbaa !1
  %5 = fmul double %4, %stress_xx
  %6 = fsub double -0.000000e+00, %5
  %7 = getelementptr inbounds double, double* %fx, i64 %indvars.iv
  store double %6, double* %7, align 8, !tbaa !1
  %8 = getelementptr inbounds [8 x double], [8 x double]* %B, i64 1, i64 %indvars.iv
  %9 = load double, double* %8, align 8, !tbaa !1
  %10 = fmul double %9, %stress_yy
  %11 = fsub double -0.000000e+00, %10
  %12 = getelementptr inbounds double, double* %fy, i64 %indvars.iv
  store double %11, double* %12, align 8, !tbaa !1
  %13 = getelementptr inbounds [8 x double], [8 x double]* %B, i64 2, i64 %indvars.iv
  %14 = load double, double* %13, align 8, !tbaa !1
  %15 = fmul double %14, %stress_zz
  %16 = fsub double -0.000000e+00, %15
  %17 = getelementptr inbounds double, double* %fz, i64 %indvars.iv
  store double %16, double* %17, align 8, !tbaa !1
  %indvars.iv.next = add nuw nsw i64 %indvars.iv, 1
  %exitcond = icmp eq i64 %indvars.iv.next, 8
  br i1 %exitcond, label %1, label %2
}

; Function Attrs: norecurse nounwind readonly uwtable
define linkonce_odr nonnull dereferenceable(8) double* @_ZN6Domain2fxEi(%class.Domain* nocapture readonly %this, i32 %idx) #3 comdat align 2 {
  %1 = getelementptr inbounds %class.Domain, %class.Domain* %this, i64 0, i32 9
  %2 = sext i32 %idx to i64
  %3 = tail call dereferenceable(8) double* @_ZNSt6vectorIdSaIdEEixEm(%"class.std::vector"* %1, i64 %2)
  ret double* %3
}

; Function Attrs: norecurse nounwind readonly uwtable
define linkonce_odr nonnull dereferenceable(8) double* @_ZN6Domain2fyEi(%class.Domain* nocapture readonly %this, i32 %idx) #3 comdat align 2 {
  %1 = getelementptr inbounds %class.Domain, %class.Domain* %this, i64 0, i32 10
  %2 = sext i32 %idx to i64
  %3 = tail call dereferenceable(8) double* @_ZNSt6vectorIdSaIdEEixEm(%"class.std::vector"* %1, i64 %2)
  ret double* %3
}

; Function Attrs: norecurse nounwind readonly uwtable
define linkonce_odr nonnull dereferenceable(8) double* @_ZN6Domain2fzEi(%class.Domain* nocapture readonly %this, i32 %idx) #3 comdat align 2 {
  %1 = getelementptr inbounds %class.Domain, %class.Domain* %this, i64 0, i32 11
  %2 = sext i32 %idx to i64
  %3 = tail call dereferenceable(8) double* @_ZNSt6vectorIdSaIdEEixEm(%"class.std::vector"* %1, i64 %2)
  ret double* %3
}

; Function Attrs: inlinehint norecurse nounwind uwtable
define internal fastcc void @_ZL28CalcHourglassControlForElemsR6DomainPdd(%class.Domain* readonly dereferenceable(1456) %domain, double* nocapture %determ, double %hgcoef) unnamed_addr #7 {
  %dvdx = alloca double*, align 8
  %dvdy = alloca double*, align 8
  %dvdz = alloca double*, align 8
  %x8n = alloca double*, align 8
  %y8n = alloca double*, align 8
  %z8n = alloca double*, align 8
  %x1 = alloca [8 x double], align 16
  %y1 = alloca [8 x double], align 16
  %z1 = alloca [8 x double], align 16
  %pfx = alloca [8 x double], align 16
  %pfy = alloca [8 x double], align 16
  %pfz = alloca [8 x double], align 16
  %1 = tail call dereferenceable(4) i32* @_ZN6Domain7numElemEv(%class.Domain* nonnull %domain)
  %2 = load i32, i32* %1, align 4, !tbaa !5
  %3 = shl nsw i32 %2, 3
  %4 = bitcast double** %dvdx to i8*
  call void @llvm.lifetime.start(i64 8, i8* %4) #2
  %5 = sext i32 %3 to i64
  %6 = tail call double* @_Z8AllocateIdEPT_m(i64 %5)
  store double* %6, double** %dvdx, align 8, !tbaa !32
  %7 = bitcast double** %dvdy to i8*
  call void @llvm.lifetime.start(i64 8, i8* %7) #2
  %8 = tail call double* @_Z8AllocateIdEPT_m(i64 %5)
  store double* %8, double** %dvdy, align 8, !tbaa !32
  %9 = bitcast double** %dvdz to i8*
  call void @llvm.lifetime.start(i64 8, i8* %9) #2
  %10 = tail call double* @_Z8AllocateIdEPT_m(i64 %5)
  store double* %10, double** %dvdz, align 8, !tbaa !32
  %11 = bitcast double** %x8n to i8*
  call void @llvm.lifetime.start(i64 8, i8* %11) #2
  %12 = tail call double* @_Z8AllocateIdEPT_m(i64 %5)
  store double* %12, double** %x8n, align 8, !tbaa !32
  %13 = bitcast double** %y8n to i8*
  call void @llvm.lifetime.start(i64 8, i8* %13) #2
  %14 = tail call double* @_Z8AllocateIdEPT_m(i64 %5)
  store double* %14, double** %y8n, align 8, !tbaa !32
  %15 = bitcast double** %z8n to i8*
  call void @llvm.lifetime.start(i64 8, i8* %15) #2
  %16 = tail call double* @_Z8AllocateIdEPT_m(i64 %5)
  store double* %16, double** %z8n, align 8, !tbaa !32
  %17 = icmp sgt i32 %2, 0
  br i1 %17, label %.lr.ph, label %._crit_edge

.lr.ph:                                           ; preds = %0
  %18 = bitcast [8 x double]* %x1 to i8*
  %19 = bitcast [8 x double]* %y1 to i8*
  %20 = bitcast [8 x double]* %z1 to i8*
  %21 = bitcast [8 x double]* %pfx to i8*
  %22 = bitcast [8 x double]* %pfy to i8*
  %23 = bitcast [8 x double]* %pfz to i8*
  %24 = getelementptr inbounds [8 x double], [8 x double]* %x1, i64 0, i64 0
  %25 = getelementptr inbounds [8 x double], [8 x double]* %y1, i64 0, i64 0
  %26 = getelementptr inbounds [8 x double], [8 x double]* %z1, i64 0, i64 0
  %27 = getelementptr inbounds [8 x double], [8 x double]* %pfx, i64 0, i64 0
  %28 = getelementptr inbounds [8 x double], [8 x double]* %pfy, i64 0, i64 0
  %29 = getelementptr inbounds [8 x double], [8 x double]* %pfz, i64 0, i64 0
  %30 = sext i32 %2 to i64
  br label %32

._crit_edge.loopexit:                             ; preds = %80
  br label %._crit_edge

._crit_edge:                                      ; preds = %._crit_edge.loopexit, %0
  %31 = fcmp ogt double %hgcoef, 0.000000e+00
  br i1 %31, label %82, label %83

; <label>:32                                      ; preds = %80, %.lr.ph
  %indvars.iv3 = phi i64 [ 0, %.lr.ph ], [ %indvars.iv.next4, %80 ]
  call void @llvm.lifetime.start(i64 64, i8* %18) #2
  call void @llvm.lifetime.start(i64 64, i8* %19) #2
  call void @llvm.lifetime.start(i64 64, i8* %20) #2
  call void @llvm.lifetime.start(i64 64, i8* %21) #2
  call void @llvm.lifetime.start(i64 64, i8* %22) #2
  call void @llvm.lifetime.start(i64 64, i8* %23) #2
  %33 = trunc i64 %indvars.iv3 to i32
  %34 = tail call i32* @_ZN6Domain8nodelistEi(%class.Domain* nonnull %domain, i32 %33)
  call fastcc void @_ZL29CollectDomainNodesToElemNodesR6DomainPKiPdS3_S3_(%class.Domain* nonnull dereferenceable(1456) %domain, i32* nonnull %34, double* %24, double* %25, double* %26)
  call fastcc void @_ZL24CalcElemVolumeDerivativePdS_S_PKdS1_S1_(double* %27, double* %28, double* %29, double* %24, double* %25, double* %26)
  %35 = shl i32 %33, 3
  %36 = sext i32 %35 to i64
  br label %47

; <label>:37                                      ; preds = %47
  %38 = tail call dereferenceable(8) double* @_ZN6Domain4voloEi(%class.Domain* nonnull %domain, i32 %33)
  %39 = load double, double* %38, align 8, !tbaa !1
  %40 = tail call dereferenceable(8) double* @_ZN6Domain1vEi(%class.Domain* nonnull %domain, i32 %33)
  %41 = load double, double* %40, align 8, !tbaa !1
  %42 = fmul double %39, %41
  %43 = getelementptr inbounds double, double* %determ, i64 %indvars.iv3
  store double %42, double* %43, align 8, !tbaa !1
  %44 = tail call dereferenceable(8) double* @_ZN6Domain1vEi(%class.Domain* nonnull %domain, i32 %33)
  %45 = load double, double* %44, align 8, !tbaa !1
  %46 = fcmp ugt double %45, 0.000000e+00
  br i1 %46, label %80, label %79

; <label>:47                                      ; preds = %47, %32
  %indvars.iv = phi i64 [ 0, %32 ], [ %indvars.iv.next, %47 ]
  %48 = add nsw i64 %indvars.iv, %36
  %49 = getelementptr inbounds [8 x double], [8 x double]* %pfx, i64 0, i64 %indvars.iv
  %50 = bitcast double* %49 to i64*
  %51 = load i64, i64* %50, align 8, !tbaa !1
  %52 = getelementptr inbounds double, double* %6, i64 %48
  %53 = bitcast double* %52 to i64*
  store i64 %51, i64* %53, align 8, !tbaa !1
  %54 = getelementptr inbounds [8 x double], [8 x double]* %pfy, i64 0, i64 %indvars.iv
  %55 = bitcast double* %54 to i64*
  %56 = load i64, i64* %55, align 8, !tbaa !1
  %57 = getelementptr inbounds double, double* %8, i64 %48
  %58 = bitcast double* %57 to i64*
  store i64 %56, i64* %58, align 8, !tbaa !1
  %59 = getelementptr inbounds [8 x double], [8 x double]* %pfz, i64 0, i64 %indvars.iv
  %60 = bitcast double* %59 to i64*
  %61 = load i64, i64* %60, align 8, !tbaa !1
  %62 = getelementptr inbounds double, double* %10, i64 %48
  %63 = bitcast double* %62 to i64*
  store i64 %61, i64* %63, align 8, !tbaa !1
  %64 = getelementptr inbounds [8 x double], [8 x double]* %x1, i64 0, i64 %indvars.iv
  %65 = bitcast double* %64 to i64*
  %66 = load i64, i64* %65, align 8, !tbaa !1
  %67 = getelementptr inbounds double, double* %12, i64 %48
  %68 = bitcast double* %67 to i64*
  store i64 %66, i64* %68, align 8, !tbaa !1
  %69 = getelementptr inbounds [8 x double], [8 x double]* %y1, i64 0, i64 %indvars.iv
  %70 = bitcast double* %69 to i64*
  %71 = load i64, i64* %70, align 8, !tbaa !1
  %72 = getelementptr inbounds double, double* %14, i64 %48
  %73 = bitcast double* %72 to i64*
  store i64 %71, i64* %73, align 8, !tbaa !1
  %74 = getelementptr inbounds [8 x double], [8 x double]* %z1, i64 0, i64 %indvars.iv
  %75 = bitcast double* %74 to i64*
  %76 = load i64, i64* %75, align 8, !tbaa !1
  %77 = getelementptr inbounds double, double* %16, i64 %48
  %78 = bitcast double* %77 to i64*
  store i64 %76, i64* %78, align 8, !tbaa !1
  %indvars.iv.next = add nuw nsw i64 %indvars.iv, 1
  %exitcond = icmp eq i64 %indvars.iv.next, 8
  br i1 %exitcond, label %37, label %47

; <label>:79                                      ; preds = %37
  tail call void @exit(i32 -1) #26
  unreachable

; <label>:80                                      ; preds = %37
  call void @llvm.lifetime.end(i64 64, i8* nonnull %23) #2
  call void @llvm.lifetime.end(i64 64, i8* nonnull %22) #2
  call void @llvm.lifetime.end(i64 64, i8* nonnull %21) #2
  call void @llvm.lifetime.end(i64 64, i8* nonnull %20) #2
  call void @llvm.lifetime.end(i64 64, i8* nonnull %19) #2
  call void @llvm.lifetime.end(i64 64, i8* nonnull %18) #2
  %indvars.iv.next4 = add nuw nsw i64 %indvars.iv3, 1
  %81 = icmp slt i64 %indvars.iv.next4, %30
  br i1 %81, label %32, label %._crit_edge.loopexit

; <label>:82                                      ; preds = %._crit_edge
  tail call fastcc void @_ZL28CalcFBHourglassForceForElemsR6DomainPdS1_S1_S1_S1_S1_S1_dii(%class.Domain* nonnull dereferenceable(1456) %domain, double* %determ, double* %12, double* %14, double* %16, double* %6, double* %8, double* %10, double %hgcoef, i32 %2)
  br label %83

; <label>:83                                      ; preds = %82, %._crit_edge
  call void @_Z7ReleaseIdEvPPT_(double** nonnull %z8n)
  call void @_Z7ReleaseIdEvPPT_(double** nonnull %y8n)
  call void @_Z7ReleaseIdEvPPT_(double** nonnull %x8n)
  call void @_Z7ReleaseIdEvPPT_(double** nonnull %dvdz)
  call void @_Z7ReleaseIdEvPPT_(double** nonnull %dvdy)
  call void @_Z7ReleaseIdEvPPT_(double** nonnull %dvdx)
  call void @llvm.lifetime.end(i64 8, i8* %15) #2
  call void @llvm.lifetime.end(i64 8, i8* %13) #2
  call void @llvm.lifetime.end(i64 8, i8* %11) #2
  call void @llvm.lifetime.end(i64 8, i8* %9) #2
  call void @llvm.lifetime.end(i64 8, i8* %7) #2
  call void @llvm.lifetime.end(i64 8, i8* %4) #2
  ret void
}

; Function Attrs: inlinehint norecurse nounwind uwtable
define internal fastcc void @_ZL24CalcElemVolumeDerivativePdS_S_PKdS1_S1_(double* nocapture %dvdx, double* nocapture %dvdy, double* nocapture %dvdz, double* nocapture readonly %x, double* nocapture readonly %y, double* nocapture readonly %z) unnamed_addr #7 {
  %1 = getelementptr inbounds double, double* %x, i64 1
  %2 = load double, double* %1, align 8, !tbaa !1
  %3 = getelementptr inbounds double, double* %x, i64 2
  %4 = load double, double* %3, align 8, !tbaa !1
  %5 = getelementptr inbounds double, double* %x, i64 3
  %6 = load double, double* %5, align 8, !tbaa !1
  %7 = getelementptr inbounds double, double* %x, i64 4
  %8 = load double, double* %7, align 8, !tbaa !1
  %9 = getelementptr inbounds double, double* %x, i64 5
  %10 = load double, double* %9, align 8, !tbaa !1
  %11 = getelementptr inbounds double, double* %x, i64 7
  %12 = load double, double* %11, align 8, !tbaa !1
  %13 = getelementptr inbounds double, double* %y, i64 1
  %14 = load double, double* %13, align 8, !tbaa !1
  %15 = getelementptr inbounds double, double* %y, i64 2
  %16 = load double, double* %15, align 8, !tbaa !1
  %17 = getelementptr inbounds double, double* %y, i64 3
  %18 = load double, double* %17, align 8, !tbaa !1
  %19 = getelementptr inbounds double, double* %y, i64 4
  %20 = load double, double* %19, align 8, !tbaa !1
  %21 = getelementptr inbounds double, double* %y, i64 5
  %22 = load double, double* %21, align 8, !tbaa !1
  %23 = getelementptr inbounds double, double* %y, i64 7
  %24 = load double, double* %23, align 8, !tbaa !1
  %25 = getelementptr inbounds double, double* %z, i64 1
  %26 = load double, double* %25, align 8, !tbaa !1
  %27 = getelementptr inbounds double, double* %z, i64 2
  %28 = load double, double* %27, align 8, !tbaa !1
  %29 = getelementptr inbounds double, double* %z, i64 3
  %30 = load double, double* %29, align 8, !tbaa !1
  %31 = getelementptr inbounds double, double* %z, i64 4
  %32 = load double, double* %31, align 8, !tbaa !1
  %33 = getelementptr inbounds double, double* %z, i64 5
  %34 = load double, double* %33, align 8, !tbaa !1
  %35 = getelementptr inbounds double, double* %z, i64 7
  %36 = load double, double* %35, align 8, !tbaa !1
  tail call fastcc void @_ZL7VoluDerddddddddddddddddddPdS_S_(double %2, double %4, double %6, double %8, double %10, double %12, double %14, double %16, double %18, double %20, double %22, double %24, double %26, double %28, double %30, double %32, double %34, double %36, double* %dvdx, double* %dvdy, double* %dvdz)
  %37 = load double, double* %x, align 8, !tbaa !1
  %38 = load double, double* %1, align 8, !tbaa !1
  %39 = load double, double* %3, align 8, !tbaa !1
  %40 = load double, double* %11, align 8, !tbaa !1
  %41 = load double, double* %7, align 8, !tbaa !1
  %42 = getelementptr inbounds double, double* %x, i64 6
  %43 = load double, double* %42, align 8, !tbaa !1
  %44 = load double, double* %y, align 8, !tbaa !1
  %45 = load double, double* %13, align 8, !tbaa !1
  %46 = load double, double* %15, align 8, !tbaa !1
  %47 = load double, double* %23, align 8, !tbaa !1
  %48 = load double, double* %19, align 8, !tbaa !1
  %49 = getelementptr inbounds double, double* %y, i64 6
  %50 = load double, double* %49, align 8, !tbaa !1
  %51 = load double, double* %z, align 8, !tbaa !1
  %52 = load double, double* %25, align 8, !tbaa !1
  %53 = load double, double* %27, align 8, !tbaa !1
  %54 = load double, double* %35, align 8, !tbaa !1
  %55 = load double, double* %31, align 8, !tbaa !1
  %56 = getelementptr inbounds double, double* %z, i64 6
  %57 = load double, double* %56, align 8, !tbaa !1
  %58 = getelementptr inbounds double, double* %dvdx, i64 3
  %59 = getelementptr inbounds double, double* %dvdy, i64 3
  %60 = getelementptr inbounds double, double* %dvdz, i64 3
  tail call fastcc void @_ZL7VoluDerddddddddddddddddddPdS_S_(double %37, double %38, double %39, double %40, double %41, double %43, double %44, double %45, double %46, double %47, double %48, double %50, double %51, double %52, double %53, double %54, double %55, double %57, double* %58, double* %59, double* %60)
  %61 = load double, double* %5, align 8, !tbaa !1
  %62 = load double, double* %x, align 8, !tbaa !1
  %63 = load double, double* %1, align 8, !tbaa !1
  %64 = load double, double* %42, align 8, !tbaa !1
  %65 = load double, double* %11, align 8, !tbaa !1
  %66 = load double, double* %9, align 8, !tbaa !1
  %67 = load double, double* %17, align 8, !tbaa !1
  %68 = load double, double* %y, align 8, !tbaa !1
  %69 = load double, double* %13, align 8, !tbaa !1
  %70 = load double, double* %49, align 8, !tbaa !1
  %71 = load double, double* %23, align 8, !tbaa !1
  %72 = load double, double* %21, align 8, !tbaa !1
  %73 = load double, double* %29, align 8, !tbaa !1
  %74 = load double, double* %z, align 8, !tbaa !1
  %75 = load double, double* %25, align 8, !tbaa !1
  %76 = load double, double* %56, align 8, !tbaa !1
  %77 = load double, double* %35, align 8, !tbaa !1
  %78 = load double, double* %33, align 8, !tbaa !1
  %79 = getelementptr inbounds double, double* %dvdx, i64 2
  %80 = getelementptr inbounds double, double* %dvdy, i64 2
  %81 = getelementptr inbounds double, double* %dvdz, i64 2
  tail call fastcc void @_ZL7VoluDerddddddddddddddddddPdS_S_(double %61, double %62, double %63, double %64, double %65, double %66, double %67, double %68, double %69, double %70, double %71, double %72, double %73, double %74, double %75, double %76, double %77, double %78, double* %79, double* %80, double* %81)
  %82 = load double, double* %3, align 8, !tbaa !1
  %83 = load double, double* %5, align 8, !tbaa !1
  %84 = load double, double* %x, align 8, !tbaa !1
  %85 = load double, double* %9, align 8, !tbaa !1
  %86 = load double, double* %42, align 8, !tbaa !1
  %87 = load double, double* %7, align 8, !tbaa !1
  %88 = load double, double* %15, align 8, !tbaa !1
  %89 = load double, double* %17, align 8, !tbaa !1
  %90 = load double, double* %y, align 8, !tbaa !1
  %91 = load double, double* %21, align 8, !tbaa !1
  %92 = load double, double* %49, align 8, !tbaa !1
  %93 = load double, double* %19, align 8, !tbaa !1
  %94 = load double, double* %27, align 8, !tbaa !1
  %95 = load double, double* %29, align 8, !tbaa !1
  %96 = load double, double* %z, align 8, !tbaa !1
  %97 = load double, double* %33, align 8, !tbaa !1
  %98 = load double, double* %56, align 8, !tbaa !1
  %99 = load double, double* %31, align 8, !tbaa !1
  %100 = getelementptr inbounds double, double* %dvdx, i64 1
  %101 = getelementptr inbounds double, double* %dvdy, i64 1
  %102 = getelementptr inbounds double, double* %dvdz, i64 1
  tail call fastcc void @_ZL7VoluDerddddddddddddddddddPdS_S_(double %82, double %83, double %84, double %85, double %86, double %87, double %88, double %89, double %90, double %91, double %92, double %93, double %94, double %95, double %96, double %97, double %98, double %99, double* %100, double* %101, double* %102)
  %103 = load double, double* %11, align 8, !tbaa !1
  %104 = load double, double* %42, align 8, !tbaa !1
  %105 = load double, double* %9, align 8, !tbaa !1
  %106 = load double, double* %x, align 8, !tbaa !1
  %107 = load double, double* %5, align 8, !tbaa !1
  %108 = load double, double* %1, align 8, !tbaa !1
  %109 = load double, double* %23, align 8, !tbaa !1
  %110 = load double, double* %49, align 8, !tbaa !1
  %111 = load double, double* %21, align 8, !tbaa !1
  %112 = load double, double* %y, align 8, !tbaa !1
  %113 = load double, double* %17, align 8, !tbaa !1
  %114 = load double, double* %13, align 8, !tbaa !1
  %115 = load double, double* %35, align 8, !tbaa !1
  %116 = load double, double* %56, align 8, !tbaa !1
  %117 = load double, double* %33, align 8, !tbaa !1
  %118 = load double, double* %z, align 8, !tbaa !1
  %119 = load double, double* %29, align 8, !tbaa !1
  %120 = load double, double* %25, align 8, !tbaa !1
  %121 = getelementptr inbounds double, double* %dvdx, i64 4
  %122 = getelementptr inbounds double, double* %dvdy, i64 4
  %123 = getelementptr inbounds double, double* %dvdz, i64 4
  tail call fastcc void @_ZL7VoluDerddddddddddddddddddPdS_S_(double %103, double %104, double %105, double %106, double %107, double %108, double %109, double %110, double %111, double %112, double %113, double %114, double %115, double %116, double %117, double %118, double %119, double %120, double* %121, double* %122, double* %123)
  %124 = load double, double* %7, align 8, !tbaa !1
  %125 = load double, double* %11, align 8, !tbaa !1
  %126 = load double, double* %42, align 8, !tbaa !1
  %127 = load double, double* %1, align 8, !tbaa !1
  %128 = load double, double* %x, align 8, !tbaa !1
  %129 = load double, double* %3, align 8, !tbaa !1
  %130 = load double, double* %19, align 8, !tbaa !1
  %131 = load double, double* %23, align 8, !tbaa !1
  %132 = load double, double* %49, align 8, !tbaa !1
  %133 = load double, double* %13, align 8, !tbaa !1
  %134 = load double, double* %y, align 8, !tbaa !1
  %135 = load double, double* %15, align 8, !tbaa !1
  %136 = load double, double* %31, align 8, !tbaa !1
  %137 = load double, double* %35, align 8, !tbaa !1
  %138 = load double, double* %56, align 8, !tbaa !1
  %139 = load double, double* %25, align 8, !tbaa !1
  %140 = load double, double* %z, align 8, !tbaa !1
  %141 = load double, double* %27, align 8, !tbaa !1
  %142 = getelementptr inbounds double, double* %dvdx, i64 5
  %143 = getelementptr inbounds double, double* %dvdy, i64 5
  %144 = getelementptr inbounds double, double* %dvdz, i64 5
  tail call fastcc void @_ZL7VoluDerddddddddddddddddddPdS_S_(double %124, double %125, double %126, double %127, double %128, double %129, double %130, double %131, double %132, double %133, double %134, double %135, double %136, double %137, double %138, double %139, double %140, double %141, double* %142, double* %143, double* %144)
  %145 = load double, double* %9, align 8, !tbaa !1
  %146 = load double, double* %7, align 8, !tbaa !1
  %147 = load double, double* %11, align 8, !tbaa !1
  %148 = load double, double* %3, align 8, !tbaa !1
  %149 = load double, double* %1, align 8, !tbaa !1
  %150 = load double, double* %5, align 8, !tbaa !1
  %151 = load double, double* %21, align 8, !tbaa !1
  %152 = load double, double* %19, align 8, !tbaa !1
  %153 = load double, double* %23, align 8, !tbaa !1
  %154 = load double, double* %15, align 8, !tbaa !1
  %155 = load double, double* %13, align 8, !tbaa !1
  %156 = load double, double* %17, align 8, !tbaa !1
  %157 = load double, double* %33, align 8, !tbaa !1
  %158 = load double, double* %31, align 8, !tbaa !1
  %159 = load double, double* %35, align 8, !tbaa !1
  %160 = load double, double* %27, align 8, !tbaa !1
  %161 = load double, double* %25, align 8, !tbaa !1
  %162 = load double, double* %29, align 8, !tbaa !1
  %163 = getelementptr inbounds double, double* %dvdx, i64 6
  %164 = getelementptr inbounds double, double* %dvdy, i64 6
  %165 = getelementptr inbounds double, double* %dvdz, i64 6
  tail call fastcc void @_ZL7VoluDerddddddddddddddddddPdS_S_(double %145, double %146, double %147, double %148, double %149, double %150, double %151, double %152, double %153, double %154, double %155, double %156, double %157, double %158, double %159, double %160, double %161, double %162, double* %163, double* %164, double* %165)
  %166 = load double, double* %42, align 8, !tbaa !1
  %167 = load double, double* %9, align 8, !tbaa !1
  %168 = load double, double* %7, align 8, !tbaa !1
  %169 = load double, double* %5, align 8, !tbaa !1
  %170 = load double, double* %3, align 8, !tbaa !1
  %171 = load double, double* %x, align 8, !tbaa !1
  %172 = load double, double* %49, align 8, !tbaa !1
  %173 = load double, double* %21, align 8, !tbaa !1
  %174 = load double, double* %19, align 8, !tbaa !1
  %175 = load double, double* %17, align 8, !tbaa !1
  %176 = load double, double* %15, align 8, !tbaa !1
  %177 = load double, double* %y, align 8, !tbaa !1
  %178 = load double, double* %56, align 8, !tbaa !1
  %179 = load double, double* %33, align 8, !tbaa !1
  %180 = load double, double* %31, align 8, !tbaa !1
  %181 = load double, double* %29, align 8, !tbaa !1
  %182 = load double, double* %27, align 8, !tbaa !1
  %183 = load double, double* %z, align 8, !tbaa !1
  %184 = getelementptr inbounds double, double* %dvdx, i64 7
  %185 = getelementptr inbounds double, double* %dvdy, i64 7
  %186 = getelementptr inbounds double, double* %dvdz, i64 7
  tail call fastcc void @_ZL7VoluDerddddddddddddddddddPdS_S_(double %166, double %167, double %168, double %169, double %170, double %171, double %172, double %173, double %174, double %175, double %176, double %177, double %178, double %179, double %180, double %181, double %182, double %183, double* %184, double* %185, double* %186)
  ret void
}

; Function Attrs: inlinehint norecurse nounwind uwtable
define internal fastcc void @_ZL7VoluDerddddddddddddddddddPdS_S_(double %x0, double %x1, double %x2, double %x3, double %x4, double %x5, double %y0, double %y1, double %y2, double %y3, double %y4, double %y5, double %z0, double %z1, double %z2, double %z3, double %z4, double %z5, double* nocapture %dvdx, double* nocapture %dvdy, double* nocapture %dvdz) unnamed_addr #7 {
  %1 = fadd double %y1, %y2
  %2 = fadd double %z0, %z1
  %3 = fmul double %1, %2
  %4 = fadd double %y0, %y1
  %5 = fadd double %z1, %z2
  %6 = fmul double %4, %5
  %7 = fsub double %3, %6
  %8 = fadd double %y0, %y4
  %9 = fadd double %z3, %z4
  %10 = fmul double %8, %9
  %11 = fadd double %7, %10
  %12 = fadd double %y3, %y4
  %13 = fadd double %z0, %z4
  %14 = fmul double %12, %13
  %15 = fsub double %11, %14
  %16 = fadd double %y2, %y5
  %17 = fadd double %z3, %z5
  %18 = fmul double %16, %17
  %19 = fsub double %15, %18
  %20 = fadd double %y3, %y5
  %21 = fadd double %z2, %z5
  %22 = fmul double %20, %21
  %23 = fadd double %22, %19
  store double %23, double* %dvdx, align 8, !tbaa !1
  %24 = fadd double %x1, %x2
  %25 = fmul double %24, %2
  %26 = fadd double %x0, %x1
  %27 = fmul double %26, %5
  %28 = fsub double %27, %25
  %29 = fadd double %x0, %x4
  %30 = fmul double %29, %9
  %31 = fsub double %28, %30
  %32 = fadd double %x3, %x4
  %33 = fmul double %32, %13
  %34 = fadd double %33, %31
  %35 = fadd double %x2, %x5
  %36 = fmul double %35, %17
  %37 = fadd double %36, %34
  %38 = fadd double %x3, %x5
  %39 = fmul double %38, %21
  %40 = fsub double %37, %39
  store double %40, double* %dvdy, align 8, !tbaa !1
  %41 = fmul double %26, %1
  %42 = fmul double %24, %4
  %43 = fsub double %42, %41
  %44 = fmul double %32, %8
  %45 = fsub double %43, %44
  %46 = fmul double %29, %12
  %47 = fadd double %46, %45
  %48 = fmul double %38, %16
  %49 = fadd double %48, %47
  %50 = fmul double %35, %20
  %51 = fsub double %49, %50
  store double %51, double* %dvdz, align 8, !tbaa !1
  %52 = load double, double* %dvdx, align 8, !tbaa !1
  %53 = fmul double %52, 0x3FB5555555555555
  store double %53, double* %dvdx, align 8, !tbaa !1
  %54 = load double, double* %dvdy, align 8, !tbaa !1
  %55 = fmul double %54, 0x3FB5555555555555
  store double %55, double* %dvdy, align 8, !tbaa !1
  %56 = load double, double* %dvdz, align 8, !tbaa !1
  %57 = fmul double %56, 0x3FB5555555555555
  store double %57, double* %dvdz, align 8, !tbaa !1
  ret void
}

; Function Attrs: noreturn nounwind
declare void @exit(i32) #15

; Function Attrs: inlinehint norecurse nounwind uwtable
define internal fastcc void @_ZL28CalcFBHourglassForceForElemsR6DomainPdS1_S1_S1_S1_S1_S1_dii(%class.Domain* readonly dereferenceable(1456) %domain, double* nocapture readonly %determ, double* nocapture readonly %x8n, double* nocapture readonly %y8n, double* nocapture readonly %z8n, double* nocapture readonly %dvdx, double* nocapture readonly %dvdy, double* nocapture readonly %dvdz, double %hourg, i32 %numElem) unnamed_addr #7 {
  %gamma = alloca [4 x [8 x double]], align 16
  %hgfx = alloca [8 x double], align 16
  %hgfy = alloca [8 x double], align 16
  %hgfz = alloca [8 x double], align 16
  %hourgam = alloca [8 x [4 x double]], align 16
  %xd1 = alloca [8 x double], align 16
  %yd1 = alloca [8 x double], align 16
  %zd1 = alloca [8 x double], align 16
  %1 = bitcast [4 x [8 x double]]* %gamma to i8*
  call void @llvm.lifetime.start(i64 256, i8* %1) #2
  %2 = getelementptr inbounds [4 x [8 x double]], [4 x [8 x double]]* %gamma, i64 0, i64 0, i64 0
  store double 1.000000e+00, double* %2, align 16, !tbaa !1
  %3 = getelementptr inbounds [4 x [8 x double]], [4 x [8 x double]]* %gamma, i64 0, i64 0, i64 1
  store double 1.000000e+00, double* %3, align 8, !tbaa !1
  %4 = getelementptr inbounds [4 x [8 x double]], [4 x [8 x double]]* %gamma, i64 0, i64 0, i64 2
  store double -1.000000e+00, double* %4, align 16, !tbaa !1
  %5 = getelementptr inbounds [4 x [8 x double]], [4 x [8 x double]]* %gamma, i64 0, i64 0, i64 3
  store double -1.000000e+00, double* %5, align 8, !tbaa !1
  %6 = getelementptr inbounds [4 x [8 x double]], [4 x [8 x double]]* %gamma, i64 0, i64 0, i64 4
  store double -1.000000e+00, double* %6, align 16, !tbaa !1
  %7 = getelementptr inbounds [4 x [8 x double]], [4 x [8 x double]]* %gamma, i64 0, i64 0, i64 5
  store double -1.000000e+00, double* %7, align 8, !tbaa !1
  %8 = getelementptr inbounds [4 x [8 x double]], [4 x [8 x double]]* %gamma, i64 0, i64 0, i64 6
  store double 1.000000e+00, double* %8, align 16, !tbaa !1
  %9 = getelementptr inbounds [4 x [8 x double]], [4 x [8 x double]]* %gamma, i64 0, i64 0, i64 7
  store double 1.000000e+00, double* %9, align 8, !tbaa !1
  %10 = getelementptr inbounds [4 x [8 x double]], [4 x [8 x double]]* %gamma, i64 0, i64 1, i64 0
  store double 1.000000e+00, double* %10, align 16, !tbaa !1
  %11 = getelementptr inbounds [4 x [8 x double]], [4 x [8 x double]]* %gamma, i64 0, i64 1, i64 1
  store double -1.000000e+00, double* %11, align 8, !tbaa !1
  %12 = getelementptr inbounds [4 x [8 x double]], [4 x [8 x double]]* %gamma, i64 0, i64 1, i64 2
  store double -1.000000e+00, double* %12, align 16, !tbaa !1
  %13 = getelementptr inbounds [4 x [8 x double]], [4 x [8 x double]]* %gamma, i64 0, i64 1, i64 3
  store double 1.000000e+00, double* %13, align 8, !tbaa !1
  %14 = getelementptr inbounds [4 x [8 x double]], [4 x [8 x double]]* %gamma, i64 0, i64 1, i64 4
  store double -1.000000e+00, double* %14, align 16, !tbaa !1
  %15 = getelementptr inbounds [4 x [8 x double]], [4 x [8 x double]]* %gamma, i64 0, i64 1, i64 5
  store double 1.000000e+00, double* %15, align 8, !tbaa !1
  %16 = getelementptr inbounds [4 x [8 x double]], [4 x [8 x double]]* %gamma, i64 0, i64 1, i64 6
  store double 1.000000e+00, double* %16, align 16, !tbaa !1
  %17 = getelementptr inbounds [4 x [8 x double]], [4 x [8 x double]]* %gamma, i64 0, i64 1, i64 7
  store double -1.000000e+00, double* %17, align 8, !tbaa !1
  %18 = getelementptr inbounds [4 x [8 x double]], [4 x [8 x double]]* %gamma, i64 0, i64 2, i64 0
  store double 1.000000e+00, double* %18, align 16, !tbaa !1
  %19 = getelementptr inbounds [4 x [8 x double]], [4 x [8 x double]]* %gamma, i64 0, i64 2, i64 1
  store double -1.000000e+00, double* %19, align 8, !tbaa !1
  %20 = getelementptr inbounds [4 x [8 x double]], [4 x [8 x double]]* %gamma, i64 0, i64 2, i64 2
  store double 1.000000e+00, double* %20, align 16, !tbaa !1
  %21 = getelementptr inbounds [4 x [8 x double]], [4 x [8 x double]]* %gamma, i64 0, i64 2, i64 3
  store double -1.000000e+00, double* %21, align 8, !tbaa !1
  %22 = getelementptr inbounds [4 x [8 x double]], [4 x [8 x double]]* %gamma, i64 0, i64 2, i64 4
  store double 1.000000e+00, double* %22, align 16, !tbaa !1
  %23 = getelementptr inbounds [4 x [8 x double]], [4 x [8 x double]]* %gamma, i64 0, i64 2, i64 5
  store double -1.000000e+00, double* %23, align 8, !tbaa !1
  %24 = getelementptr inbounds [4 x [8 x double]], [4 x [8 x double]]* %gamma, i64 0, i64 2, i64 6
  store double 1.000000e+00, double* %24, align 16, !tbaa !1
  %25 = getelementptr inbounds [4 x [8 x double]], [4 x [8 x double]]* %gamma, i64 0, i64 2, i64 7
  store double -1.000000e+00, double* %25, align 8, !tbaa !1
  %26 = getelementptr inbounds [4 x [8 x double]], [4 x [8 x double]]* %gamma, i64 0, i64 3, i64 0
  store double -1.000000e+00, double* %26, align 16, !tbaa !1
  %27 = getelementptr inbounds [4 x [8 x double]], [4 x [8 x double]]* %gamma, i64 0, i64 3, i64 1
  store double 1.000000e+00, double* %27, align 8, !tbaa !1
  %28 = getelementptr inbounds [4 x [8 x double]], [4 x [8 x double]]* %gamma, i64 0, i64 3, i64 2
  store double -1.000000e+00, double* %28, align 16, !tbaa !1
  %29 = getelementptr inbounds [4 x [8 x double]], [4 x [8 x double]]* %gamma, i64 0, i64 3, i64 3
  store double 1.000000e+00, double* %29, align 8, !tbaa !1
  %30 = getelementptr inbounds [4 x [8 x double]], [4 x [8 x double]]* %gamma, i64 0, i64 3, i64 4
  store double 1.000000e+00, double* %30, align 16, !tbaa !1
  %31 = getelementptr inbounds [4 x [8 x double]], [4 x [8 x double]]* %gamma, i64 0, i64 3, i64 5
  store double -1.000000e+00, double* %31, align 8, !tbaa !1
  %32 = getelementptr inbounds [4 x [8 x double]], [4 x [8 x double]]* %gamma, i64 0, i64 3, i64 6
  store double 1.000000e+00, double* %32, align 16, !tbaa !1
  %33 = getelementptr inbounds [4 x [8 x double]], [4 x [8 x double]]* %gamma, i64 0, i64 3, i64 7
  store double -1.000000e+00, double* %33, align 8, !tbaa !1
  %34 = icmp sgt i32 %numElem, 0
  br i1 %34, label %.lr.ph, label %._crit_edge

.lr.ph:                                           ; preds = %0
  %35 = bitcast [8 x double]* %hgfx to i8*
  %36 = bitcast [8 x double]* %hgfy to i8*
  %37 = bitcast [8 x double]* %hgfz to i8*
  %38 = bitcast [8 x [4 x double]]* %hourgam to i8*
  %39 = bitcast [8 x double]* %xd1 to i8*
  %40 = bitcast [8 x double]* %yd1 to i8*
  %41 = bitcast [8 x double]* %zd1 to i8*
  %42 = bitcast [8 x double]* %xd1 to i64*
  %43 = getelementptr inbounds [8 x double], [8 x double]* %xd1, i64 0, i64 1
  %44 = bitcast double* %43 to i64*
  %45 = getelementptr inbounds [8 x double], [8 x double]* %xd1, i64 0, i64 2
  %46 = bitcast double* %45 to i64*
  %47 = getelementptr inbounds [8 x double], [8 x double]* %xd1, i64 0, i64 3
  %48 = bitcast double* %47 to i64*
  %49 = getelementptr inbounds [8 x double], [8 x double]* %xd1, i64 0, i64 4
  %50 = bitcast double* %49 to i64*
  %51 = getelementptr inbounds [8 x double], [8 x double]* %xd1, i64 0, i64 5
  %52 = bitcast double* %51 to i64*
  %53 = getelementptr inbounds [8 x double], [8 x double]* %xd1, i64 0, i64 6
  %54 = bitcast double* %53 to i64*
  %55 = getelementptr inbounds [8 x double], [8 x double]* %xd1, i64 0, i64 7
  %56 = bitcast double* %55 to i64*
  %57 = bitcast [8 x double]* %yd1 to i64*
  %58 = getelementptr inbounds [8 x double], [8 x double]* %yd1, i64 0, i64 1
  %59 = bitcast double* %58 to i64*
  %60 = getelementptr inbounds [8 x double], [8 x double]* %yd1, i64 0, i64 2
  %61 = bitcast double* %60 to i64*
  %62 = getelementptr inbounds [8 x double], [8 x double]* %yd1, i64 0, i64 3
  %63 = bitcast double* %62 to i64*
  %64 = getelementptr inbounds [8 x double], [8 x double]* %yd1, i64 0, i64 4
  %65 = bitcast double* %64 to i64*
  %66 = getelementptr inbounds [8 x double], [8 x double]* %yd1, i64 0, i64 5
  %67 = bitcast double* %66 to i64*
  %68 = getelementptr inbounds [8 x double], [8 x double]* %yd1, i64 0, i64 6
  %69 = bitcast double* %68 to i64*
  %70 = getelementptr inbounds [8 x double], [8 x double]* %yd1, i64 0, i64 7
  %71 = bitcast double* %70 to i64*
  %72 = bitcast [8 x double]* %zd1 to i64*
  %73 = getelementptr inbounds [8 x double], [8 x double]* %zd1, i64 0, i64 1
  %74 = bitcast double* %73 to i64*
  %75 = getelementptr inbounds [8 x double], [8 x double]* %zd1, i64 0, i64 2
  %76 = bitcast double* %75 to i64*
  %77 = getelementptr inbounds [8 x double], [8 x double]* %zd1, i64 0, i64 3
  %78 = bitcast double* %77 to i64*
  %79 = getelementptr inbounds [8 x double], [8 x double]* %zd1, i64 0, i64 4
  %80 = bitcast double* %79 to i64*
  %81 = getelementptr inbounds [8 x double], [8 x double]* %zd1, i64 0, i64 5
  %82 = bitcast double* %81 to i64*
  %83 = getelementptr inbounds [8 x double], [8 x double]* %zd1, i64 0, i64 6
  %84 = bitcast double* %83 to i64*
  %85 = getelementptr inbounds [8 x double], [8 x double]* %zd1, i64 0, i64 7
  %86 = bitcast double* %85 to i64*
  %87 = fmul double %hourg, -1.000000e-02
  %88 = getelementptr inbounds [8 x double], [8 x double]* %xd1, i64 0, i64 0
  %89 = getelementptr inbounds [8 x double], [8 x double]* %yd1, i64 0, i64 0
  %90 = getelementptr inbounds [8 x double], [8 x double]* %zd1, i64 0, i64 0
  %91 = getelementptr inbounds [8 x [4 x double]], [8 x [4 x double]]* %hourgam, i64 0, i64 0
  %92 = getelementptr inbounds [8 x double], [8 x double]* %hgfx, i64 0, i64 0
  %93 = getelementptr inbounds [8 x double], [8 x double]* %hgfy, i64 0, i64 0
  %94 = getelementptr inbounds [8 x double], [8 x double]* %hgfz, i64 0, i64 0
  %95 = getelementptr inbounds [8 x double], [8 x double]* %hgfx, i64 0, i64 1
  %96 = getelementptr inbounds [8 x double], [8 x double]* %hgfy, i64 0, i64 1
  %97 = getelementptr inbounds [8 x double], [8 x double]* %hgfz, i64 0, i64 1
  %98 = getelementptr inbounds [8 x double], [8 x double]* %hgfx, i64 0, i64 2
  %99 = getelementptr inbounds [8 x double], [8 x double]* %hgfy, i64 0, i64 2
  %100 = getelementptr inbounds [8 x double], [8 x double]* %hgfz, i64 0, i64 2
  %101 = getelementptr inbounds [8 x double], [8 x double]* %hgfx, i64 0, i64 3
  %102 = getelementptr inbounds [8 x double], [8 x double]* %hgfy, i64 0, i64 3
  %103 = getelementptr inbounds [8 x double], [8 x double]* %hgfz, i64 0, i64 3
  %104 = getelementptr inbounds [8 x double], [8 x double]* %hgfx, i64 0, i64 4
  %105 = getelementptr inbounds [8 x double], [8 x double]* %hgfy, i64 0, i64 4
  %106 = getelementptr inbounds [8 x double], [8 x double]* %hgfz, i64 0, i64 4
  %107 = getelementptr inbounds [8 x double], [8 x double]* %hgfx, i64 0, i64 5
  %108 = getelementptr inbounds [8 x double], [8 x double]* %hgfy, i64 0, i64 5
  %109 = getelementptr inbounds [8 x double], [8 x double]* %hgfz, i64 0, i64 5
  %110 = getelementptr inbounds [8 x double], [8 x double]* %hgfx, i64 0, i64 6
  %111 = getelementptr inbounds [8 x double], [8 x double]* %hgfy, i64 0, i64 6
  %112 = getelementptr inbounds [8 x double], [8 x double]* %hgfz, i64 0, i64 6
  %113 = getelementptr inbounds [8 x double], [8 x double]* %hgfx, i64 0, i64 7
  %114 = getelementptr inbounds [8 x double], [8 x double]* %hgfy, i64 0, i64 7
  %115 = getelementptr inbounds [8 x double], [8 x double]* %hgfz, i64 0, i64 7
  br label %116

; <label>:116                                     ; preds = %234, %.lr.ph
  %indvars.iv3 = phi i64 [ 0, %.lr.ph ], [ %indvars.iv.next4, %234 ]
  call void @llvm.lifetime.start(i64 64, i8* %35) #2
  call void @llvm.lifetime.start(i64 64, i8* %36) #2
  call void @llvm.lifetime.start(i64 64, i8* %37) #2
  call void @llvm.lifetime.start(i64 256, i8* %38) #2
  call void @llvm.lifetime.start(i64 64, i8* %39) #2
  call void @llvm.lifetime.start(i64 64, i8* %40) #2
  call void @llvm.lifetime.start(i64 64, i8* %41) #2
  %117 = trunc i64 %indvars.iv3 to i32
  %118 = call i32* @_ZN6Domain8nodelistEi(%class.Domain* nonnull %domain, i32 %117)
  %119 = shl nsw i32 %117, 3
  %120 = getelementptr inbounds double, double* %determ, i64 %indvars.iv3
  %121 = load double, double* %120, align 8, !tbaa !1
  %122 = fdiv double 1.000000e+00, %121
  %123 = sext i32 %119 to i64
  %124 = getelementptr inbounds double, double* %x8n, i64 %123
  %125 = load double, double* %124, align 8
  %126 = or i32 %119, 1
  %127 = sext i32 %126 to i64
  %128 = getelementptr inbounds double, double* %x8n, i64 %127
  %129 = load double, double* %128, align 8
  %130 = or i32 %119, 2
  %131 = sext i32 %130 to i64
  %132 = getelementptr inbounds double, double* %x8n, i64 %131
  %133 = load double, double* %132, align 8
  %134 = or i32 %119, 3
  %135 = sext i32 %134 to i64
  %136 = getelementptr inbounds double, double* %x8n, i64 %135
  %137 = load double, double* %136, align 8
  %138 = or i32 %119, 4
  %139 = sext i32 %138 to i64
  %140 = getelementptr inbounds double, double* %x8n, i64 %139
  %141 = load double, double* %140, align 8
  %142 = or i32 %119, 5
  %143 = sext i32 %142 to i64
  %144 = getelementptr inbounds double, double* %x8n, i64 %143
  %145 = load double, double* %144, align 8
  %146 = or i32 %119, 6
  %147 = sext i32 %146 to i64
  %148 = getelementptr inbounds double, double* %x8n, i64 %147
  %149 = load double, double* %148, align 8
  %150 = or i32 %119, 7
  %151 = sext i32 %150 to i64
  %152 = getelementptr inbounds double, double* %x8n, i64 %151
  %153 = load double, double* %152, align 8
  %154 = getelementptr inbounds double, double* %y8n, i64 %123
  %155 = load double, double* %154, align 8
  %156 = getelementptr inbounds double, double* %y8n, i64 %127
  %157 = load double, double* %156, align 8
  %158 = getelementptr inbounds double, double* %y8n, i64 %131
  %159 = load double, double* %158, align 8
  %160 = getelementptr inbounds double, double* %y8n, i64 %135
  %161 = load double, double* %160, align 8
  %162 = getelementptr inbounds double, double* %y8n, i64 %139
  %163 = load double, double* %162, align 8
  %164 = getelementptr inbounds double, double* %y8n, i64 %143
  %165 = load double, double* %164, align 8
  %166 = getelementptr inbounds double, double* %y8n, i64 %147
  %167 = load double, double* %166, align 8
  %168 = getelementptr inbounds double, double* %y8n, i64 %151
  %169 = load double, double* %168, align 8
  %170 = getelementptr inbounds double, double* %z8n, i64 %123
  %171 = load double, double* %170, align 8
  %172 = getelementptr inbounds double, double* %z8n, i64 %127
  %173 = load double, double* %172, align 8
  %174 = getelementptr inbounds double, double* %z8n, i64 %131
  %175 = load double, double* %174, align 8
  %176 = getelementptr inbounds double, double* %z8n, i64 %135
  %177 = load double, double* %176, align 8
  %178 = getelementptr inbounds double, double* %z8n, i64 %139
  %179 = load double, double* %178, align 8
  %180 = getelementptr inbounds double, double* %z8n, i64 %143
  %181 = load double, double* %180, align 8
  %182 = getelementptr inbounds double, double* %z8n, i64 %147
  %183 = load double, double* %182, align 8
  %184 = getelementptr inbounds double, double* %z8n, i64 %151
  %185 = load double, double* %184, align 8
  %186 = getelementptr inbounds double, double* %dvdx, i64 %123
  %187 = load double, double* %186, align 8
  %188 = getelementptr inbounds double, double* %dvdy, i64 %123
  %189 = load double, double* %188, align 8
  %190 = getelementptr inbounds double, double* %dvdz, i64 %123
  %191 = load double, double* %190, align 8
  %192 = getelementptr inbounds double, double* %dvdx, i64 %127
  %193 = load double, double* %192, align 8
  %194 = getelementptr inbounds double, double* %dvdy, i64 %127
  %195 = load double, double* %194, align 8
  %196 = getelementptr inbounds double, double* %dvdz, i64 %127
  %197 = load double, double* %196, align 8
  %198 = getelementptr inbounds double, double* %dvdx, i64 %131
  %199 = load double, double* %198, align 8
  %200 = getelementptr inbounds double, double* %dvdy, i64 %131
  %201 = load double, double* %200, align 8
  %202 = getelementptr inbounds double, double* %dvdz, i64 %131
  %203 = load double, double* %202, align 8
  %204 = getelementptr inbounds double, double* %dvdx, i64 %135
  %205 = load double, double* %204, align 8
  %206 = getelementptr inbounds double, double* %dvdy, i64 %135
  %207 = load double, double* %206, align 8
  %208 = getelementptr inbounds double, double* %dvdz, i64 %135
  %209 = load double, double* %208, align 8
  %210 = getelementptr inbounds double, double* %dvdx, i64 %139
  %211 = load double, double* %210, align 8
  %212 = getelementptr inbounds double, double* %dvdy, i64 %139
  %213 = load double, double* %212, align 8
  %214 = getelementptr inbounds double, double* %dvdz, i64 %139
  %215 = load double, double* %214, align 8
  %216 = getelementptr inbounds double, double* %dvdx, i64 %143
  %217 = load double, double* %216, align 8
  %218 = getelementptr inbounds double, double* %dvdy, i64 %143
  %219 = load double, double* %218, align 8
  %220 = getelementptr inbounds double, double* %dvdz, i64 %143
  %221 = load double, double* %220, align 8
  %222 = getelementptr inbounds double, double* %dvdx, i64 %147
  %223 = load double, double* %222, align 8
  %224 = getelementptr inbounds double, double* %dvdy, i64 %147
  %225 = load double, double* %224, align 8
  %226 = getelementptr inbounds double, double* %dvdz, i64 %147
  %227 = load double, double* %226, align 8
  %228 = getelementptr inbounds double, double* %dvdx, i64 %151
  %229 = load double, double* %228, align 8
  %230 = getelementptr inbounds double, double* %dvdy, i64 %151
  %231 = load double, double* %230, align 8
  %232 = getelementptr inbounds double, double* %dvdz, i64 %151
  %233 = load double, double* %232, align 8
  br label %427

; <label>:234                                     ; preds = %427
  %235 = call dereferenceable(8) double* @_ZN6Domain2ssEi(%class.Domain* nonnull %domain, i32 %117)
  %236 = load double, double* %235, align 8, !tbaa !1
  %237 = call dereferenceable(8) double* @_ZN6Domain8elemMassEi(%class.Domain* nonnull %domain, i32 %117)
  %238 = load double, double* %237, align 8, !tbaa !1
  %239 = load double, double* %120, align 8, !tbaa !1
  %240 = call double @_Z4CBRTd(double %239)
  %241 = load i32, i32* %118, align 4, !tbaa !5
  %242 = getelementptr inbounds i32, i32* %118, i64 1
  %243 = load i32, i32* %242, align 4, !tbaa !5
  %244 = getelementptr inbounds i32, i32* %118, i64 2
  %245 = load i32, i32* %244, align 4, !tbaa !5
  %246 = getelementptr inbounds i32, i32* %118, i64 3
  %247 = load i32, i32* %246, align 4, !tbaa !5
  %248 = getelementptr inbounds i32, i32* %118, i64 4
  %249 = load i32, i32* %248, align 4, !tbaa !5
  %250 = getelementptr inbounds i32, i32* %118, i64 5
  %251 = load i32, i32* %250, align 4, !tbaa !5
  %252 = getelementptr inbounds i32, i32* %118, i64 6
  %253 = load i32, i32* %252, align 4, !tbaa !5
  %254 = getelementptr inbounds i32, i32* %118, i64 7
  %255 = load i32, i32* %254, align 4, !tbaa !5
  %256 = call dereferenceable(8) double* @_ZN6Domain2xdEi(%class.Domain* nonnull %domain, i32 %241)
  %257 = bitcast double* %256 to i64*
  %258 = load i64, i64* %257, align 8, !tbaa !1
  store i64 %258, i64* %42, align 16, !tbaa !1
  %259 = call dereferenceable(8) double* @_ZN6Domain2xdEi(%class.Domain* nonnull %domain, i32 %243)
  %260 = bitcast double* %259 to i64*
  %261 = load i64, i64* %260, align 8, !tbaa !1
  store i64 %261, i64* %44, align 8, !tbaa !1
  %262 = call dereferenceable(8) double* @_ZN6Domain2xdEi(%class.Domain* nonnull %domain, i32 %245)
  %263 = bitcast double* %262 to i64*
  %264 = load i64, i64* %263, align 8, !tbaa !1
  store i64 %264, i64* %46, align 16, !tbaa !1
  %265 = call dereferenceable(8) double* @_ZN6Domain2xdEi(%class.Domain* nonnull %domain, i32 %247)
  %266 = bitcast double* %265 to i64*
  %267 = load i64, i64* %266, align 8, !tbaa !1
  store i64 %267, i64* %48, align 8, !tbaa !1
  %268 = call dereferenceable(8) double* @_ZN6Domain2xdEi(%class.Domain* nonnull %domain, i32 %249)
  %269 = bitcast double* %268 to i64*
  %270 = load i64, i64* %269, align 8, !tbaa !1
  store i64 %270, i64* %50, align 16, !tbaa !1
  %271 = call dereferenceable(8) double* @_ZN6Domain2xdEi(%class.Domain* nonnull %domain, i32 %251)
  %272 = bitcast double* %271 to i64*
  %273 = load i64, i64* %272, align 8, !tbaa !1
  store i64 %273, i64* %52, align 8, !tbaa !1
  %274 = call dereferenceable(8) double* @_ZN6Domain2xdEi(%class.Domain* nonnull %domain, i32 %253)
  %275 = bitcast double* %274 to i64*
  %276 = load i64, i64* %275, align 8, !tbaa !1
  store i64 %276, i64* %54, align 16, !tbaa !1
  %277 = call dereferenceable(8) double* @_ZN6Domain2xdEi(%class.Domain* nonnull %domain, i32 %255)
  %278 = bitcast double* %277 to i64*
  %279 = load i64, i64* %278, align 8, !tbaa !1
  store i64 %279, i64* %56, align 8, !tbaa !1
  %280 = call dereferenceable(8) double* @_ZN6Domain2ydEi(%class.Domain* nonnull %domain, i32 %241)
  %281 = bitcast double* %280 to i64*
  %282 = load i64, i64* %281, align 8, !tbaa !1
  store i64 %282, i64* %57, align 16, !tbaa !1
  %283 = call dereferenceable(8) double* @_ZN6Domain2ydEi(%class.Domain* nonnull %domain, i32 %243)
  %284 = bitcast double* %283 to i64*
  %285 = load i64, i64* %284, align 8, !tbaa !1
  store i64 %285, i64* %59, align 8, !tbaa !1
  %286 = call dereferenceable(8) double* @_ZN6Domain2ydEi(%class.Domain* nonnull %domain, i32 %245)
  %287 = bitcast double* %286 to i64*
  %288 = load i64, i64* %287, align 8, !tbaa !1
  store i64 %288, i64* %61, align 16, !tbaa !1
  %289 = call dereferenceable(8) double* @_ZN6Domain2ydEi(%class.Domain* nonnull %domain, i32 %247)
  %290 = bitcast double* %289 to i64*
  %291 = load i64, i64* %290, align 8, !tbaa !1
  store i64 %291, i64* %63, align 8, !tbaa !1
  %292 = call dereferenceable(8) double* @_ZN6Domain2ydEi(%class.Domain* nonnull %domain, i32 %249)
  %293 = bitcast double* %292 to i64*
  %294 = load i64, i64* %293, align 8, !tbaa !1
  store i64 %294, i64* %65, align 16, !tbaa !1
  %295 = call dereferenceable(8) double* @_ZN6Domain2ydEi(%class.Domain* nonnull %domain, i32 %251)
  %296 = bitcast double* %295 to i64*
  %297 = load i64, i64* %296, align 8, !tbaa !1
  store i64 %297, i64* %67, align 8, !tbaa !1
  %298 = call dereferenceable(8) double* @_ZN6Domain2ydEi(%class.Domain* nonnull %domain, i32 %253)
  %299 = bitcast double* %298 to i64*
  %300 = load i64, i64* %299, align 8, !tbaa !1
  store i64 %300, i64* %69, align 16, !tbaa !1
  %301 = call dereferenceable(8) double* @_ZN6Domain2ydEi(%class.Domain* nonnull %domain, i32 %255)
  %302 = bitcast double* %301 to i64*
  %303 = load i64, i64* %302, align 8, !tbaa !1
  store i64 %303, i64* %71, align 8, !tbaa !1
  %304 = call dereferenceable(8) double* @_ZN6Domain2zdEi(%class.Domain* nonnull %domain, i32 %241)
  %305 = bitcast double* %304 to i64*
  %306 = load i64, i64* %305, align 8, !tbaa !1
  store i64 %306, i64* %72, align 16, !tbaa !1
  %307 = call dereferenceable(8) double* @_ZN6Domain2zdEi(%class.Domain* nonnull %domain, i32 %243)
  %308 = bitcast double* %307 to i64*
  %309 = load i64, i64* %308, align 8, !tbaa !1
  store i64 %309, i64* %74, align 8, !tbaa !1
  %310 = call dereferenceable(8) double* @_ZN6Domain2zdEi(%class.Domain* nonnull %domain, i32 %245)
  %311 = bitcast double* %310 to i64*
  %312 = load i64, i64* %311, align 8, !tbaa !1
  store i64 %312, i64* %76, align 16, !tbaa !1
  %313 = call dereferenceable(8) double* @_ZN6Domain2zdEi(%class.Domain* nonnull %domain, i32 %247)
  %314 = bitcast double* %313 to i64*
  %315 = load i64, i64* %314, align 8, !tbaa !1
  store i64 %315, i64* %78, align 8, !tbaa !1
  %316 = call dereferenceable(8) double* @_ZN6Domain2zdEi(%class.Domain* nonnull %domain, i32 %249)
  %317 = bitcast double* %316 to i64*
  %318 = load i64, i64* %317, align 8, !tbaa !1
  store i64 %318, i64* %80, align 16, !tbaa !1
  %319 = call dereferenceable(8) double* @_ZN6Domain2zdEi(%class.Domain* nonnull %domain, i32 %251)
  %320 = bitcast double* %319 to i64*
  %321 = load i64, i64* %320, align 8, !tbaa !1
  store i64 %321, i64* %82, align 8, !tbaa !1
  %322 = call dereferenceable(8) double* @_ZN6Domain2zdEi(%class.Domain* nonnull %domain, i32 %253)
  %323 = bitcast double* %322 to i64*
  %324 = load i64, i64* %323, align 8, !tbaa !1
  store i64 %324, i64* %84, align 16, !tbaa !1
  %325 = call dereferenceable(8) double* @_ZN6Domain2zdEi(%class.Domain* nonnull %domain, i32 %255)
  %326 = bitcast double* %325 to i64*
  %327 = load i64, i64* %326, align 8, !tbaa !1
  store i64 %327, i64* %86, align 8, !tbaa !1
  %328 = fmul double %87, %236
  %329 = fmul double %328, %238
  %330 = fdiv double %329, %240
  call fastcc void @_ZL24CalcElemFBHourglassForcePdS_S_PA4_ddS_S_S_(double* %88, double* %89, double* %90, [4 x double]* nonnull %91, double %330, double* %92, double* %93, double* %94)
  %331 = load double, double* %92, align 16, !tbaa !1
  %332 = call dereferenceable(8) double* @_ZN6Domain2fxEi(%class.Domain* nonnull %domain, i32 %241)
  %333 = load double, double* %332, align 8, !tbaa !1
  %334 = fadd double %331, %333
  store double %334, double* %332, align 8, !tbaa !1
  %335 = load double, double* %93, align 16, !tbaa !1
  %336 = call dereferenceable(8) double* @_ZN6Domain2fyEi(%class.Domain* nonnull %domain, i32 %241)
  %337 = load double, double* %336, align 8, !tbaa !1
  %338 = fadd double %335, %337
  store double %338, double* %336, align 8, !tbaa !1
  %339 = load double, double* %94, align 16, !tbaa !1
  %340 = call dereferenceable(8) double* @_ZN6Domain2fzEi(%class.Domain* nonnull %domain, i32 %241)
  %341 = load double, double* %340, align 8, !tbaa !1
  %342 = fadd double %339, %341
  store double %342, double* %340, align 8, !tbaa !1
  %343 = load double, double* %95, align 8, !tbaa !1
  %344 = call dereferenceable(8) double* @_ZN6Domain2fxEi(%class.Domain* nonnull %domain, i32 %243)
  %345 = load double, double* %344, align 8, !tbaa !1
  %346 = fadd double %343, %345
  store double %346, double* %344, align 8, !tbaa !1
  %347 = load double, double* %96, align 8, !tbaa !1
  %348 = call dereferenceable(8) double* @_ZN6Domain2fyEi(%class.Domain* nonnull %domain, i32 %243)
  %349 = load double, double* %348, align 8, !tbaa !1
  %350 = fadd double %347, %349
  store double %350, double* %348, align 8, !tbaa !1
  %351 = load double, double* %97, align 8, !tbaa !1
  %352 = call dereferenceable(8) double* @_ZN6Domain2fzEi(%class.Domain* nonnull %domain, i32 %243)
  %353 = load double, double* %352, align 8, !tbaa !1
  %354 = fadd double %351, %353
  store double %354, double* %352, align 8, !tbaa !1
  %355 = load double, double* %98, align 16, !tbaa !1
  %356 = call dereferenceable(8) double* @_ZN6Domain2fxEi(%class.Domain* nonnull %domain, i32 %245)
  %357 = load double, double* %356, align 8, !tbaa !1
  %358 = fadd double %355, %357
  store double %358, double* %356, align 8, !tbaa !1
  %359 = load double, double* %99, align 16, !tbaa !1
  %360 = call dereferenceable(8) double* @_ZN6Domain2fyEi(%class.Domain* nonnull %domain, i32 %245)
  %361 = load double, double* %360, align 8, !tbaa !1
  %362 = fadd double %359, %361
  store double %362, double* %360, align 8, !tbaa !1
  %363 = load double, double* %100, align 16, !tbaa !1
  %364 = call dereferenceable(8) double* @_ZN6Domain2fzEi(%class.Domain* nonnull %domain, i32 %245)
  %365 = load double, double* %364, align 8, !tbaa !1
  %366 = fadd double %363, %365
  store double %366, double* %364, align 8, !tbaa !1
  %367 = load double, double* %101, align 8, !tbaa !1
  %368 = call dereferenceable(8) double* @_ZN6Domain2fxEi(%class.Domain* nonnull %domain, i32 %247)
  %369 = load double, double* %368, align 8, !tbaa !1
  %370 = fadd double %367, %369
  store double %370, double* %368, align 8, !tbaa !1
  %371 = load double, double* %102, align 8, !tbaa !1
  %372 = call dereferenceable(8) double* @_ZN6Domain2fyEi(%class.Domain* nonnull %domain, i32 %247)
  %373 = load double, double* %372, align 8, !tbaa !1
  %374 = fadd double %371, %373
  store double %374, double* %372, align 8, !tbaa !1
  %375 = load double, double* %103, align 8, !tbaa !1
  %376 = call dereferenceable(8) double* @_ZN6Domain2fzEi(%class.Domain* nonnull %domain, i32 %247)
  %377 = load double, double* %376, align 8, !tbaa !1
  %378 = fadd double %375, %377
  store double %378, double* %376, align 8, !tbaa !1
  %379 = load double, double* %104, align 16, !tbaa !1
  %380 = call dereferenceable(8) double* @_ZN6Domain2fxEi(%class.Domain* nonnull %domain, i32 %249)
  %381 = load double, double* %380, align 8, !tbaa !1
  %382 = fadd double %379, %381
  store double %382, double* %380, align 8, !tbaa !1
  %383 = load double, double* %105, align 16, !tbaa !1
  %384 = call dereferenceable(8) double* @_ZN6Domain2fyEi(%class.Domain* nonnull %domain, i32 %249)
  %385 = load double, double* %384, align 8, !tbaa !1
  %386 = fadd double %383, %385
  store double %386, double* %384, align 8, !tbaa !1
  %387 = load double, double* %106, align 16, !tbaa !1
  %388 = call dereferenceable(8) double* @_ZN6Domain2fzEi(%class.Domain* nonnull %domain, i32 %249)
  %389 = load double, double* %388, align 8, !tbaa !1
  %390 = fadd double %387, %389
  store double %390, double* %388, align 8, !tbaa !1
  %391 = load double, double* %107, align 8, !tbaa !1
  %392 = call dereferenceable(8) double* @_ZN6Domain2fxEi(%class.Domain* nonnull %domain, i32 %251)
  %393 = load double, double* %392, align 8, !tbaa !1
  %394 = fadd double %391, %393
  store double %394, double* %392, align 8, !tbaa !1
  %395 = load double, double* %108, align 8, !tbaa !1
  %396 = call dereferenceable(8) double* @_ZN6Domain2fyEi(%class.Domain* nonnull %domain, i32 %251)
  %397 = load double, double* %396, align 8, !tbaa !1
  %398 = fadd double %395, %397
  store double %398, double* %396, align 8, !tbaa !1
  %399 = load double, double* %109, align 8, !tbaa !1
  %400 = call dereferenceable(8) double* @_ZN6Domain2fzEi(%class.Domain* nonnull %domain, i32 %251)
  %401 = load double, double* %400, align 8, !tbaa !1
  %402 = fadd double %399, %401
  store double %402, double* %400, align 8, !tbaa !1
  %403 = load double, double* %110, align 16, !tbaa !1
  %404 = call dereferenceable(8) double* @_ZN6Domain2fxEi(%class.Domain* nonnull %domain, i32 %253)
  %405 = load double, double* %404, align 8, !tbaa !1
  %406 = fadd double %403, %405
  store double %406, double* %404, align 8, !tbaa !1
  %407 = load double, double* %111, align 16, !tbaa !1
  %408 = call dereferenceable(8) double* @_ZN6Domain2fyEi(%class.Domain* nonnull %domain, i32 %253)
  %409 = load double, double* %408, align 8, !tbaa !1
  %410 = fadd double %407, %409
  store double %410, double* %408, align 8, !tbaa !1
  %411 = load double, double* %112, align 16, !tbaa !1
  %412 = call dereferenceable(8) double* @_ZN6Domain2fzEi(%class.Domain* nonnull %domain, i32 %253)
  %413 = load double, double* %412, align 8, !tbaa !1
  %414 = fadd double %411, %413
  store double %414, double* %412, align 8, !tbaa !1
  %415 = load double, double* %113, align 8, !tbaa !1
  %416 = call dereferenceable(8) double* @_ZN6Domain2fxEi(%class.Domain* nonnull %domain, i32 %255)
  %417 = load double, double* %416, align 8, !tbaa !1
  %418 = fadd double %415, %417
  store double %418, double* %416, align 8, !tbaa !1
  %419 = load double, double* %114, align 8, !tbaa !1
  %420 = call dereferenceable(8) double* @_ZN6Domain2fyEi(%class.Domain* nonnull %domain, i32 %255)
  %421 = load double, double* %420, align 8, !tbaa !1
  %422 = fadd double %419, %421
  store double %422, double* %420, align 8, !tbaa !1
  %423 = load double, double* %115, align 8, !tbaa !1
  %424 = call dereferenceable(8) double* @_ZN6Domain2fzEi(%class.Domain* nonnull %domain, i32 %255)
  %425 = load double, double* %424, align 8, !tbaa !1
  %426 = fadd double %423, %425
  store double %426, double* %424, align 8, !tbaa !1
  call void @llvm.lifetime.end(i64 64, i8* %41) #2
  call void @llvm.lifetime.end(i64 64, i8* %40) #2
  call void @llvm.lifetime.end(i64 64, i8* %39) #2
  call void @llvm.lifetime.end(i64 256, i8* nonnull %38) #2
  call void @llvm.lifetime.end(i64 64, i8* %37) #2
  call void @llvm.lifetime.end(i64 64, i8* %36) #2
  call void @llvm.lifetime.end(i64 64, i8* %35) #2
  %indvars.iv.next4 = add nuw nsw i64 %indvars.iv3, 1
  %lftr.wideiv = trunc i64 %indvars.iv.next4 to i32
  %exitcond5 = icmp eq i32 %lftr.wideiv, %numElem
  br i1 %exitcond5, label %._crit_edge.loopexit, label %116

; <label>:427                                     ; preds = %427, %116
  %indvars.iv = phi i64 [ 0, %116 ], [ %indvars.iv.next, %427 ]
  %428 = getelementptr inbounds [4 x [8 x double]], [4 x [8 x double]]* %gamma, i64 0, i64 %indvars.iv, i64 0
  %429 = load double, double* %428, align 16, !tbaa !1
  %430 = fmul double %125, %429
  %431 = getelementptr inbounds [4 x [8 x double]], [4 x [8 x double]]* %gamma, i64 0, i64 %indvars.iv, i64 1
  %432 = load double, double* %431, align 8, !tbaa !1
  %433 = fmul double %129, %432
  %434 = fadd double %430, %433
  %435 = getelementptr inbounds [4 x [8 x double]], [4 x [8 x double]]* %gamma, i64 0, i64 %indvars.iv, i64 2
  %436 = load double, double* %435, align 16, !tbaa !1
  %437 = fmul double %133, %436
  %438 = fadd double %434, %437
  %439 = getelementptr inbounds [4 x [8 x double]], [4 x [8 x double]]* %gamma, i64 0, i64 %indvars.iv, i64 3
  %440 = load double, double* %439, align 8, !tbaa !1
  %441 = fmul double %137, %440
  %442 = fadd double %438, %441
  %443 = getelementptr inbounds [4 x [8 x double]], [4 x [8 x double]]* %gamma, i64 0, i64 %indvars.iv, i64 4
  %444 = load double, double* %443, align 16, !tbaa !1
  %445 = fmul double %141, %444
  %446 = fadd double %442, %445
  %447 = getelementptr inbounds [4 x [8 x double]], [4 x [8 x double]]* %gamma, i64 0, i64 %indvars.iv, i64 5
  %448 = load double, double* %447, align 8, !tbaa !1
  %449 = fmul double %145, %448
  %450 = fadd double %446, %449
  %451 = getelementptr inbounds [4 x [8 x double]], [4 x [8 x double]]* %gamma, i64 0, i64 %indvars.iv, i64 6
  %452 = load double, double* %451, align 16, !tbaa !1
  %453 = fmul double %149, %452
  %454 = fadd double %450, %453
  %455 = getelementptr inbounds [4 x [8 x double]], [4 x [8 x double]]* %gamma, i64 0, i64 %indvars.iv, i64 7
  %456 = load double, double* %455, align 8, !tbaa !1
  %457 = fmul double %153, %456
  %458 = fadd double %454, %457
  %459 = fmul double %429, %155
  %460 = fmul double %432, %157
  %461 = fadd double %459, %460
  %462 = fmul double %436, %159
  %463 = fadd double %461, %462
  %464 = fmul double %440, %161
  %465 = fadd double %463, %464
  %466 = fmul double %444, %163
  %467 = fadd double %465, %466
  %468 = fmul double %448, %165
  %469 = fadd double %467, %468
  %470 = fmul double %452, %167
  %471 = fadd double %469, %470
  %472 = fmul double %456, %169
  %473 = fadd double %471, %472
  %474 = fmul double %429, %171
  %475 = fmul double %432, %173
  %476 = fadd double %474, %475
  %477 = fmul double %436, %175
  %478 = fadd double %476, %477
  %479 = fmul double %440, %177
  %480 = fadd double %478, %479
  %481 = fmul double %444, %179
  %482 = fadd double %480, %481
  %483 = fmul double %448, %181
  %484 = fadd double %482, %483
  %485 = fmul double %452, %183
  %486 = fadd double %484, %485
  %487 = fmul double %456, %185
  %488 = fadd double %486, %487
  %489 = fmul double %458, %187
  %490 = fmul double %473, %189
  %491 = fadd double %489, %490
  %492 = fmul double %488, %191
  %493 = fadd double %491, %492
  %494 = fmul double %122, %493
  %495 = fsub double %429, %494
  %496 = getelementptr inbounds [8 x [4 x double]], [8 x [4 x double]]* %hourgam, i64 0, i64 0, i64 %indvars.iv
  store double %495, double* %496, align 8, !tbaa !1
  %497 = fmul double %458, %193
  %498 = fmul double %473, %195
  %499 = fadd double %497, %498
  %500 = fmul double %488, %197
  %501 = fadd double %499, %500
  %502 = fmul double %122, %501
  %503 = fsub double %432, %502
  %504 = getelementptr inbounds [8 x [4 x double]], [8 x [4 x double]]* %hourgam, i64 0, i64 1, i64 %indvars.iv
  store double %503, double* %504, align 8, !tbaa !1
  %505 = fmul double %458, %199
  %506 = fmul double %473, %201
  %507 = fadd double %505, %506
  %508 = fmul double %488, %203
  %509 = fadd double %507, %508
  %510 = fmul double %122, %509
  %511 = fsub double %436, %510
  %512 = getelementptr inbounds [8 x [4 x double]], [8 x [4 x double]]* %hourgam, i64 0, i64 2, i64 %indvars.iv
  store double %511, double* %512, align 8, !tbaa !1
  %513 = fmul double %458, %205
  %514 = fmul double %473, %207
  %515 = fadd double %513, %514
  %516 = fmul double %488, %209
  %517 = fadd double %515, %516
  %518 = fmul double %122, %517
  %519 = fsub double %440, %518
  %520 = getelementptr inbounds [8 x [4 x double]], [8 x [4 x double]]* %hourgam, i64 0, i64 3, i64 %indvars.iv
  store double %519, double* %520, align 8, !tbaa !1
  %521 = fmul double %458, %211
  %522 = fmul double %473, %213
  %523 = fadd double %521, %522
  %524 = fmul double %488, %215
  %525 = fadd double %523, %524
  %526 = fmul double %122, %525
  %527 = fsub double %444, %526
  %528 = getelementptr inbounds [8 x [4 x double]], [8 x [4 x double]]* %hourgam, i64 0, i64 4, i64 %indvars.iv
  store double %527, double* %528, align 8, !tbaa !1
  %529 = fmul double %458, %217
  %530 = fmul double %473, %219
  %531 = fadd double %529, %530
  %532 = fmul double %488, %221
  %533 = fadd double %531, %532
  %534 = fmul double %122, %533
  %535 = fsub double %448, %534
  %536 = getelementptr inbounds [8 x [4 x double]], [8 x [4 x double]]* %hourgam, i64 0, i64 5, i64 %indvars.iv
  store double %535, double* %536, align 8, !tbaa !1
  %537 = fmul double %458, %223
  %538 = fmul double %473, %225
  %539 = fadd double %537, %538
  %540 = fmul double %488, %227
  %541 = fadd double %539, %540
  %542 = fmul double %122, %541
  %543 = fsub double %452, %542
  %544 = getelementptr inbounds [8 x [4 x double]], [8 x [4 x double]]* %hourgam, i64 0, i64 6, i64 %indvars.iv
  store double %543, double* %544, align 8, !tbaa !1
  %545 = fmul double %458, %229
  %546 = fmul double %473, %231
  %547 = fadd double %545, %546
  %548 = fmul double %488, %233
  %549 = fadd double %547, %548
  %550 = fmul double %122, %549
  %551 = fsub double %456, %550
  %552 = getelementptr inbounds [8 x [4 x double]], [8 x [4 x double]]* %hourgam, i64 0, i64 7, i64 %indvars.iv
  store double %551, double* %552, align 8, !tbaa !1
  %indvars.iv.next = add nuw nsw i64 %indvars.iv, 1
  %exitcond = icmp eq i64 %indvars.iv.next, 4
  br i1 %exitcond, label %234, label %427

._crit_edge.loopexit:                             ; preds = %234
  br label %._crit_edge

._crit_edge:                                      ; preds = %._crit_edge.loopexit, %0
  call void @llvm.lifetime.end(i64 256, i8* %1) #2
  ret void
}

; Function Attrs: norecurse nounwind readonly uwtable
define linkonce_odr nonnull dereferenceable(8) double* @_ZN6Domain2ssEi(%class.Domain* nocapture readonly %this, i32 %idx) #3 comdat align 2 {
  %1 = getelementptr inbounds %class.Domain, %class.Domain* %this, i64 0, i32 49
  %2 = sext i32 %idx to i64
  %3 = tail call dereferenceable(8) double* @_ZNSt6vectorIdSaIdEEixEm(%"class.std::vector"* %1, i64 %2)
  ret double* %3
}

; Function Attrs: norecurse nounwind readonly uwtable
define linkonce_odr nonnull dereferenceable(8) double* @_ZN6Domain8elemMassEi(%class.Domain* nocapture readonly %this, i32 %idx) #3 comdat align 2 {
  %1 = getelementptr inbounds %class.Domain, %class.Domain* %this, i64 0, i32 50
  %2 = sext i32 %idx to i64
  %3 = tail call dereferenceable(8) double* @_ZNSt6vectorIdSaIdEEixEm(%"class.std::vector"* %1, i64 %2)
  ret double* %3
}

; Function Attrs: inlinehint nounwind uwtable
define linkonce_odr double @_Z4CBRTd(double %arg) #8 comdat {
  %1 = tail call double @cbrt(double %arg) #2
  ret double %1
}

; Function Attrs: nounwind
declare double @cbrt(double) #10

; Function Attrs: inlinehint norecurse nounwind uwtable
define internal fastcc void @_ZL24CalcElemFBHourglassForcePdS_S_PA4_ddS_S_S_(double* nocapture readonly %xd, double* nocapture readonly %yd, double* nocapture readonly %zd, [4 x double]* readonly %hourgam, double %coefficient, double* nocapture %hgfx, double* nocapture %hgfy, double* nocapture %hgfz) unnamed_addr #7 {
  %hxx = alloca [4 x double], align 16
  %1 = bitcast [4 x double]* %hxx to i8*
  call void @llvm.lifetime.start(i64 32, i8* %1) #2
  %2 = load double, double* %xd, align 8
  %3 = getelementptr inbounds double, double* %xd, i64 1
  %4 = load double, double* %3, align 8
  %5 = getelementptr inbounds double, double* %xd, i64 2
  %6 = load double, double* %5, align 8
  %7 = getelementptr inbounds double, double* %xd, i64 3
  %8 = load double, double* %7, align 8
  %9 = getelementptr inbounds double, double* %xd, i64 4
  %10 = load double, double* %9, align 8
  %11 = getelementptr inbounds double, double* %xd, i64 5
  %12 = load double, double* %11, align 8
  %13 = getelementptr inbounds double, double* %xd, i64 6
  %14 = load double, double* %13, align 8
  %15 = getelementptr inbounds double, double* %xd, i64 7
  %16 = load double, double* %15, align 8
  br label %25

.preheader9:                                      ; preds = %25
  %17 = getelementptr inbounds [4 x double], [4 x double]* %hxx, i64 0, i64 0
  %18 = load double, double* %17, align 16
  %19 = getelementptr inbounds [4 x double], [4 x double]* %hxx, i64 0, i64 1
  %20 = load double, double* %19, align 8
  %21 = getelementptr inbounds [4 x double], [4 x double]* %hxx, i64 0, i64 2
  %22 = load double, double* %21, align 16
  %23 = getelementptr inbounds [4 x double], [4 x double]* %hxx, i64 0, i64 3
  %24 = load double, double* %23, align 8
  br label %73

; <label>:25                                      ; preds = %25, %0
  %indvars.iv28 = phi i64 [ 0, %0 ], [ %indvars.iv.next29, %25 ]
  %26 = getelementptr inbounds [4 x double], [4 x double]* %hourgam, i64 0, i64 %indvars.iv28
  %27 = load double, double* %26, align 8, !tbaa !1
  %28 = fmul double %27, %2
  %29 = getelementptr inbounds [4 x double], [4 x double]* %hourgam, i64 1, i64 %indvars.iv28
  %30 = load double, double* %29, align 8, !tbaa !1
  %31 = fmul double %30, %4
  %32 = fadd double %28, %31
  %33 = getelementptr inbounds [4 x double], [4 x double]* %hourgam, i64 2, i64 %indvars.iv28
  %34 = load double, double* %33, align 8, !tbaa !1
  %35 = fmul double %34, %6
  %36 = fadd double %32, %35
  %37 = getelementptr inbounds [4 x double], [4 x double]* %hourgam, i64 3, i64 %indvars.iv28
  %38 = load double, double* %37, align 8, !tbaa !1
  %39 = fmul double %38, %8
  %40 = fadd double %36, %39
  %41 = getelementptr inbounds [4 x double], [4 x double]* %hourgam, i64 4, i64 %indvars.iv28
  %42 = load double, double* %41, align 8, !tbaa !1
  %43 = fmul double %42, %10
  %44 = fadd double %40, %43
  %45 = getelementptr inbounds [4 x double], [4 x double]* %hourgam, i64 5, i64 %indvars.iv28
  %46 = load double, double* %45, align 8, !tbaa !1
  %47 = fmul double %46, %12
  %48 = fadd double %44, %47
  %49 = getelementptr inbounds [4 x double], [4 x double]* %hourgam, i64 6, i64 %indvars.iv28
  %50 = load double, double* %49, align 8, !tbaa !1
  %51 = fmul double %50, %14
  %52 = fadd double %48, %51
  %53 = getelementptr inbounds [4 x double], [4 x double]* %hourgam, i64 7, i64 %indvars.iv28
  %54 = load double, double* %53, align 8, !tbaa !1
  %55 = fmul double %54, %16
  %56 = fadd double %52, %55
  %57 = getelementptr inbounds [4 x double], [4 x double]* %hxx, i64 0, i64 %indvars.iv28
  store double %56, double* %57, align 8, !tbaa !1
  %indvars.iv.next29 = add nuw nsw i64 %indvars.iv28, 1
  %exitcond30 = icmp eq i64 %indvars.iv.next29, 4
  br i1 %exitcond30, label %.preheader9, label %25

.preheader8:                                      ; preds = %73
  %58 = load double, double* %yd, align 8
  %59 = getelementptr inbounds double, double* %yd, i64 1
  %60 = load double, double* %59, align 8
  %61 = getelementptr inbounds double, double* %yd, i64 2
  %62 = load double, double* %61, align 8
  %63 = getelementptr inbounds double, double* %yd, i64 3
  %64 = load double, double* %63, align 8
  %65 = getelementptr inbounds double, double* %yd, i64 4
  %66 = load double, double* %65, align 8
  %67 = getelementptr inbounds double, double* %yd, i64 5
  %68 = load double, double* %67, align 8
  %69 = getelementptr inbounds double, double* %yd, i64 6
  %70 = load double, double* %69, align 8
  %71 = getelementptr inbounds double, double* %yd, i64 7
  %72 = load double, double* %71, align 8
  br label %95

; <label>:73                                      ; preds = %73, %.preheader9
  %indvars.iv25 = phi i64 [ 0, %.preheader9 ], [ %indvars.iv.next26, %73 ]
  %74 = getelementptr inbounds [4 x double], [4 x double]* %hourgam, i64 %indvars.iv25, i64 0
  %75 = load double, double* %74, align 8, !tbaa !1
  %76 = fmul double %75, %18
  %77 = getelementptr inbounds [4 x double], [4 x double]* %hourgam, i64 %indvars.iv25, i64 1
  %78 = load double, double* %77, align 8, !tbaa !1
  %79 = fmul double %78, %20
  %80 = fadd double %76, %79
  %81 = getelementptr inbounds [4 x double], [4 x double]* %hourgam, i64 %indvars.iv25, i64 2
  %82 = load double, double* %81, align 8, !tbaa !1
  %83 = fmul double %82, %22
  %84 = fadd double %80, %83
  %85 = getelementptr inbounds [4 x double], [4 x double]* %hourgam, i64 %indvars.iv25, i64 3
  %86 = load double, double* %85, align 8, !tbaa !1
  %87 = fmul double %86, %24
  %88 = fadd double %84, %87
  %89 = fmul double %88, %coefficient
  %90 = getelementptr inbounds double, double* %hgfx, i64 %indvars.iv25
  store double %89, double* %90, align 8, !tbaa !1
  %indvars.iv.next26 = add nuw nsw i64 %indvars.iv25, 1
  %exitcond27 = icmp eq i64 %indvars.iv.next26, 8
  br i1 %exitcond27, label %.preheader8, label %73

.preheader7:                                      ; preds = %95
  %91 = load double, double* %17, align 16
  %92 = load double, double* %19, align 8
  %93 = load double, double* %21, align 16
  %94 = load double, double* %23, align 8
  br label %143

; <label>:95                                      ; preds = %95, %.preheader8
  %indvars.iv22 = phi i64 [ 0, %.preheader8 ], [ %indvars.iv.next23, %95 ]
  %96 = getelementptr inbounds [4 x double], [4 x double]* %hourgam, i64 0, i64 %indvars.iv22
  %97 = load double, double* %96, align 8, !tbaa !1
  %98 = fmul double %97, %58
  %99 = getelementptr inbounds [4 x double], [4 x double]* %hourgam, i64 1, i64 %indvars.iv22
  %100 = load double, double* %99, align 8, !tbaa !1
  %101 = fmul double %100, %60
  %102 = fadd double %98, %101
  %103 = getelementptr inbounds [4 x double], [4 x double]* %hourgam, i64 2, i64 %indvars.iv22
  %104 = load double, double* %103, align 8, !tbaa !1
  %105 = fmul double %104, %62
  %106 = fadd double %102, %105
  %107 = getelementptr inbounds [4 x double], [4 x double]* %hourgam, i64 3, i64 %indvars.iv22
  %108 = load double, double* %107, align 8, !tbaa !1
  %109 = fmul double %108, %64
  %110 = fadd double %106, %109
  %111 = getelementptr inbounds [4 x double], [4 x double]* %hourgam, i64 4, i64 %indvars.iv22
  %112 = load double, double* %111, align 8, !tbaa !1
  %113 = fmul double %112, %66
  %114 = fadd double %110, %113
  %115 = getelementptr inbounds [4 x double], [4 x double]* %hourgam, i64 5, i64 %indvars.iv22
  %116 = load double, double* %115, align 8, !tbaa !1
  %117 = fmul double %116, %68
  %118 = fadd double %114, %117
  %119 = getelementptr inbounds [4 x double], [4 x double]* %hourgam, i64 6, i64 %indvars.iv22
  %120 = load double, double* %119, align 8, !tbaa !1
  %121 = fmul double %120, %70
  %122 = fadd double %118, %121
  %123 = getelementptr inbounds [4 x double], [4 x double]* %hourgam, i64 7, i64 %indvars.iv22
  %124 = load double, double* %123, align 8, !tbaa !1
  %125 = fmul double %124, %72
  %126 = fadd double %122, %125
  %127 = getelementptr inbounds [4 x double], [4 x double]* %hxx, i64 0, i64 %indvars.iv22
  store double %126, double* %127, align 8, !tbaa !1
  %indvars.iv.next23 = add nuw nsw i64 %indvars.iv22, 1
  %exitcond24 = icmp eq i64 %indvars.iv.next23, 4
  br i1 %exitcond24, label %.preheader7, label %95

.preheader6:                                      ; preds = %143
  %128 = load double, double* %zd, align 8
  %129 = getelementptr inbounds double, double* %zd, i64 1
  %130 = load double, double* %129, align 8
  %131 = getelementptr inbounds double, double* %zd, i64 2
  %132 = load double, double* %131, align 8
  %133 = getelementptr inbounds double, double* %zd, i64 3
  %134 = load double, double* %133, align 8
  %135 = getelementptr inbounds double, double* %zd, i64 4
  %136 = load double, double* %135, align 8
  %137 = getelementptr inbounds double, double* %zd, i64 5
  %138 = load double, double* %137, align 8
  %139 = getelementptr inbounds double, double* %zd, i64 6
  %140 = load double, double* %139, align 8
  %141 = getelementptr inbounds double, double* %zd, i64 7
  %142 = load double, double* %141, align 8
  br label %165

; <label>:143                                     ; preds = %143, %.preheader7
  %indvars.iv19 = phi i64 [ 0, %.preheader7 ], [ %indvars.iv.next20, %143 ]
  %144 = getelementptr inbounds [4 x double], [4 x double]* %hourgam, i64 %indvars.iv19, i64 0
  %145 = load double, double* %144, align 8, !tbaa !1
  %146 = fmul double %145, %91
  %147 = getelementptr inbounds [4 x double], [4 x double]* %hourgam, i64 %indvars.iv19, i64 1
  %148 = load double, double* %147, align 8, !tbaa !1
  %149 = fmul double %148, %92
  %150 = fadd double %146, %149
  %151 = getelementptr inbounds [4 x double], [4 x double]* %hourgam, i64 %indvars.iv19, i64 2
  %152 = load double, double* %151, align 8, !tbaa !1
  %153 = fmul double %152, %93
  %154 = fadd double %150, %153
  %155 = getelementptr inbounds [4 x double], [4 x double]* %hourgam, i64 %indvars.iv19, i64 3
  %156 = load double, double* %155, align 8, !tbaa !1
  %157 = fmul double %156, %94
  %158 = fadd double %154, %157
  %159 = fmul double %158, %coefficient
  %160 = getelementptr inbounds double, double* %hgfy, i64 %indvars.iv19
  store double %159, double* %160, align 8, !tbaa !1
  %indvars.iv.next20 = add nuw nsw i64 %indvars.iv19, 1
  %exitcond21 = icmp eq i64 %indvars.iv.next20, 8
  br i1 %exitcond21, label %.preheader6, label %143

.preheader:                                       ; preds = %165
  %161 = load double, double* %17, align 16
  %162 = load double, double* %19, align 8
  %163 = load double, double* %21, align 16
  %164 = load double, double* %23, align 8
  br label %199

; <label>:165                                     ; preds = %165, %.preheader6
  %indvars.iv16 = phi i64 [ 0, %.preheader6 ], [ %indvars.iv.next17, %165 ]
  %166 = getelementptr inbounds [4 x double], [4 x double]* %hourgam, i64 0, i64 %indvars.iv16
  %167 = load double, double* %166, align 8, !tbaa !1
  %168 = fmul double %167, %128
  %169 = getelementptr inbounds [4 x double], [4 x double]* %hourgam, i64 1, i64 %indvars.iv16
  %170 = load double, double* %169, align 8, !tbaa !1
  %171 = fmul double %170, %130
  %172 = fadd double %168, %171
  %173 = getelementptr inbounds [4 x double], [4 x double]* %hourgam, i64 2, i64 %indvars.iv16
  %174 = load double, double* %173, align 8, !tbaa !1
  %175 = fmul double %174, %132
  %176 = fadd double %172, %175
  %177 = getelementptr inbounds [4 x double], [4 x double]* %hourgam, i64 3, i64 %indvars.iv16
  %178 = load double, double* %177, align 8, !tbaa !1
  %179 = fmul double %178, %134
  %180 = fadd double %176, %179
  %181 = getelementptr inbounds [4 x double], [4 x double]* %hourgam, i64 4, i64 %indvars.iv16
  %182 = load double, double* %181, align 8, !tbaa !1
  %183 = fmul double %182, %136
  %184 = fadd double %180, %183
  %185 = getelementptr inbounds [4 x double], [4 x double]* %hourgam, i64 5, i64 %indvars.iv16
  %186 = load double, double* %185, align 8, !tbaa !1
  %187 = fmul double %186, %138
  %188 = fadd double %184, %187
  %189 = getelementptr inbounds [4 x double], [4 x double]* %hourgam, i64 6, i64 %indvars.iv16
  %190 = load double, double* %189, align 8, !tbaa !1
  %191 = fmul double %190, %140
  %192 = fadd double %188, %191
  %193 = getelementptr inbounds [4 x double], [4 x double]* %hourgam, i64 7, i64 %indvars.iv16
  %194 = load double, double* %193, align 8, !tbaa !1
  %195 = fmul double %194, %142
  %196 = fadd double %192, %195
  %197 = getelementptr inbounds [4 x double], [4 x double]* %hxx, i64 0, i64 %indvars.iv16
  store double %196, double* %197, align 8, !tbaa !1
  %indvars.iv.next17 = add nuw nsw i64 %indvars.iv16, 1
  %exitcond18 = icmp eq i64 %indvars.iv.next17, 4
  br i1 %exitcond18, label %.preheader, label %165

; <label>:198                                     ; preds = %199
  call void @llvm.lifetime.end(i64 32, i8* %1) #2
  ret void

; <label>:199                                     ; preds = %199, %.preheader
  %indvars.iv = phi i64 [ 0, %.preheader ], [ %indvars.iv.next, %199 ]
  %200 = getelementptr inbounds [4 x double], [4 x double]* %hourgam, i64 %indvars.iv, i64 0
  %201 = load double, double* %200, align 8, !tbaa !1
  %202 = fmul double %201, %161
  %203 = getelementptr inbounds [4 x double], [4 x double]* %hourgam, i64 %indvars.iv, i64 1
  %204 = load double, double* %203, align 8, !tbaa !1
  %205 = fmul double %204, %162
  %206 = fadd double %202, %205
  %207 = getelementptr inbounds [4 x double], [4 x double]* %hourgam, i64 %indvars.iv, i64 2
  %208 = load double, double* %207, align 8, !tbaa !1
  %209 = fmul double %208, %163
  %210 = fadd double %206, %209
  %211 = getelementptr inbounds [4 x double], [4 x double]* %hourgam, i64 %indvars.iv, i64 3
  %212 = load double, double* %211, align 8, !tbaa !1
  %213 = fmul double %212, %164
  %214 = fadd double %210, %213
  %215 = fmul double %214, %coefficient
  %216 = getelementptr inbounds double, double* %hgfz, i64 %indvars.iv
  store double %215, double* %216, align 8, !tbaa !1
  %indvars.iv.next = add nuw nsw i64 %indvars.iv, 1
  %exitcond = icmp eq i64 %indvars.iv.next, 8
  br i1 %exitcond, label %198, label %199
}

; Function Attrs: nounwind uwtable
define linkonce_odr void @_Z7ReleaseIdEvPPT_(double** nocapture %ptr) #5 comdat {
  %1 = load double*, double** %ptr, align 8, !tbaa !32
  %2 = icmp eq double* %1, null
  br i1 %2, label %5, label %3

; <label>:3                                       ; preds = %0
  %4 = bitcast double* %1 to i8*
  tail call void @free(i8* %4) #2
  store double* null, double** %ptr, align 8, !tbaa !32
  br label %5

; <label>:5                                       ; preds = %3, %0
  ret void
}

; Function Attrs: nounwind
declare void @free(i8* nocapture) #10

; Function Attrs: inlinehint norecurse nounwind uwtable
define internal fastcc void @_ZL24CalcAccelerationForNodesR6Domaini(%class.Domain* nocapture readonly dereferenceable(1456) %domain, i32 %numNode) unnamed_addr #7 {
  %1 = icmp sgt i32 %numNode, 0
  br i1 %1, label %.lr.ph.preheader, label %._crit_edge

.lr.ph.preheader:                                 ; preds = %0
  br label %.lr.ph

._crit_edge.loopexit:                             ; preds = %.lr.ph
  br label %._crit_edge

._crit_edge:                                      ; preds = %._crit_edge.loopexit, %0
  ret void

.lr.ph:                                           ; preds = %.lr.ph.preheader, %.lr.ph
  %i.01 = phi i32 [ %20, %.lr.ph ], [ 0, %.lr.ph.preheader ]
  %2 = tail call dereferenceable(8) double* @_ZN6Domain2fxEi(%class.Domain* nonnull %domain, i32 %i.01)
  %3 = load double, double* %2, align 8, !tbaa !1
  %4 = tail call dereferenceable(8) double* @_ZN6Domain9nodalMassEi(%class.Domain* nonnull %domain, i32 %i.01)
  %5 = load double, double* %4, align 8, !tbaa !1
  %6 = fdiv double %3, %5
  %7 = tail call dereferenceable(8) double* @_ZN6Domain3xddEi(%class.Domain* nonnull %domain, i32 %i.01)
  store double %6, double* %7, align 8, !tbaa !1
  %8 = tail call dereferenceable(8) double* @_ZN6Domain2fyEi(%class.Domain* nonnull %domain, i32 %i.01)
  %9 = load double, double* %8, align 8, !tbaa !1
  %10 = tail call dereferenceable(8) double* @_ZN6Domain9nodalMassEi(%class.Domain* nonnull %domain, i32 %i.01)
  %11 = load double, double* %10, align 8, !tbaa !1
  %12 = fdiv double %9, %11
  %13 = tail call dereferenceable(8) double* @_ZN6Domain3yddEi(%class.Domain* nonnull %domain, i32 %i.01)
  store double %12, double* %13, align 8, !tbaa !1
  %14 = tail call dereferenceable(8) double* @_ZN6Domain2fzEi(%class.Domain* nonnull %domain, i32 %i.01)
  %15 = load double, double* %14, align 8, !tbaa !1
  %16 = tail call dereferenceable(8) double* @_ZN6Domain9nodalMassEi(%class.Domain* nonnull %domain, i32 %i.01)
  %17 = load double, double* %16, align 8, !tbaa !1
  %18 = fdiv double %15, %17
  %19 = tail call dereferenceable(8) double* @_ZN6Domain3zddEi(%class.Domain* nonnull %domain, i32 %i.01)
  store double %18, double* %19, align 8, !tbaa !1
  %20 = add nuw nsw i32 %i.01, 1
  %exitcond = icmp eq i32 %20, %numNode
  br i1 %exitcond, label %._crit_edge.loopexit, label %.lr.ph
}

; Function Attrs: norecurse nounwind readonly uwtable
define linkonce_odr nonnull dereferenceable(8) double* @_ZN6Domain9nodalMassEi(%class.Domain* nocapture readonly %this, i32 %idx) #3 comdat align 2 {
  %1 = getelementptr inbounds %class.Domain, %class.Domain* %this, i64 0, i32 12
  %2 = sext i32 %idx to i64
  %3 = tail call dereferenceable(8) double* @_ZNSt6vectorIdSaIdEEixEm(%"class.std::vector"* %1, i64 %2)
  ret double* %3
}

; Function Attrs: norecurse nounwind readonly uwtable
define linkonce_odr nonnull dereferenceable(8) double* @_ZN6Domain3xddEi(%class.Domain* nocapture readonly %this, i32 %idx) #3 comdat align 2 {
  %1 = getelementptr inbounds %class.Domain, %class.Domain* %this, i64 0, i32 6
  %2 = sext i32 %idx to i64
  %3 = tail call dereferenceable(8) double* @_ZNSt6vectorIdSaIdEEixEm(%"class.std::vector"* %1, i64 %2)
  ret double* %3
}

; Function Attrs: norecurse nounwind readonly uwtable
define linkonce_odr nonnull dereferenceable(8) double* @_ZN6Domain3yddEi(%class.Domain* nocapture readonly %this, i32 %idx) #3 comdat align 2 {
  %1 = getelementptr inbounds %class.Domain, %class.Domain* %this, i64 0, i32 7
  %2 = sext i32 %idx to i64
  %3 = tail call dereferenceable(8) double* @_ZNSt6vectorIdSaIdEEixEm(%"class.std::vector"* %1, i64 %2)
  ret double* %3
}

; Function Attrs: norecurse nounwind readonly uwtable
define linkonce_odr nonnull dereferenceable(8) double* @_ZN6Domain3zddEi(%class.Domain* nocapture readonly %this, i32 %idx) #3 comdat align 2 {
  %1 = getelementptr inbounds %class.Domain, %class.Domain* %this, i64 0, i32 8
  %2 = sext i32 %idx to i64
  %3 = tail call dereferenceable(8) double* @_ZNSt6vectorIdSaIdEEixEm(%"class.std::vector"* %1, i64 %2)
  ret double* %3
}

; Function Attrs: inlinehint norecurse nounwind uwtable
define internal fastcc void @_ZL43ApplyAccelerationBoundaryConditionsForNodesR6Domain(%class.Domain* readonly dereferenceable(1456) %domain) unnamed_addr #7 {
  %1 = tail call dereferenceable(4) i32* @_ZN6Domain5sizeXEv(%class.Domain* nonnull %domain)
  %2 = load i32, i32* %1, align 4, !tbaa !5
  %3 = add nsw i32 %2, 1
  %4 = mul nsw i32 %3, %3
  %5 = tail call zeroext i1 @_ZN6Domain10symmXemptyEv(%class.Domain* nonnull %domain)
  %.not = xor i1 %5, true
  %6 = icmp ne i32 %4, 0
  %or.cond = and i1 %6, %.not
  br i1 %or.cond, label %.lr.ph11.preheader, label %.loopexit6

.lr.ph11.preheader:                               ; preds = %0
  br label %.lr.ph11

.lr.ph11:                                         ; preds = %.lr.ph11.preheader, %.lr.ph11
  %i.010 = phi i32 [ %9, %.lr.ph11 ], [ 0, %.lr.ph11.preheader ]
  %7 = tail call i32 @_ZN6Domain5symmXEi(%class.Domain* nonnull %domain, i32 %i.010)
  %8 = tail call dereferenceable(8) double* @_ZN6Domain3xddEi(%class.Domain* nonnull %domain, i32 %7)
  store double 0.000000e+00, double* %8, align 8, !tbaa !1
  %9 = add nuw nsw i32 %i.010, 1
  %10 = icmp slt i32 %9, %4
  br i1 %10, label %.lr.ph11, label %.loopexit6.loopexit

.loopexit6.loopexit:                              ; preds = %.lr.ph11
  br label %.loopexit6

.loopexit6:                                       ; preds = %.loopexit6.loopexit, %0
  %11 = tail call zeroext i1 @_ZN6Domain10symmYemptyEv(%class.Domain* nonnull %domain)
  %.not12 = xor i1 %11, true
  %or.cond13 = and i1 %6, %.not12
  br i1 %or.cond13, label %.lr.ph9.preheader, label %.loopexit4

.lr.ph9.preheader:                                ; preds = %.loopexit6
  br label %.lr.ph9

.lr.ph9:                                          ; preds = %.lr.ph9.preheader, %.lr.ph9
  %i1.08 = phi i32 [ %14, %.lr.ph9 ], [ 0, %.lr.ph9.preheader ]
  %12 = tail call i32 @_ZN6Domain5symmYEi(%class.Domain* nonnull %domain, i32 %i1.08)
  %13 = tail call dereferenceable(8) double* @_ZN6Domain3yddEi(%class.Domain* nonnull %domain, i32 %12)
  store double 0.000000e+00, double* %13, align 8, !tbaa !1
  %14 = add nuw nsw i32 %i1.08, 1
  %15 = icmp slt i32 %14, %4
  br i1 %15, label %.lr.ph9, label %.loopexit4.loopexit

.loopexit4.loopexit:                              ; preds = %.lr.ph9
  br label %.loopexit4

.loopexit4:                                       ; preds = %.loopexit4.loopexit, %.loopexit6
  %16 = tail call zeroext i1 @_ZN6Domain10symmZemptyEv(%class.Domain* nonnull %domain)
  %.not14 = xor i1 %16, true
  %or.cond15 = and i1 %6, %.not14
  br i1 %or.cond15, label %.lr.ph.preheader, label %.loopexit

.lr.ph.preheader:                                 ; preds = %.loopexit4
  br label %.lr.ph

.lr.ph:                                           ; preds = %.lr.ph.preheader, %.lr.ph
  %i2.07 = phi i32 [ %19, %.lr.ph ], [ 0, %.lr.ph.preheader ]
  %17 = tail call i32 @_ZN6Domain5symmZEi(%class.Domain* nonnull %domain, i32 %i2.07)
  %18 = tail call dereferenceable(8) double* @_ZN6Domain3zddEi(%class.Domain* nonnull %domain, i32 %17)
  store double 0.000000e+00, double* %18, align 8, !tbaa !1
  %19 = add nuw nsw i32 %i2.07, 1
  %20 = icmp slt i32 %19, %4
  br i1 %20, label %.lr.ph, label %.loopexit.loopexit

.loopexit.loopexit:                               ; preds = %.lr.ph
  br label %.loopexit

.loopexit:                                        ; preds = %.loopexit.loopexit, %.loopexit4
  ret void
}

; Function Attrs: norecurse nounwind readnone uwtable
define linkonce_odr dereferenceable(4) i32* @_ZN6Domain5sizeXEv(%class.Domain* readnone %this) #13 comdat align 2 {
  %1 = getelementptr inbounds %class.Domain, %class.Domain* %this, i64 0, i32 85
  ret i32* %1
}

; Function Attrs: norecurse nounwind uwtable
define linkonce_odr zeroext i1 @_ZN6Domain10symmXemptyEv(%class.Domain* nocapture readonly %this) #16 comdat align 2 {
  %1 = getelementptr inbounds %class.Domain, %class.Domain* %this, i64 0, i32 13
  %2 = tail call zeroext i1 @_ZNKSt6vectorIiSaIiEE5emptyEv(%"class.std::vector.0"* %1)
  ret i1 %2
}

; Function Attrs: norecurse nounwind uwtable
define linkonce_odr zeroext i1 @_ZNKSt6vectorIiSaIiEE5emptyEv(%"class.std::vector.0"* nocapture readonly %this) #16 comdat align 2 {
  %1 = alloca %"class.__gnu_cxx::__normal_iterator", align 8
  %2 = alloca %"class.__gnu_cxx::__normal_iterator", align 8
  %3 = tail call i32* @_ZNKSt6vectorIiSaIiEE5beginEv(%"class.std::vector.0"* %this)
  %4 = getelementptr inbounds %"class.__gnu_cxx::__normal_iterator", %"class.__gnu_cxx::__normal_iterator"* %1, i64 0, i32 0
  store i32* %3, i32** %4, align 8
  %5 = tail call i32* @_ZNKSt6vectorIiSaIiEE3endEv(%"class.std::vector.0"* %this)
  %6 = getelementptr inbounds %"class.__gnu_cxx::__normal_iterator", %"class.__gnu_cxx::__normal_iterator"* %2, i64 0, i32 0
  store i32* %5, i32** %6, align 8
  %7 = call zeroext i1 @_ZN9__gnu_cxxeqIPKiSt6vectorIiSaIiEEEEbRKNS_17__normal_iteratorIT_T0_EESB_(%"class.__gnu_cxx::__normal_iterator"* nonnull dereferenceable(8) %1, %"class.__gnu_cxx::__normal_iterator"* nonnull dereferenceable(8) %2)
  ret i1 %7
}

; Function Attrs: norecurse nounwind uwtable
define linkonce_odr i32* @_ZNKSt6vectorIiSaIiEE5beginEv(%"class.std::vector.0"* nocapture readonly %this) #16 comdat align 2 {
  %1 = alloca %"class.__gnu_cxx::__normal_iterator", align 8
  %2 = alloca i32*, align 8
  %3 = bitcast %"class.std::vector.0"* %this to i64*
  %4 = load i64, i64* %3, align 8, !tbaa !7
  %5 = bitcast i32** %2 to i64*
  store i64 %4, i64* %5, align 8, !tbaa !32
  call void @_ZN9__gnu_cxx17__normal_iteratorIPKiSt6vectorIiSaIiEEEC2ERKS2_(%"class.__gnu_cxx::__normal_iterator"* nonnull %1, i32** nonnull dereferenceable(8) %2)
  %6 = getelementptr inbounds %"class.__gnu_cxx::__normal_iterator", %"class.__gnu_cxx::__normal_iterator"* %1, i64 0, i32 0
  %7 = load i32*, i32** %6, align 8
  ret i32* %7
}

; Function Attrs: norecurse nounwind uwtable
define linkonce_odr void @_ZN9__gnu_cxx17__normal_iteratorIPKiSt6vectorIiSaIiEEEC2ERKS2_(%"class.__gnu_cxx::__normal_iterator"* nocapture %this, i32** nocapture readonly dereferenceable(8) %__i) unnamed_addr #16 comdat align 2 {
  %1 = bitcast i32** %__i to i64*
  %2 = load i64, i64* %1, align 8, !tbaa !32
  %3 = bitcast %"class.__gnu_cxx::__normal_iterator"* %this to i64*
  store i64 %2, i64* %3, align 8, !tbaa !34
  ret void
}

; Function Attrs: norecurse nounwind uwtable
define linkonce_odr i32* @_ZNKSt6vectorIiSaIiEE3endEv(%"class.std::vector.0"* nocapture readonly %this) #16 comdat align 2 {
  %1 = alloca %"class.__gnu_cxx::__normal_iterator", align 8
  %2 = alloca i32*, align 8
  %3 = getelementptr inbounds %"class.std::vector.0", %"class.std::vector.0"* %this, i64 0, i32 0, i32 0, i32 1
  %4 = bitcast i32** %3 to i64*
  %5 = load i64, i64* %4, align 8, !tbaa !36
  %6 = bitcast i32** %2 to i64*
  store i64 %5, i64* %6, align 8, !tbaa !32
  call void @_ZN9__gnu_cxx17__normal_iteratorIPKiSt6vectorIiSaIiEEEC2ERKS2_(%"class.__gnu_cxx::__normal_iterator"* nonnull %1, i32** nonnull dereferenceable(8) %2)
  %7 = getelementptr inbounds %"class.__gnu_cxx::__normal_iterator", %"class.__gnu_cxx::__normal_iterator"* %1, i64 0, i32 0
  %8 = load i32*, i32** %7, align 8
  ret i32* %8
}

; Function Attrs: inlinehint norecurse nounwind readonly uwtable
define linkonce_odr zeroext i1 @_ZN9__gnu_cxxeqIPKiSt6vectorIiSaIiEEEEbRKNS_17__normal_iteratorIT_T0_EESB_(%"class.__gnu_cxx::__normal_iterator"* readonly dereferenceable(8) %__lhs, %"class.__gnu_cxx::__normal_iterator"* readonly dereferenceable(8) %__rhs) #9 comdat {
  %1 = tail call dereferenceable(8) i32** @_ZNK9__gnu_cxx17__normal_iteratorIPKiSt6vectorIiSaIiEEE4baseEv(%"class.__gnu_cxx::__normal_iterator"* nonnull %__lhs)
  %2 = load i32*, i32** %1, align 8, !tbaa !32
  %3 = tail call dereferenceable(8) i32** @_ZNK9__gnu_cxx17__normal_iteratorIPKiSt6vectorIiSaIiEEE4baseEv(%"class.__gnu_cxx::__normal_iterator"* nonnull %__rhs)
  %4 = load i32*, i32** %3, align 8, !tbaa !32
  %5 = icmp eq i32* %2, %4
  ret i1 %5
}

; Function Attrs: norecurse nounwind readnone uwtable
define linkonce_odr dereferenceable(8) i32** @_ZNK9__gnu_cxx17__normal_iteratorIPKiSt6vectorIiSaIiEEE4baseEv(%"class.__gnu_cxx::__normal_iterator"* readnone %this) #13 comdat align 2 {
  %1 = getelementptr inbounds %"class.__gnu_cxx::__normal_iterator", %"class.__gnu_cxx::__normal_iterator"* %this, i64 0, i32 0
  ret i32** %1
}

; Function Attrs: norecurse nounwind readonly uwtable
define linkonce_odr i32 @_ZN6Domain5symmXEi(%class.Domain* nocapture readonly %this, i32 %idx) #3 comdat align 2 {
  %1 = getelementptr inbounds %class.Domain, %class.Domain* %this, i64 0, i32 13
  %2 = sext i32 %idx to i64
  %3 = tail call dereferenceable(4) i32* @_ZNSt6vectorIiSaIiEEixEm(%"class.std::vector.0"* %1, i64 %2)
  %4 = load i32, i32* %3, align 4, !tbaa !5
  ret i32 %4
}

; Function Attrs: norecurse nounwind uwtable
define linkonce_odr zeroext i1 @_ZN6Domain10symmYemptyEv(%class.Domain* nocapture readonly %this) #16 comdat align 2 {
  %1 = getelementptr inbounds %class.Domain, %class.Domain* %this, i64 0, i32 14
  %2 = tail call zeroext i1 @_ZNKSt6vectorIiSaIiEE5emptyEv(%"class.std::vector.0"* %1)
  ret i1 %2
}

; Function Attrs: norecurse nounwind readonly uwtable
define linkonce_odr i32 @_ZN6Domain5symmYEi(%class.Domain* nocapture readonly %this, i32 %idx) #3 comdat align 2 {
  %1 = getelementptr inbounds %class.Domain, %class.Domain* %this, i64 0, i32 14
  %2 = sext i32 %idx to i64
  %3 = tail call dereferenceable(4) i32* @_ZNSt6vectorIiSaIiEEixEm(%"class.std::vector.0"* %1, i64 %2)
  %4 = load i32, i32* %3, align 4, !tbaa !5
  ret i32 %4
}

; Function Attrs: norecurse nounwind uwtable
define linkonce_odr zeroext i1 @_ZN6Domain10symmZemptyEv(%class.Domain* nocapture readonly %this) #16 comdat align 2 {
  %1 = getelementptr inbounds %class.Domain, %class.Domain* %this, i64 0, i32 15
  %2 = tail call zeroext i1 @_ZNKSt6vectorIiSaIiEE5emptyEv(%"class.std::vector.0"* %1)
  ret i1 %2
}

; Function Attrs: norecurse nounwind readonly uwtable
define linkonce_odr i32 @_ZN6Domain5symmZEi(%class.Domain* nocapture readonly %this, i32 %idx) #3 comdat align 2 {
  %1 = getelementptr inbounds %class.Domain, %class.Domain* %this, i64 0, i32 15
  %2 = sext i32 %idx to i64
  %3 = tail call dereferenceable(4) i32* @_ZNSt6vectorIiSaIiEEixEm(%"class.std::vector.0"* %1, i64 %2)
  %4 = load i32, i32* %3, align 4, !tbaa !5
  ret i32 %4
}

; Function Attrs: inlinehint norecurse nounwind uwtable
define internal fastcc void @_ZL20CalcVelocityForNodesR6Domainddi(%class.Domain* nocapture readonly dereferenceable(1456) %domain, double %dt, double %u_cut, i32 %numNode) unnamed_addr #7 {
  %1 = icmp sgt i32 %numNode, 0
  br i1 %1, label %.lr.ph.preheader, label %._crit_edge

.lr.ph.preheader:                                 ; preds = %0
  br label %.lr.ph

._crit_edge.loopexit:                             ; preds = %.lr.ph
  br label %._crit_edge

._crit_edge:                                      ; preds = %._crit_edge.loopexit, %0
  ret void

.lr.ph:                                           ; preds = %.lr.ph.preheader, %.lr.ph
  %i.01 = phi i32 [ %26, %.lr.ph ], [ 0, %.lr.ph.preheader ]
  %2 = tail call dereferenceable(8) double* @_ZN6Domain2xdEi(%class.Domain* nonnull %domain, i32 %i.01)
  %3 = load double, double* %2, align 8, !tbaa !1
  %4 = tail call dereferenceable(8) double* @_ZN6Domain3xddEi(%class.Domain* nonnull %domain, i32 %i.01)
  %5 = load double, double* %4, align 8, !tbaa !1
  %6 = fmul double %5, %dt
  %7 = fadd double %3, %6
  %8 = tail call double @_Z4FABSd(double %7)
  %9 = fcmp olt double %8, %u_cut
  %xdtmp.0 = select i1 %9, double 0.000000e+00, double %7
  store double %xdtmp.0, double* %2, align 8, !tbaa !1
  %10 = tail call dereferenceable(8) double* @_ZN6Domain2ydEi(%class.Domain* nonnull %domain, i32 %i.01)
  %11 = load double, double* %10, align 8, !tbaa !1
  %12 = tail call dereferenceable(8) double* @_ZN6Domain3yddEi(%class.Domain* nonnull %domain, i32 %i.01)
  %13 = load double, double* %12, align 8, !tbaa !1
  %14 = fmul double %13, %dt
  %15 = fadd double %11, %14
  %16 = tail call double @_Z4FABSd(double %15)
  %17 = fcmp olt double %16, %u_cut
  %ydtmp.0 = select i1 %17, double 0.000000e+00, double %15
  store double %ydtmp.0, double* %10, align 8, !tbaa !1
  %18 = tail call dereferenceable(8) double* @_ZN6Domain2zdEi(%class.Domain* nonnull %domain, i32 %i.01)
  %19 = load double, double* %18, align 8, !tbaa !1
  %20 = tail call dereferenceable(8) double* @_ZN6Domain3zddEi(%class.Domain* nonnull %domain, i32 %i.01)
  %21 = load double, double* %20, align 8, !tbaa !1
  %22 = fmul double %21, %dt
  %23 = fadd double %19, %22
  %24 = tail call double @_Z4FABSd(double %23)
  %25 = fcmp olt double %24, %u_cut
  %zdtmp.0 = select i1 %25, double 0.000000e+00, double %23
  store double %zdtmp.0, double* %18, align 8, !tbaa !1
  %26 = add nuw nsw i32 %i.01, 1
  %exitcond = icmp eq i32 %26, %numNode
  br i1 %exitcond, label %._crit_edge.loopexit, label %.lr.ph
}

; Function Attrs: inlinehint nounwind readnone uwtable
define linkonce_odr double @_Z4FABSd(double %arg) #17 comdat {
  %1 = tail call double @fabs(double %arg) #22
  ret double %1
}

; Function Attrs: nounwind readnone
declare double @fabs(double) #18

; Function Attrs: inlinehint norecurse nounwind uwtable
define internal fastcc void @_ZL20CalcPositionForNodesR6Domaindi(%class.Domain* nocapture readonly dereferenceable(1456) %domain, double %dt, i32 %numNode) unnamed_addr #7 {
  %1 = icmp sgt i32 %numNode, 0
  br i1 %1, label %.lr.ph.preheader, label %._crit_edge

.lr.ph.preheader:                                 ; preds = %0
  br label %.lr.ph

._crit_edge.loopexit:                             ; preds = %.lr.ph
  br label %._crit_edge

._crit_edge:                                      ; preds = %._crit_edge.loopexit, %0
  ret void

.lr.ph:                                           ; preds = %.lr.ph.preheader, %.lr.ph
  %i.01 = phi i32 [ %20, %.lr.ph ], [ 0, %.lr.ph.preheader ]
  %2 = tail call dereferenceable(8) double* @_ZN6Domain2xdEi(%class.Domain* nonnull %domain, i32 %i.01)
  %3 = load double, double* %2, align 8, !tbaa !1
  %4 = fmul double %3, %dt
  %5 = tail call dereferenceable(8) double* @_ZN6Domain1xEi(%class.Domain* nonnull %domain, i32 %i.01)
  %6 = load double, double* %5, align 8, !tbaa !1
  %7 = fadd double %4, %6
  store double %7, double* %5, align 8, !tbaa !1
  %8 = tail call dereferenceable(8) double* @_ZN6Domain2ydEi(%class.Domain* nonnull %domain, i32 %i.01)
  %9 = load double, double* %8, align 8, !tbaa !1
  %10 = fmul double %9, %dt
  %11 = tail call dereferenceable(8) double* @_ZN6Domain1yEi(%class.Domain* nonnull %domain, i32 %i.01)
  %12 = load double, double* %11, align 8, !tbaa !1
  %13 = fadd double %10, %12
  store double %13, double* %11, align 8, !tbaa !1
  %14 = tail call dereferenceable(8) double* @_ZN6Domain2zdEi(%class.Domain* nonnull %domain, i32 %i.01)
  %15 = load double, double* %14, align 8, !tbaa !1
  %16 = fmul double %15, %dt
  %17 = tail call dereferenceable(8) double* @_ZN6Domain1zEi(%class.Domain* nonnull %domain, i32 %i.01)
  %18 = load double, double* %17, align 8, !tbaa !1
  %19 = fadd double %16, %18
  store double %19, double* %17, align 8, !tbaa !1
  %20 = add nuw nsw i32 %i.01, 1
  %exitcond = icmp eq i32 %20, %numNode
  br i1 %exitcond, label %._crit_edge.loopexit, label %.lr.ph
}

; Function Attrs: inlinehint norecurse uwtable
define internal fastcc void @_ZL16LagrangeElementsR6Domaini(%class.Domain* dereferenceable(1456) %domain, i32 %numElem) unnamed_addr #14 {
  %vnew = alloca double*, align 8
  %1 = bitcast double** %vnew to i8*
  call void @llvm.lifetime.start(i64 8, i8* %1) #2
  %2 = sext i32 %numElem to i64
  %3 = tail call double* @_Z8AllocateIdEPT_m(i64 %2)
  store double* %3, double** %vnew, align 8, !tbaa !32
  tail call fastcc void @_ZL20CalcLagrangeElementsR6DomainPd(%class.Domain* nonnull dereferenceable(1456) %domain, double* %3)
  tail call fastcc void @_ZL13CalcQForElemsR6DomainPd(%class.Domain* nonnull dereferenceable(1456) %domain, double* %3)
  tail call fastcc void @_ZL31ApplyMaterialPropertiesForElemsR6DomainPd(%class.Domain* nonnull dereferenceable(1456) %domain, double* %3)
  %4 = tail call double @_ZNK6Domain5v_cutEv(%class.Domain* nonnull %domain)
  tail call fastcc void @_ZL21UpdateVolumesForElemsR6DomainPddi(%class.Domain* nonnull dereferenceable(1456) %domain, double* %3, double %4, i32 %numElem)
  call void @_Z7ReleaseIdEvPPT_(double** nonnull %vnew)
  call void @llvm.lifetime.end(i64 8, i8* %1) #2
  ret void
}

; Function Attrs: inlinehint norecurse uwtable
define internal fastcc void @_ZL20CalcLagrangeElementsR6DomainPd(%class.Domain* dereferenceable(1456) %domain, double* nocapture %vnew) unnamed_addr #14 {
  %1 = tail call dereferenceable(4) i32* @_ZN6Domain7numElemEv(%class.Domain* nonnull %domain)
  %2 = load i32, i32* %1, align 4, !tbaa !5
  %3 = icmp sgt i32 %2, 0
  br i1 %3, label %.lr.ph.preheader, label %33

.lr.ph.preheader:                                 ; preds = %0
  %4 = tail call dereferenceable(8) double* @_ZN6Domain9deltatimeEv(%class.Domain* nonnull %domain)
  %5 = load double, double* %4, align 8, !tbaa !1
  tail call void @_ZN6Domain15AllocateStrainsEi(%class.Domain* nonnull %domain, i32 %2)
  tail call void @_Z22CalcKinematicsForElemsR6DomainPddi(%class.Domain* nonnull dereferenceable(1456) %domain, double* %vnew, double %5, i32 %2)
  %6 = sext i32 %2 to i64
  br label %.lr.ph

; <label>:7                                       ; preds = %.lr.ph
  %8 = icmp slt i64 %indvars.iv.next, %6
  br i1 %8, label %.lr.ph, label %._crit_edge

._crit_edge:                                      ; preds = %7
  tail call void @_ZN6Domain17DeallocateStrainsEv(%class.Domain* nonnull %domain)
  br label %33

.lr.ph:                                           ; preds = %7, %.lr.ph.preheader
  %indvars.iv = phi i64 [ 0, %.lr.ph.preheader ], [ %indvars.iv.next, %7 ]
  %9 = trunc i64 %indvars.iv to i32
  %10 = tail call dereferenceable(8) double* @_ZN6Domain3dxxEi(%class.Domain* nonnull %domain, i32 %9)
  %11 = load double, double* %10, align 8, !tbaa !1
  %12 = tail call dereferenceable(8) double* @_ZN6Domain3dyyEi(%class.Domain* nonnull %domain, i32 %9)
  %13 = load double, double* %12, align 8, !tbaa !1
  %14 = fadd double %11, %13
  %15 = tail call dereferenceable(8) double* @_ZN6Domain3dzzEi(%class.Domain* nonnull %domain, i32 %9)
  %16 = load double, double* %15, align 8, !tbaa !1
  %17 = fadd double %14, %16
  %18 = fdiv double %17, 3.000000e+00
  %19 = tail call dereferenceable(8) double* @_ZN6Domain4vdovEi(%class.Domain* nonnull %domain, i32 %9)
  store double %17, double* %19, align 8, !tbaa !1
  %20 = tail call dereferenceable(8) double* @_ZN6Domain3dxxEi(%class.Domain* nonnull %domain, i32 %9)
  %21 = load double, double* %20, align 8, !tbaa !1
  %22 = fsub double %21, %18
  store double %22, double* %20, align 8, !tbaa !1
  %23 = tail call dereferenceable(8) double* @_ZN6Domain3dyyEi(%class.Domain* nonnull %domain, i32 %9)
  %24 = load double, double* %23, align 8, !tbaa !1
  %25 = fsub double %24, %18
  store double %25, double* %23, align 8, !tbaa !1
  %26 = tail call dereferenceable(8) double* @_ZN6Domain3dzzEi(%class.Domain* nonnull %domain, i32 %9)
  %27 = load double, double* %26, align 8, !tbaa !1
  %28 = fsub double %27, %18
  store double %28, double* %26, align 8, !tbaa !1
  %29 = getelementptr inbounds double, double* %vnew, i64 %indvars.iv
  %30 = load double, double* %29, align 8, !tbaa !1
  %31 = fcmp ugt double %30, 0.000000e+00
  %indvars.iv.next = add nuw nsw i64 %indvars.iv, 1
  br i1 %31, label %7, label %32

; <label>:32                                      ; preds = %.lr.ph
  tail call void @exit(i32 -1) #26
  unreachable

; <label>:33                                      ; preds = %._crit_edge, %0
  ret void
}

; Function Attrs: uwtable
define linkonce_odr void @_ZN6Domain15AllocateStrainsEi(%class.Domain* %this, i32 %numElem) #0 comdat align 2 {
  %1 = getelementptr inbounds %class.Domain, %class.Domain* %this, i64 0, i32 29
  %2 = sext i32 %numElem to i64
  tail call void @_ZNSt6vectorIdSaIdEE6resizeEmd(%"class.std::vector"* %1, i64 %2, double 0.000000e+00)
  %3 = getelementptr inbounds %class.Domain, %class.Domain* %this, i64 0, i32 30
  tail call void @_ZNSt6vectorIdSaIdEE6resizeEmd(%"class.std::vector"* %3, i64 %2, double 0.000000e+00)
  %4 = getelementptr inbounds %class.Domain, %class.Domain* %this, i64 0, i32 31
  tail call void @_ZNSt6vectorIdSaIdEE6resizeEmd(%"class.std::vector"* %4, i64 %2, double 0.000000e+00)
  ret void
}

; Function Attrs: uwtable
define linkonce_odr void @_ZNSt6vectorIdSaIdEE6resizeEmd(%"class.std::vector"* %this, i64 %__new_size, double %__x) #0 comdat align 2 {
  %1 = alloca double, align 8
  store double %__x, double* %1, align 8, !tbaa !1
  %2 = tail call i64 @_ZNKSt6vectorIdSaIdEE4sizeEv(%"class.std::vector"* %this)
  %3 = icmp ult i64 %2, %__new_size
  br i1 %3, label %4, label %8

; <label>:4                                       ; preds = %0
  %5 = tail call double* @_ZNSt6vectorIdSaIdEE3endEv(%"class.std::vector"* %this)
  %6 = tail call i64 @_ZNKSt6vectorIdSaIdEE4sizeEv(%"class.std::vector"* %this)
  %7 = sub i64 %__new_size, %6
  call void @_ZNSt6vectorIdSaIdEE14_M_fill_insertEN9__gnu_cxx17__normal_iteratorIPdS1_EEmRKd(%"class.std::vector"* %this, double* %5, i64 %7, double* nonnull dereferenceable(8) %1)
  br label %14

; <label>:8                                       ; preds = %0
  %9 = icmp ugt i64 %2, %__new_size
  br i1 %9, label %10, label %14

; <label>:10                                      ; preds = %8
  %11 = getelementptr inbounds %"class.std::vector", %"class.std::vector"* %this, i64 0, i32 0, i32 0, i32 0
  %12 = load double*, double** %11, align 8, !tbaa !11
  %13 = getelementptr inbounds double, double* %12, i64 %__new_size
  tail call void @_ZNSt6vectorIdSaIdEE15_M_erase_at_endEPd(%"class.std::vector"* %this, double* %13)
  br label %14

; <label>:14                                      ; preds = %10, %8, %4
  ret void
}

; Function Attrs: norecurse nounwind readonly uwtable
define linkonce_odr i64 @_ZNKSt6vectorIdSaIdEE4sizeEv(%"class.std::vector"* nocapture readonly %this) #3 comdat align 2 {
  %1 = getelementptr inbounds %"class.std::vector", %"class.std::vector"* %this, i64 0, i32 0, i32 0, i32 1
  %2 = bitcast double** %1 to i64*
  %3 = load i64, i64* %2, align 8, !tbaa !37
  %4 = bitcast %"class.std::vector"* %this to i64*
  %5 = load i64, i64* %4, align 8, !tbaa !11
  %6 = sub i64 %3, %5
  %7 = ashr exact i64 %6, 3
  ret i64 %7
}

; Function Attrs: norecurse nounwind uwtable
define linkonce_odr double* @_ZNSt6vectorIdSaIdEE3endEv(%"class.std::vector"* nocapture readonly %this) #16 comdat align 2 {
  %1 = alloca %"class.__gnu_cxx::__normal_iterator.5", align 8
  %2 = getelementptr inbounds %"class.std::vector", %"class.std::vector"* %this, i64 0, i32 0, i32 0, i32 1
  call void @_ZN9__gnu_cxx17__normal_iteratorIPdSt6vectorIdSaIdEEEC2ERKS1_(%"class.__gnu_cxx::__normal_iterator.5"* nonnull %1, double** dereferenceable(8) %2)
  %3 = getelementptr inbounds %"class.__gnu_cxx::__normal_iterator.5", %"class.__gnu_cxx::__normal_iterator.5"* %1, i64 0, i32 0
  %4 = load double*, double** %3, align 8
  ret double* %4
}

; Function Attrs: norecurse nounwind uwtable
define linkonce_odr void @_ZN9__gnu_cxx17__normal_iteratorIPdSt6vectorIdSaIdEEEC2ERKS1_(%"class.__gnu_cxx::__normal_iterator.5"* nocapture %this, double** nocapture readonly dereferenceable(8) %__i) unnamed_addr #16 comdat align 2 {
  %1 = bitcast double** %__i to i64*
  %2 = load i64, i64* %1, align 8, !tbaa !32
  %3 = bitcast %"class.__gnu_cxx::__normal_iterator.5"* %this to i64*
  store i64 %2, i64* %3, align 8, !tbaa !38
  ret void
}

; Function Attrs: uwtable
define linkonce_odr void @_ZNSt6vectorIdSaIdEE14_M_fill_insertEN9__gnu_cxx17__normal_iteratorIPdS1_EEmRKd(%"class.std::vector"* %this, double* %__position.coerce, i64 %__n, double* nocapture readonly dereferenceable(8) %__x) #0 comdat align 2 personality i8* bitcast (i32 (...)* @__gxx_personality_v0 to i8*) {
  %__position = alloca %"class.__gnu_cxx::__normal_iterator.5", align 8
  %__x_copy = alloca double, align 8
  %1 = alloca %"class.__gnu_cxx::__normal_iterator.5", align 8
  %2 = alloca %"class.__gnu_cxx::__normal_iterator.5", align 8
  %3 = getelementptr inbounds %"class.__gnu_cxx::__normal_iterator.5", %"class.__gnu_cxx::__normal_iterator.5"* %__position, i64 0, i32 0
  store double* %__position.coerce, double** %3, align 8
  %4 = icmp eq i64 %__n, 0
  br i1 %4, label %73, label %5

; <label>:5                                       ; preds = %0
  %6 = getelementptr inbounds %"class.std::vector", %"class.std::vector"* %this, i64 0, i32 0
  %7 = getelementptr inbounds %"class.std::vector", %"class.std::vector"* %this, i64 0, i32 0, i32 0, i32 2
  %8 = bitcast double** %7 to i64*
  %9 = load i64, i64* %8, align 8, !tbaa !40
  %10 = getelementptr inbounds %"class.std::vector", %"class.std::vector"* %this, i64 0, i32 0, i32 0, i32 1
  %11 = bitcast double** %10 to i64*
  %12 = load i64, i64* %11, align 8, !tbaa !37
  %13 = sub i64 %9, %12
  %14 = ashr exact i64 %13, 3
  %15 = icmp ult i64 %14, %__n
  br i1 %15, label %49, label %16

; <label>:16                                      ; preds = %5
  %17 = bitcast double* %__x_copy to i8*
  call void @llvm.lifetime.start(i64 8, i8* %17) #2
  %18 = bitcast double* %__x to i64*
  %19 = load i64, i64* %18, align 8, !tbaa !1
  %20 = bitcast double* %__x_copy to i64*
  store i64 %19, i64* %20, align 8, !tbaa !1
  %21 = tail call double* @_ZNSt6vectorIdSaIdEE3endEv(%"class.std::vector"* nonnull %this)
  %22 = getelementptr inbounds %"class.__gnu_cxx::__normal_iterator.5", %"class.__gnu_cxx::__normal_iterator.5"* %1, i64 0, i32 0
  store double* %21, double** %22, align 8
  %23 = call i64 @_ZN9__gnu_cxxmiIPdSt6vectorIdSaIdEEEENS_17__normal_iteratorIT_T0_E15difference_typeERKS8_SB_(%"class.__gnu_cxx::__normal_iterator.5"* nonnull dereferenceable(8) %1, %"class.__gnu_cxx::__normal_iterator.5"* nonnull dereferenceable(8) %__position)
  %24 = load double*, double** %10, align 8, !tbaa !37
  %25 = icmp ugt i64 %23, %__n
  br i1 %25, label %26, label %38

; <label>:26                                      ; preds = %16
  %27 = sub i64 0, %__n
  %28 = getelementptr inbounds double, double* %24, i64 %27
  %29 = call dereferenceable(1) %"class.std::ios_base::Init"* @_ZNSt12_Vector_baseIdSaIdEE19_M_get_Tp_allocatorEv(%"struct.std::_Vector_base"* nonnull %6)
  %30 = call double* @_ZSt22__uninitialized_move_aIPdS0_SaIdEET0_T_S3_S2_RT1_(double* %28, double* %24, double* %24, %"class.std::ios_base::Init"* nonnull dereferenceable(1) %29)
  %31 = load double*, double** %10, align 8, !tbaa !37
  %32 = getelementptr inbounds double, double* %31, i64 %__n
  store double* %32, double** %10, align 8, !tbaa !37
  %33 = call dereferenceable(8) double** @_ZNK9__gnu_cxx17__normal_iteratorIPdSt6vectorIdSaIdEEE4baseEv(%"class.__gnu_cxx::__normal_iterator.5"* nonnull %__position)
  %34 = load double*, double** %33, align 8, !tbaa !32
  %35 = call double* @_ZSt13copy_backwardIPdS0_ET0_T_S2_S1_(double* %34, double* %28, double* %24)
  %36 = load double*, double** %33, align 8, !tbaa !32
  %37 = getelementptr inbounds double, double* %36, i64 %__n
  call void @_ZSt4fillIPddEvT_S1_RKT0_(double* %36, double* %37, double* nonnull dereferenceable(8) %__x_copy)
  br label %48

; <label>:38                                      ; preds = %16
  %39 = sub i64 %__n, %23
  %40 = call dereferenceable(1) %"class.std::ios_base::Init"* @_ZNSt12_Vector_baseIdSaIdEE19_M_get_Tp_allocatorEv(%"struct.std::_Vector_base"* nonnull %6)
  %41 = call double* @_ZSt24__uninitialized_fill_n_aIPdmddET_S1_T0_RKT1_RSaIT2_E(double* %24, i64 %39, double* nonnull dereferenceable(8) %__x_copy, %"class.std::ios_base::Init"* nonnull dereferenceable(1) %40)
  store double* %41, double** %10, align 8, !tbaa !37
  %42 = call dereferenceable(8) double** @_ZNK9__gnu_cxx17__normal_iteratorIPdSt6vectorIdSaIdEEE4baseEv(%"class.__gnu_cxx::__normal_iterator.5"* nonnull %__position)
  %43 = load double*, double** %42, align 8, !tbaa !32
  %44 = call double* @_ZSt22__uninitialized_move_aIPdS0_SaIdEET0_T_S3_S2_RT1_(double* %43, double* %24, double* %41, %"class.std::ios_base::Init"* nonnull dereferenceable(1) %40)
  %45 = load double*, double** %10, align 8, !tbaa !37
  %46 = getelementptr inbounds double, double* %45, i64 %23
  store double* %46, double** %10, align 8, !tbaa !37
  %47 = load double*, double** %42, align 8, !tbaa !32
  call void @_ZSt4fillIPddEvT_S1_RKT0_(double* %47, double* %24, double* nonnull dereferenceable(8) %__x_copy)
  br label %48

; <label>:48                                      ; preds = %38, %26
  call void @llvm.lifetime.end(i64 8, i8* %17) #2
  br label %73

; <label>:49                                      ; preds = %5
  %50 = tail call i64 @_ZNKSt6vectorIdSaIdEE12_M_check_lenEmPKc(%"class.std::vector"* nonnull %this, i64 %__n, i8* nonnull getelementptr inbounds ([23 x i8], [23 x i8]* @.str.11, i64 0, i64 0))
  %51 = tail call double* @_ZNSt6vectorIdSaIdEE5beginEv(%"class.std::vector"* nonnull %this)
  %52 = getelementptr inbounds %"class.__gnu_cxx::__normal_iterator.5", %"class.__gnu_cxx::__normal_iterator.5"* %2, i64 0, i32 0
  store double* %51, double** %52, align 8
  %53 = call i64 @_ZN9__gnu_cxxmiIPdSt6vectorIdSaIdEEEENS_17__normal_iteratorIT_T0_E15difference_typeERKS8_SB_(%"class.__gnu_cxx::__normal_iterator.5"* nonnull dereferenceable(8) %__position, %"class.__gnu_cxx::__normal_iterator.5"* nonnull dereferenceable(8) %2)
  %54 = tail call double* @_ZNSt12_Vector_baseIdSaIdEE11_M_allocateEm(%"struct.std::_Vector_base"* %6, i64 %50)
  %55 = getelementptr inbounds double, double* %54, i64 %53
  %56 = tail call dereferenceable(1) %"class.std::ios_base::Init"* @_ZNSt12_Vector_baseIdSaIdEE19_M_get_Tp_allocatorEv(%"struct.std::_Vector_base"* %6)
  %57 = call double* @_ZSt24__uninitialized_fill_n_aIPdmddET_S1_T0_RKT1_RSaIT2_E(double* %55, i64 %__n, double* nonnull dereferenceable(8) %__x, %"class.std::ios_base::Init"* nonnull dereferenceable(1) %56)
  %58 = getelementptr inbounds %"class.std::vector", %"class.std::vector"* %this, i64 0, i32 0, i32 0, i32 0
  %59 = load double*, double** %58, align 8, !tbaa !11
  %60 = call dereferenceable(8) double** @_ZNK9__gnu_cxx17__normal_iteratorIPdSt6vectorIdSaIdEEE4baseEv(%"class.__gnu_cxx::__normal_iterator.5"* nonnull %__position)
  %61 = load double*, double** %60, align 8, !tbaa !32
  %62 = call double* @_ZSt34__uninitialized_move_if_noexcept_aIPdS0_SaIdEET0_T_S3_S2_RT1_(double* %59, double* %61, double* %54, %"class.std::ios_base::Init"* nonnull dereferenceable(1) %56)
  %63 = getelementptr inbounds double, double* %62, i64 %__n
  %64 = load double*, double** %60, align 8, !tbaa !32
  %65 = load double*, double** %10, align 8, !tbaa !37
  %66 = call double* @_ZSt34__uninitialized_move_if_noexcept_aIPdS0_SaIdEET0_T_S3_S2_RT1_(double* %64, double* %65, double* %63, %"class.std::ios_base::Init"* nonnull dereferenceable(1) %56)
  %67 = load double*, double** %58, align 8, !tbaa !11
  %68 = load i64, i64* %8, align 8, !tbaa !40
  %69 = ptrtoint double* %67 to i64
  %70 = sub i64 %68, %69
  %71 = ashr exact i64 %70, 3
  call void @_ZNSt12_Vector_baseIdSaIdEE13_M_deallocateEPdm(%"struct.std::_Vector_base"* %6, double* %67, i64 %71)
  store double* %54, double** %58, align 8, !tbaa !11
  store double* %66, double** %10, align 8, !tbaa !37
  %72 = getelementptr inbounds double, double* %54, i64 %50
  store double* %72, double** %7, align 8, !tbaa !40
  br label %73

; <label>:73                                      ; preds = %49, %48, %0
  ret void
}

; Function Attrs: inlinehint norecurse nounwind readonly uwtable
define linkonce_odr i64 @_ZN9__gnu_cxxmiIPdSt6vectorIdSaIdEEEENS_17__normal_iteratorIT_T0_E15difference_typeERKS8_SB_(%"class.__gnu_cxx::__normal_iterator.5"* readonly dereferenceable(8) %__lhs, %"class.__gnu_cxx::__normal_iterator.5"* readonly dereferenceable(8) %__rhs) #9 comdat {
  %1 = tail call dereferenceable(8) double** @_ZNK9__gnu_cxx17__normal_iteratorIPdSt6vectorIdSaIdEEE4baseEv(%"class.__gnu_cxx::__normal_iterator.5"* nonnull %__lhs)
  %2 = bitcast double** %1 to i64*
  %3 = load i64, i64* %2, align 8, !tbaa !32
  %4 = tail call dereferenceable(8) double** @_ZNK9__gnu_cxx17__normal_iteratorIPdSt6vectorIdSaIdEEE4baseEv(%"class.__gnu_cxx::__normal_iterator.5"* nonnull %__rhs)
  %5 = bitcast double** %4 to i64*
  %6 = load i64, i64* %5, align 8, !tbaa !32
  %7 = sub i64 %3, %6
  %8 = ashr exact i64 %7, 3
  ret i64 %8
}

; Function Attrs: norecurse nounwind readnone uwtable
define linkonce_odr dereferenceable(8) double** @_ZNK9__gnu_cxx17__normal_iteratorIPdSt6vectorIdSaIdEEE4baseEv(%"class.__gnu_cxx::__normal_iterator.5"* readnone %this) #13 comdat align 2 {
  %1 = getelementptr inbounds %"class.__gnu_cxx::__normal_iterator.5", %"class.__gnu_cxx::__normal_iterator.5"* %this, i64 0, i32 0
  ret double** %1
}

; Function Attrs: norecurse nounwind readnone uwtable
define linkonce_odr dereferenceable(1) %"class.std::ios_base::Init"* @_ZNSt12_Vector_baseIdSaIdEE19_M_get_Tp_allocatorEv(%"struct.std::_Vector_base"* readnone %this) #13 comdat align 2 {
  %1 = bitcast %"struct.std::_Vector_base"* %this to %"class.std::ios_base::Init"*
  ret %"class.std::ios_base::Init"* %1
}

; Function Attrs: inlinehint norecurse nounwind uwtable
define linkonce_odr double* @_ZSt22__uninitialized_move_aIPdS0_SaIdEET0_T_S3_S2_RT1_(double* %__first, double* %__last, double* %__result, %"class.std::ios_base::Init"* nocapture readnone dereferenceable(1) %__alloc) #7 comdat {
  %1 = tail call double* @_ZSt22__uninitialized_copy_aIPdS0_dET0_T_S2_S1_RSaIT1_E(double* %__first, double* %__last, double* %__result, %"class.std::ios_base::Init"* nonnull dereferenceable(1) %__alloc)
  ret double* %1
}

; Function Attrs: inlinehint norecurse nounwind uwtable
define linkonce_odr double* @_ZSt22__uninitialized_copy_aIPdS0_dET0_T_S2_S1_RSaIT1_E(double* %__first, double* %__last, double* %__result, %"class.std::ios_base::Init"* nocapture readnone dereferenceable(1)) #7 comdat {
  %2 = tail call double* @_ZSt18uninitialized_copyIPdS0_ET0_T_S2_S1_(double* %__first, double* %__last, double* %__result)
  ret double* %2
}

; Function Attrs: inlinehint norecurse nounwind uwtable
define linkonce_odr double* @_ZSt18uninitialized_copyIPdS0_ET0_T_S2_S1_(double* %__first, double* %__last, double* %__result) #7 comdat {
  %1 = tail call double* @_ZNSt20__uninitialized_copyILb1EE13__uninit_copyIPdS2_EET0_T_S4_S3_(double* %__first, double* %__last, double* %__result)
  ret double* %1
}

; Function Attrs: norecurse nounwind uwtable
define linkonce_odr double* @_ZNSt20__uninitialized_copyILb1EE13__uninit_copyIPdS2_EET0_T_S4_S3_(double* %__first, double* %__last, double* %__result) #16 comdat align 2 {
  %1 = tail call double* @_ZSt4copyIPdS0_ET0_T_S2_S1_(double* %__first, double* %__last, double* %__result)
  ret double* %1
}

; Function Attrs: inlinehint norecurse nounwind uwtable
define linkonce_odr double* @_ZSt4copyIPdS0_ET0_T_S2_S1_(double* %__first, double* %__last, double* %__result) #7 comdat {
  %1 = tail call double* @_ZSt12__miter_baseIPdET_S1_(double* %__first)
  %2 = tail call double* @_ZSt12__miter_baseIPdET_S1_(double* %__last)
  %3 = tail call double* @_ZSt14__copy_move_a2ILb0EPdS0_ET1_T0_S2_S1_(double* %1, double* %2, double* %__result)
  ret double* %3
}

; Function Attrs: inlinehint norecurse nounwind readnone uwtable
define linkonce_odr double* @_ZSt12__miter_baseIPdET_S1_(double* readnone %__it) #4 comdat {
  ret double* %__it
}

; Function Attrs: inlinehint norecurse nounwind uwtable
define linkonce_odr double* @_ZSt14__copy_move_a2ILb0EPdS0_ET1_T0_S2_S1_(double* %__first, double* %__last, double* %__result) #7 comdat {
  %1 = tail call double* @_ZSt12__niter_baseIPdET_S1_(double* %__first)
  %2 = tail call double* @_ZSt12__niter_baseIPdET_S1_(double* %__last)
  %3 = tail call double* @_ZSt12__niter_baseIPdET_S1_(double* %__result)
  %4 = tail call double* @_ZSt13__copy_move_aILb0EPdS0_ET1_T0_S2_S1_(double* %1, double* %2, double* %3)
  ret double* %4
}

; Function Attrs: inlinehint norecurse nounwind readnone uwtable
define linkonce_odr double* @_ZSt12__niter_baseIPdET_S1_(double* readnone %__it) #4 comdat {
  ret double* %__it
}

