; ModuleID = 'miniMD-O3.ll'
target datalayout = "e-m:e-i64:64-f80:128-n8:16:32:64-S128"
target triple = "x86_64-unknown-linux-gnu"

%struct._IO_FILE = type { i32, i8*, i8*, i8*, i8*, i8*, i8*, i8*, i8*, i8*, i8*, i8*, %struct._IO_marker*, %struct._IO_FILE*, i32, i32, i64, i16, i8, [1 x i8], i8*, i64, i8*, i8*, i8*, i8*, i64, i32, [20 x i8] }
%struct._IO_marker = type { %struct._IO_marker*, %struct._IO_FILE*, i32 }
%ident_t = type { i32, i32, i32, i32, i8* }
%class.Integrate = type { double, double, i32, i32, i32, double*, double*, double*, double*, double, i32, %class.ThreadData* }
%class.ThreadData = type { i32, i32, i32, i32, i32 }
%class.Atom = type <{ i32, i32, i32, i32, double*, double*, double*, i32, [4 x i8], i32*, double*, %class.ThreadData*, double, double, i32, i32, i32, [4 x i8], %struct.Box, i32*, i32*, double*, double*, i32*, i32, [4 x i8] }>
%struct.Box = type { double, double, double, double, double, double, double, double, double }
%class.ForceLJ = type { %class.Force }
%class.Force = type { i32 (...)**, double, double*, double, double, i32, double, i32, i32, i32, %class.ThreadData*, i32, %class.Timer*, double*, double*, double*, i32, i32 }
%class.Timer = type { double*, double, double }
%class.ForceEAM = type { %class.Force, double, i32, i32, i32, i32, double*, double*, double*, double, double, double, double, double*, double*, double*, double*, double*, i32, i32*, %"struct.ForceEAM::Funcfl" }
%"struct.ForceEAM::Funcfl" = type { i8*, i32, i32, double, double, double, double, double*, double*, double* }
%class.Neighbor = type <{ i32, i32, i32, i32, double, double*, i32, i32, i32*, i32*, i32, i32, i32, i32, %class.Timer*, %class.ThreadData*, i32*, i32*, i32, i32, double, double, double, i32, i32, i32, [4 x i8], i32*, i32, i32, i32, i32, i32, i32, double, double, double, double, double, double, i32, [4 x i8] }>
%class.Thermo = type { i32, i32, i32, i32*, double*, double*, double*, double, double, double, double, double, double, double, double, %class.ThreadData*, double }
%class.Comm = type <{ i32, i32, i32*, i32*, i32*, i32*, i32*, i32*, i32*, i32*, i32*, i32*, i32*, i32*, i32*, i32*, i32*, i32**, i32*, double*, double*, double*, i32, i32, [3 x [2 x i32]], [3 x i32], [3 x i32], double*, double*, %class.ThreadData*, i32, i32, %class.Timer*, i32, [4 x i8], i32*, i32*, i32*, i32**, i32*, i32*, i32, i32, i32, [4 x i8] }>
%struct.In = type { i32, i32, i32, double, double, i32, i32, double, double, i8*, i32, double, i32, double, double, i32 }
%struct.tm = type { i32, i32, i32, i32, i32, i32, i32, i32, i32, i64, i8* }

$__clang_call_terminate = comdat any

$_ZN5Force8finaliseEv = comdat any

$_ZN7ForceLJ16compute_originalILi1EEEvR4AtomR8Neighbori = comdat any

$_ZN7ForceLJ26compute_halfneigh_threadedILi1ELi1EEEvR4AtomR8Neighbori = comdat any

$_ZN7ForceLJ17compute_halfneighILi1ELi1EEEvR4AtomR8Neighbori = comdat any

$_ZN7ForceLJ26compute_halfneigh_threadedILi1ELi0EEEvR4AtomR8Neighbori = comdat any

$_ZN7ForceLJ17compute_halfneighILi1ELi0EEEvR4AtomR8Neighbori = comdat any

$_ZN7ForceLJ17compute_fullneighILi1EEEvR4AtomR8Neighbori = comdat any

$_ZN7ForceLJ16compute_originalILi0EEEvR4AtomR8Neighbori = comdat any

$_ZN7ForceLJ26compute_halfneigh_threadedILi0ELi1EEEvR4AtomR8Neighbori = comdat any

$_ZN7ForceLJ17compute_halfneighILi0ELi1EEEvR4AtomR8Neighbori = comdat any

$_ZN7ForceLJ26compute_halfneigh_threadedILi0ELi0EEEvR4AtomR8Neighbori = comdat any

$_ZN7ForceLJ17compute_halfneighILi0ELi0EEEvR4AtomR8Neighbori = comdat any

$_ZN7ForceLJ17compute_fullneighILi0EEEvR4AtomR8Neighbori = comdat any

$_ZTI5Force = comdat any

$_ZTS5Force = comdat any

@.str = private unnamed_addr constant [3 x i8] c"-i\00", align 1
@.str.1 = private unnamed_addr constant [13 x i8] c"--input_file\00", align 1
@.str.2 = private unnamed_addr constant [13 x i8] c"in.lj.miniMD\00", align 1
@.str.3 = private unnamed_addr constant [3 x i8] c"-t\00", align 1
@.str.4 = private unnamed_addr constant [14 x i8] c"--num_threads\00", align 1
@.str.5 = private unnamed_addr constant [8 x i8] c"--teams\00", align 1
@.str.6 = private unnamed_addr constant [3 x i8] c"-n\00", align 1
@.str.7 = private unnamed_addr constant [9 x i8] c"--nsteps\00", align 1
@.str.8 = private unnamed_addr constant [3 x i8] c"-s\00", align 1
@.str.9 = private unnamed_addr constant [7 x i8] c"--size\00", align 1
@.str.10 = private unnamed_addr constant [4 x i8] c"-nx\00", align 1
@.str.11 = private unnamed_addr constant [4 x i8] c"-ny\00", align 1
@.str.12 = private unnamed_addr constant [4 x i8] c"-nz\00", align 1
@.str.13 = private unnamed_addr constant [9 x i8] c"--ntypes\00", align 1
@.str.14 = private unnamed_addr constant [3 x i8] c"-b\00", align 1
@.str.15 = private unnamed_addr constant [13 x i8] c"--neigh_bins\00", align 1
@.str.16 = private unnamed_addr constant [13 x i8] c"--half_neigh\00", align 1
@.str.17 = private unnamed_addr constant [5 x i8] c"-sse\00", align 1
@.str.18 = private unnamed_addr constant [17 x i8] c"--check_exchange\00", align 1
@.str.19 = private unnamed_addr constant [7 x i8] c"--sort\00", align 1
@.str.20 = private unnamed_addr constant [3 x i8] c"-o\00", align 1
@.str.21 = private unnamed_addr constant [14 x i8] c"--yaml_output\00", align 1
@.str.22 = private unnamed_addr constant [14 x i8] c"--yaml_screen\00", align 1
@.str.23 = private unnamed_addr constant [3 x i8] c"-f\00", align 1
@.str.24 = private unnamed_addr constant [12 x i8] c"--data_file\00", align 1
@.str.25 = private unnamed_addr constant [3 x i8] c"-u\00", align 1
@.str.26 = private unnamed_addr constant [8 x i8] c"--units\00", align 1
@.str.27 = private unnamed_addr constant [6 x i8] c"metal\00", align 1
@.str.28 = private unnamed_addr constant [3 x i8] c"-p\00", align 1
@.str.29 = private unnamed_addr constant [8 x i8] c"--force\00", align 1
@.str.30 = private unnamed_addr constant [4 x i8] c"eam\00", align 1
@.str.31 = private unnamed_addr constant [4 x i8] c"-gn\00", align 1
@.str.32 = private unnamed_addr constant [15 x i8] c"--ghost_newton\00", align 1
@.str.33 = private unnamed_addr constant [3 x i8] c"-h\00", align 1
@.str.34 = private unnamed_addr constant [7 x i8] c"--help\00", align 1
@str = private unnamed_addr constant [109 x i8] c"\0A-----------------------------------------------------------------------------------------------------------\00"
@str.111 = private unnamed_addr constant [67 x i8] c"-------------miniMD-Reference 2.0 (MPI+OpenMP)--------------------\00"
@str.112 = private unnamed_addr constant [111 x i8] c"-------------------------------------------------------------------------------------------------------------\0A\00"
@str.113 = private unnamed_addr constant [335 x i8] c"miniMD is a simple, parallel molecular dynamics (MD) code,\0Awhich is part of the Mantevo project at Sandia National\0ALaboratories ( http://www.mantevo.org ).\0AThe original authors of miniMD are Steve Plimpton (sjplimp@sandia.gov) ,\0APaul Crozier (pscrozi@sandia.gov) with current\0Aversions written by Christian Trott (crtrott@sandia.gov).\0A\00"
@str.114 = private unnamed_addr constant [21 x i8] c"Commandline Options:\00"
@str.115 = private unnamed_addr constant [28 x i8] c"\0A  Execution configuration:\00"
@str.116 = private unnamed_addr constant [88 x i8] c"\09--teams <nteams>:             set number of thread-teams used per MPI rank (default 1)\00"
@str.117 = private unnamed_addr constant [81 x i8] c"\09-t / --num_threads <threads>: set number of threads per thread-team (default 1)\00"
@str.118 = private unnamed_addr constant [268 x i8] c"\09--half_neigh <int>:           use half neighborlists (default 1)\0A\09                                0: full neighborlist\0A\09                                1: half neighborlist\0A\09                               -1: original miniMD half neighborlist force (not OpenMP safe)\00"
@str.119 = private unnamed_addr constant [88 x i8] c"\09-d / --device <int>:          choose device to use (only applicable for GPU execution)\00"
@str.120 = private unnamed_addr constant [56 x i8] c"\09-dm / --device_map:           map devices to MPI ranks\00"
@.str.46 = private unnamed_addr constant [175 x i8] c"\09-ng / --num_gpus <int>:       give number of GPUs per Node (used in conjuction with -dm\0A\09                              to determine device id: 'id=mpi_rank%%ng' (default 2)\0A\00", align 1
@str.121 = private unnamed_addr constant [184 x i8] c"\09--skip_gpu <int>:             skip the specified gpu when assigning devices to MPI ranks\0A\09                              used in conjunction with -dm (but must come first in arg list)\00"
@str.122 = private unnamed_addr constant [84 x i8] c"\09-sse <sse_version>:           use explicit sse intrinsics (use miniMD-SSE variant)\00"
@str.123 = private unnamed_addr constant [153 x i8] c"\09-gn / --ghost_newton <int>:   set usage of newtons third law for ghost atoms\0A\09                                (only applicable with half neighborlists)\00"
@str.124 = private unnamed_addr constant [21 x i8] c"\0A  Simulation setup:\00"
@str.125 = private unnamed_addr constant [81 x i8] c"\09-i / --input_file <string>:   set input file to be used (default: in.lj.miniMD)\00"
@str.126 = private unnamed_addr constant [84 x i8] c"\09--ntypes <int>:               set number of atom types for simulation (default: 4)\00"
@str.127 = private unnamed_addr constant [70 x i8] c"\09-n / --nsteps <int>:          set number of timesteps for simulation\00"
@str.128 = private unnamed_addr constant [65 x i8] c"\09-s / --size <int>:            set linear dimension of systembox\00"
@str.129 = private unnamed_addr constant [84 x i8] c"\09-nx/-ny/-nz <int>:            set linear dimension of systembox in x/y/z direction\00"
@str.130 = private unnamed_addr constant [73 x i8] c"\09-b / --neigh_bins <int>:      set linear dimension of neighbor bin grid\00"
@str.131 = private unnamed_addr constant [81 x i8] c"\09-u / --units <string>:        set units (lj or metal), see LAMMPS documentation\00"
@str.132 = private unnamed_addr constant [65 x i8] c"\09-p / --force <string>:        set interaction model (lj or eam)\00"
@str.133 = private unnamed_addr constant [72 x i8] c"\09-f / --data_file <string>:    read configuration from LAMMPS data file\00"
@str.134 = private unnamed_addr constant [17 x i8] c"\0A  Miscelaneous:\00"
@str.135 = private unnamed_addr constant [86 x i8] c"\09--check_exchange:             check whether atoms moved further than subdomain width\00"
@str.136 = private unnamed_addr constant [160 x i8] c"\09--safe_exchange:              perform exchange communication with all MPI processes\0A\09                                within rcut_neighbor (outer force cutoff)\00"
@.str.63 = private unnamed_addr constant [116 x i8] c"\09--sort <n>:                   resort atoms (simple bins) every <n> steps (default: use reneigh frequency; never=0)\00", align 1
@str.137 = private unnamed_addr constant [64 x i8] c"\09-o / --yaml_output <int>:     level of yaml output (default 1)\00"
@str.138 = private unnamed_addr constant [64 x i8] c"\09--yaml_screen:                write yaml output also to screen\00"
@str.139 = private unnamed_addr constant [58 x i8] c"\09-h / --help:                  display this help message\0A\00"
@str.140 = private unnamed_addr constant [59 x i8] c"---------------------------------------------------------\0A\00"
@str.149 = private unnamed_addr constant [67 x i8] c"# EAM currently requires '--ghost_newton 0'; Changing setting now.\00"
@str.141 = private unnamed_addr constant [96 x i8] c"ERROR: Trying to run with -sse with miniMD reference version. Use SSE variant instead. Exiting.\00"
@str.148 = private unnamed_addr constant [17 x i8] c"# Create System:\00"
@str.147 = private unnamed_addr constant [13 x i8] c"# Done .... \00"
@stdout = external global %struct._IO_FILE*, align 8
@.str.72 = private unnamed_addr constant [48 x i8] c"# miniMD-Reference 2.0 (MPI+OpenMP) output ...\0A\00", align 1
@.str.73 = private unnamed_addr constant [18 x i8] c"# Run Settings: \0A\00", align 1
@.str.74 = private unnamed_addr constant [22 x i8] c"\09# MPI processes: %i\0A\00", align 1
@.str.75 = private unnamed_addr constant [23 x i8] c"\09# OpenMP threads: %i\0A\00", align 1
@.str.76 = private unnamed_addr constant [18 x i8] c"\09# Inputfile: %s\0A\00", align 1
@.str.78 = private unnamed_addr constant [5 x i8] c"None\00", align 1
@.str.77 = private unnamed_addr constant [17 x i8] c"\09# Datafile: %s\0A\00", align 1
@.str.79 = private unnamed_addr constant [22 x i8] c"# Physics Settings: \0A\00", align 1
@.str.81 = private unnamed_addr constant [3 x i8] c"LJ\00", align 1
@.str.82 = private unnamed_addr constant [4 x i8] c"EAM\00", align 1
@.str.80 = private unnamed_addr constant [19 x i8] c"\09# ForceStyle: %s\0A\00", align 1
@.str.83 = private unnamed_addr constant [36 x i8] c"\09# Force Parameters: %2.2lf %2.2lf\0A\00", align 1
@.str.85 = private unnamed_addr constant [6 x i8] c"METAL\00", align 1
@.str.84 = private unnamed_addr constant [14 x i8] c"\09# Units: %s\0A\00", align 1
@.str.86 = private unnamed_addr constant [14 x i8] c"\09# Atoms: %i\0A\00", align 1
@.str.87 = private unnamed_addr constant [19 x i8] c"\09# Atom types: %i\0A\00", align 1
@.str.88 = private unnamed_addr constant [61 x i8] c"\09# System size: %2.2lf %2.2lf %2.2lf (unit cells: %i %i %i)\0A\00", align 1
@.str.89 = private unnamed_addr constant [17 x i8] c"\09# Density: %lf\0A\00", align 1
@.str.90 = private unnamed_addr constant [22 x i8] c"\09# Force cutoff: %lf\0A\00", align 1
@.str.91 = private unnamed_addr constant [23 x i8] c"\09# Timestep size: %lf\0A\00", align 1
@.str.92 = private unnamed_addr constant [24 x i8] c"# Technical Settings: \0A\00", align 1
@.str.93 = private unnamed_addr constant [22 x i8] c"\09# Neigh cutoff: %lf\0A\00", align 1
@.str.94 = private unnamed_addr constant [27 x i8] c"\09# Half neighborlists: %i\0A\00", align 1
@.str.95 = private unnamed_addr constant [28 x i8] c"\09# Neighbor bins: %i %i %i\0A\00", align 1
@.str.96 = private unnamed_addr constant [27 x i8] c"\09# Neighbor frequency: %i\0A\00", align 1
@.str.97 = private unnamed_addr constant [26 x i8] c"\09# Sorting frequency: %i\0A\00", align 1
@.str.98 = private unnamed_addr constant [25 x i8] c"\09# Thermo frequency: %i\0A\00", align 1
@.str.99 = private unnamed_addr constant [21 x i8] c"\09# Ghost Newton: %i\0A\00", align 1
@.str.100 = private unnamed_addr constant [23 x i8] c"\09# Use intrinsics: %i\0A\00", align 1
@.str.101 = private unnamed_addr constant [25 x i8] c"\09# Do safe exchange: %i\0A\00", align 1
@.str.102 = private unnamed_addr constant [23 x i8] c"\09# Size of float: %i\0A\0A\00", align 1
@0 = private unnamed_addr constant %ident_t { i32 0, i32 2, i32 0, i32 0, i8* getelementptr inbounds ([23 x i8], [23 x i8]* @.str.103, i32 0, i32 0) }, align 8
@.str.103 = private unnamed_addr constant [23 x i8] c";unknown;unknown;0;0;;\00", align 1
@str.145 = private unnamed_addr constant [24 x i8] c"# Starting dynamics ...\00"
@str.146 = private unnamed_addr constant [22 x i8] c"# Timestep T U P Time\00"
@str.142 = private unnamed_addr constant [2 x i8] c"\0A\00"
@str.143 = private unnamed_addr constant [23 x i8] c"# Performance Summary:\00"
@str.144 = private unnamed_addr constant [120 x i8] c"# MPI_proc OMP_threads nsteps natoms t_total t_force t_neigh t_comm t_other performance perf/thread grep_string t_extra\00"
@.str.110 = private unnamed_addr constant [60 x i8] c"%i %i %i %i %lf %lf %lf %lf %lf %lf %lf PERF_SUMMARY %lf\0A\0A\0A\00", align 1
@.str.35 = private unnamed_addr constant [2 x i8] c"r\00", align 1
@.str.1.36 = private unnamed_addr constant [23 x i8] c"ERROR: Cannot open %s\0A\00", align 1
@.str.2.37 = private unnamed_addr constant [4 x i8] c" \09\0A\00", align 1
@.str.3.38 = private unnamed_addr constant [3 x i8] c"lj\00", align 1
@.str.4.39 = private unnamed_addr constant [6 x i8] c"metal\00", align 1
@.str.5.40 = private unnamed_addr constant [82 x i8] c"Unknown units option in file at line 3 ('%s'). Expecting either 'lj' or 'metal'.\0A\00", align 1
@.str.6.41 = private unnamed_addr constant [5 x i8] c"none\00", align 1
@.str.7.42 = private unnamed_addr constant [3 x i8] c" \09\00", align 1
@.str.8.43 = private unnamed_addr constant [4 x i8] c"eam\00", align 1
@.str.9.44 = private unnamed_addr constant [84 x i8] c"Unknown forcetype option in file at line 5 ('%s'). Expecting either 'lj' or 'eam'.\0A\00", align 1
@.str.10.45 = private unnamed_addr constant [8 x i8] c"%le %le\00", align 1
@.str.11.46 = private unnamed_addr constant [9 x i8] c"%d %d %d\00", align 1
@.str.12.47 = private unnamed_addr constant [3 x i8] c"%d\00", align 1
@.str.13.48 = private unnamed_addr constant [4 x i8] c"%le\00", align 1
@1 = private unnamed_addr constant %ident_t { i32 0, i32 2, i32 0, i32 0, i8* getelementptr inbounds ([23 x i8], [23 x i8]* @.str.51, i32 0, i32 0) }, align 8
@.str.51 = private unnamed_addr constant [23 x i8] c";unknown;unknown;0;0;;\00", align 1
@2 = private unnamed_addr constant %ident_t { i32 0, i32 66, i32 0, i32 0, i8* getelementptr inbounds ([23 x i8], [23 x i8]* @.str.51, i32 0, i32 0) }, align 8
@3 = private unnamed_addr constant %ident_t { i32 0, i32 34, i32 0, i32 0, i8* getelementptr inbounds ([23 x i8], [23 x i8]* @.str.51, i32 0, i32 0) }, align 8
@.str.1.55 = private unnamed_addr constant [227 x i8] c"Warning: Atoms move further than your subdomain size, which will eventually cause lost atoms.\0AIncrease reneighboring frequency or choose a different processor grid\0AMaximum move distance: %lf; Subdomain dimensions: %lf %lf %lf\0A\00", align 1
@str.60 = private unnamed_addr constant [27 x i8] c"ERROR: No memory for atoms\00"
@4 = private unnamed_addr constant %ident_t { i32 0, i32 2, i32 0, i32 0, i8* getelementptr inbounds ([23 x i8], [23 x i8]* @.str.1.61, i32 0, i32 0) }, align 8
@.str.1.61 = private unnamed_addr constant [23 x i8] c";unknown;unknown;0;0;;\00", align 1
@5 = private unnamed_addr constant %ident_t { i32 0, i32 66, i32 0, i32 0, i8* getelementptr inbounds ([23 x i8], [23 x i8]* @.str.1.61, i32 0, i32 0) }, align 8
@6 = private unnamed_addr constant %ident_t { i32 0, i32 34, i32 0, i32 0, i8* getelementptr inbounds ([23 x i8], [23 x i8]* @.str.1.61, i32 0, i32 0) }, align 8
@_ZTV7ForceLJ = unnamed_addr constant [7 x i8*] [i8* null, i8* bitcast ({ i8*, i8*, i32, i32, i8*, i64 }* @_ZTI7ForceLJ to i8*), i8* bitcast (void (%class.ForceLJ*)* @_ZN7ForceLJD2Ev to i8*), i8* bitcast (void (%class.ForceLJ*)* @_ZN7ForceLJD0Ev to i8*), i8* bitcast (void (%class.ForceLJ*)* @_ZN7ForceLJ5setupEv to i8*), i8* bitcast (void (%class.Force*)* @_ZN5Force8finaliseEv to i8*), i8* bitcast (void (%class.ForceLJ*, %class.Atom*, %class.Neighbor*, %class.Comm*, i32)* @_ZN7ForceLJ7computeER4AtomR8NeighborR4Commi to i8*)], align 8
@_ZTI7ForceLJ = constant { i8*, i8*, i32, i32, i8*, i64 } { i8* bitcast (i8** getelementptr inbounds (i8*, i8** @_ZTVN10__cxxabiv121__vmi_class_type_infoE, i64 2) to i8*), i8* getelementptr inbounds ([9 x i8], [9 x i8]* @_ZTS7ForceLJ, i32 0, i32 0), i32 0, i32 1, i8* bitcast ({ i8*, i8* }* @_ZTI5Force to i8*), i64 0 }
@_ZTVN10__cxxabiv121__vmi_class_type_infoE = external global i8*
@_ZTS7ForceLJ = constant [9 x i8] c"7ForceLJ\00"
@_ZTI5Force = linkonce_odr constant { i8*, i8* } { i8* bitcast (i8** getelementptr inbounds (i8*, i8** @_ZTVN10__cxxabiv117__class_type_infoE, i64 2) to i8*), i8* getelementptr inbounds ([7 x i8], [7 x i8]* @_ZTS5Force, i32 0, i32 0) }, comdat
@_ZTVN10__cxxabiv117__class_type_infoE = external global i8*
@_ZTS5Force = linkonce_odr constant [7 x i8] c"5Force\00", comdat
@7 = private unnamed_addr constant %ident_t { i32 0, i32 2, i32 0, i32 0, i8* getelementptr inbounds ([23 x i8], [23 x i8]* @.str.68, i32 0, i32 0) }, align 8
@.str.68 = private unnamed_addr constant [23 x i8] c";unknown;unknown;0;0;;\00", align 1
@8 = private unnamed_addr constant %ident_t { i32 0, i32 34, i32 0, i32 0, i8* getelementptr inbounds ([23 x i8], [23 x i8]* @.str.68, i32 0, i32 0) }, align 8
@9 = private unnamed_addr constant %ident_t { i32 0, i32 66, i32 0, i32 0, i8* getelementptr inbounds ([23 x i8], [23 x i8]* @.str.68, i32 0, i32 0) }, align 8
@_ZTV8ForceEAM = unnamed_addr constant [12 x i8*] [i8* null, i8* bitcast ({ i8*, i8*, i32, i32, i8*, i64 }* @_ZTI8ForceEAM to i8*), i8* bitcast (void (%class.ForceEAM*)* @_ZN8ForceEAMD2Ev to i8*), i8* bitcast (void (%class.ForceEAM*)* @_ZN8ForceEAMD0Ev to i8*), i8* bitcast (void (%class.ForceEAM*)* @_ZN8ForceEAM5setupEv to i8*), i8* bitcast (void (%class.Force*)* @_ZN5Force8finaliseEv to i8*), i8* bitcast (void (%class.ForceEAM*, %class.Atom*, %class.Neighbor*, %class.Comm*, i32)* @_ZN8ForceEAM7computeER4AtomR8NeighborR4Commi to i8*), i8* bitcast (void (%class.ForceEAM*, i8*)* @_ZN8ForceEAM5coeffEPKc to i8*), i8* bitcast (i32 (%class.ForceEAM*, i32, i32, double*, i32**)* @_ZN8ForceEAM9pack_commEiiPdPPi to i8*), i8* bitcast (void (%class.ForceEAM*, i32, i32, double*)* @_ZN8ForceEAM11unpack_commEiiPd to i8*), i8* bitcast (void (%class.ForceEAM*, i8*)* @_ZN8ForceEAM9read_fileEPKc to i8*), i8* bitcast (void (%class.ForceEAM*)* @_ZN8ForceEAM10file2arrayEv to i8*)], align 8
@_ZTI8ForceEAM = constant { i8*, i8*, i32, i32, i8*, i64 } { i8* bitcast (i8** getelementptr inbounds (i8*, i8** @_ZTVN10__cxxabiv121__vmi_class_type_infoE, i64 2) to i8*), i8* getelementptr inbounds ([10 x i8], [10 x i8]* @_ZTS8ForceEAM, i32 0, i32 0), i32 0, i32 1, i8* bitcast ({ i8*, i8* }* @_ZTI5Force to i8*), i64 0 }
@_ZTS8ForceEAM = constant [10 x i8] c"8ForceEAM\00"
@.str.71 = private unnamed_addr constant [10 x i8] c"Cu_u6.eam\00", align 1
@10 = private unnamed_addr constant %ident_t { i32 0, i32 2, i32 0, i32 0, i8* getelementptr inbounds ([23 x i8], [23 x i8]* @.str.1.72, i32 0, i32 0) }, align 8
@.str.1.72 = private unnamed_addr constant [23 x i8] c";unknown;unknown;0;0;;\00", align 1
@11 = private unnamed_addr constant %ident_t { i32 0, i32 34, i32 0, i32 0, i8* getelementptr inbounds ([23 x i8], [23 x i8]* @.str.1.72, i32 0, i32 0) }, align 8
@12 = private unnamed_addr constant %ident_t { i32 0, i32 66, i32 0, i32 0, i8* getelementptr inbounds ([23 x i8], [23 x i8]* @.str.1.72, i32 0, i32 0) }, align 8
@.str.2.73 = private unnamed_addr constant [2 x i8] c"r\00", align 1
@.str.3.74 = private unnamed_addr constant [35 x i8] c"Can't open EAM Potential file: %s\0A\00", align 1
@.str.4.75 = private unnamed_addr constant [7 x i8] c"%d %lg\00", align 1
@.str.5.76 = private unnamed_addr constant [18 x i8] c"%d %lg %d %lg %lg\00", align 1
@.str.6.77 = private unnamed_addr constant [6 x i8] c" \09\0A\0D\0C\00", align 1
@.str.7.78 = private unnamed_addr constant [31 x i8] c"Numeric index is out of bounds\00", align 1
@13 = private unnamed_addr constant %ident_t { i32 0, i32 2, i32 0, i32 0, i8* getelementptr inbounds ([23 x i8], [23 x i8]* @.str.104, i32 0, i32 0) }, align 8
@.str.104 = private unnamed_addr constant [23 x i8] c";unknown;unknown;0;0;;\00", align 1
@14 = private unnamed_addr constant %ident_t { i32 0, i32 34, i32 0, i32 0, i8* getelementptr inbounds ([23 x i8], [23 x i8]* @.str.104, i32 0, i32 0) }, align 8
@15 = private unnamed_addr constant %ident_t { i32 0, i32 66, i32 0, i32 0, i8* getelementptr inbounds ([23 x i8], [23 x i8]* @.str.104, i32 0, i32 0) }, align 8
@16 = private unnamed_addr constant %ident_t { i32 0, i32 2, i32 0, i32 0, i8* getelementptr inbounds ([23 x i8], [23 x i8]* @.str.117, i32 0, i32 0) }, align 8
@.str.117 = private unnamed_addr constant [23 x i8] c";unknown;unknown;0;0;;\00", align 1
@17 = private unnamed_addr constant %ident_t { i32 0, i32 34, i32 0, i32 0, i8* getelementptr inbounds ([23 x i8], [23 x i8]* @.str.117, i32 0, i32 0) }, align 8
@18 = private unnamed_addr constant %ident_t { i32 0, i32 66, i32 0, i32 0, i8* getelementptr inbounds ([23 x i8], [23 x i8]* @.str.117, i32 0, i32 0) }, align 8
@.str.1.118 = private unnamed_addr constant [20 x i8] c"%i %e %e %e %6.3lf\0A\00", align 1
@str.150 = private unnamed_addr constant [30 x i8] c"ERROR: Bad grid of processors\00"
@19 = private unnamed_addr constant %ident_t { i32 0, i32 2, i32 0, i32 0, i8* getelementptr inbounds ([23 x i8], [23 x i8]* @.str.1.153, i32 0, i32 0) }, align 8
@.str.1.153 = private unnamed_addr constant [23 x i8] c";unknown;unknown;0;0;;\00", align 1
@20 = private unnamed_addr constant %ident_t { i32 0, i32 34, i32 0, i32 0, i8* getelementptr inbounds ([23 x i8], [23 x i8]* @.str.1.153, i32 0, i32 0) }, align 8
@21 = private unnamed_addr constant %ident_t { i32 0, i32 66, i32 0, i32 0, i8* getelementptr inbounds ([23 x i8], [23 x i8]* @.str.1.153, i32 0, i32 0) }, align 8
@.str.182 = private unnamed_addr constant [24 x i8] c"Atom counts = %d %d %d\0A\00", align 1
@str.183 = private unnamed_addr constant [33 x i8] c"ERROR: Incorrect number of atoms\00"
@.str.2.184 = private unnamed_addr constant [41 x i8] c"miniMD-%4d-%02d-%02d-%02d-%02d-%02d.yaml\00", align 1
@.str.3.185 = private unnamed_addr constant [2 x i8] c"w\00", align 1
@.str.4.186 = private unnamed_addr constant [21 x i8] c"run_configuration: \0A\00", align 1
@.str.5.187 = private unnamed_addr constant [46 x i8] c"  variant: miniMD-Reference 2.0 (MPI+OpenMP)\0A\00", align 1
@.str.6.188 = private unnamed_addr constant [21 x i8] c"  mpi_processes: %i\0A\00", align 1
@.str.7.189 = private unnamed_addr constant [20 x i8] c"  thread_teams: %i\0A\00", align 1
@.str.8.190 = private unnamed_addr constant [15 x i8] c"  threads: %i\0A\00", align 1
@.str.10.191 = private unnamed_addr constant [5 x i8] c"None\00", align 1
@.str.9.192 = private unnamed_addr constant [16 x i8] c"  datafile: %s\0A\00", align 1
@.str.12.193 = private unnamed_addr constant [3 x i8] c"LJ\00", align 1
@.str.13.194 = private unnamed_addr constant [6 x i8] c"METAL\00", align 1
@.str.11.195 = private unnamed_addr constant [13 x i8] c"  units: %s\0A\00", align 1
@.str.14.196 = private unnamed_addr constant [13 x i8] c"  atoms: %i\0A\00", align 1
@.str.15.197 = private unnamed_addr constant [18 x i8] c"  atom_types: %i\0A\00", align 1
@.str.16.198 = private unnamed_addr constant [37 x i8] c"  system_size: %2.2lf %2.2lf %2.2lf\0A\00", align 1
@.str.17.199 = private unnamed_addr constant [24 x i8] c"  unit_cells: %i %i %i\0A\00", align 1
@.str.18.200 = private unnamed_addr constant [16 x i8] c"  density: %lf\0A\00", align 1
@.str.20.201 = private unnamed_addr constant [4 x i8] c"EAM\00", align 1
@.str.19.202 = private unnamed_addr constant [18 x i8] c"  force_type: %s\0A\00", align 1
@.str.21.203 = private unnamed_addr constant [21 x i8] c"  force_cutoff: %lf\0A\00", align 1
@.str.22.204 = private unnamed_addr constant [31 x i8] c"  force_params: %2.2lf %2.2lf\0A\00", align 1
@.str.23.205 = private unnamed_addr constant [24 x i8] c"  neighbor_cutoff: %lf\0A\00", align 1
@.str.24.206 = private unnamed_addr constant [21 x i8] c"  neighbor_type: %i\0A\00", align 1
@.str.25.207 = private unnamed_addr constant [27 x i8] c"  neighbor_bins: %i %i %i\0A\00", align 1
@.str.26.208 = private unnamed_addr constant [26 x i8] c"  neighbor_frequency: %i\0A\00", align 1
@.str.27.209 = private unnamed_addr constant [22 x i8] c"  sort_frequency: %i\0A\00", align 1
@.str.28.210 = private unnamed_addr constant [22 x i8] c"  timestep_size: %lf\0A\00", align 1
@.str.29.211 = private unnamed_addr constant [24 x i8] c"  thermo_frequency: %i\0A\00", align 1
@.str.30.212 = private unnamed_addr constant [20 x i8] c"  ghost_newton: %i\0A\00", align 1
@.str.31.213 = private unnamed_addr constant [22 x i8] c"  use_intrinsics: %i\0A\00", align 1
@.str.32.214 = private unnamed_addr constant [21 x i8] c"  safe_exchange: %i\0A\00", align 1
@.str.33.215 = private unnamed_addr constant [19 x i8] c"  float_size: %i\0A\0A\00", align 1
@.str.34.216 = private unnamed_addr constant [25 x i8] c"\0A\0Athermodynamic_output:\0A\00", align 1
@.str.35.217 = private unnamed_addr constant [17 x i8] c"  timestep: %d \0A\00", align 1
@.str.36 = private unnamed_addr constant [30 x i8] c"      T*:           %15.10g \0A\00", align 1
@.str.37 = private unnamed_addr constant [30 x i8] c"      U*:           %15.10g \0A\00", align 1
@.str.38 = private unnamed_addr constant [30 x i8] c"      P*:           %15.10g \0A\00", align 1
@.str.39 = private unnamed_addr constant [30 x i8] c"      Conservation: %15.10g \0A\00", align 1
@.str.40 = private unnamed_addr constant [3 x i8] c"\0A\0A\00", align 1
@.str.41 = private unnamed_addr constant [7 x i8] c"time:\0A\00", align 1
@.str.42 = private unnamed_addr constant [10 x i8] c"  total:\0A\00", align 1
@.str.43 = private unnamed_addr constant [15 x i8] c"    time: %g \0A\00", align 1
@.str.44 = private unnamed_addr constant [26 x i8] c"    performance: %10.5e \0A\00", align 1
@.str.45 = private unnamed_addr constant [31 x i8] c"    performance_proc: %10.5e \0A\00", align 1
@.str.46.218 = private unnamed_addr constant [13 x i8] c"  force: %g\0A\00", align 1
@.str.47 = private unnamed_addr constant [13 x i8] c"  neigh: %g\0A\00", align 1
@.str.48 = private unnamed_addr constant [13 x i8] c"  comm:  %g\0A\00", align 1
@.str.49 = private unnamed_addr constant [13 x i8] c"  other: %g\0A\00", align 1
@.str.51.219 = private unnamed_addr constant [22 x i8] c"# Timing histograms \0A\00", align 1
@.str.52 = private unnamed_addr constant [36 x i8] c"# Force time: %g ave %g max %g min\0A\00", align 1
@.str.53 = private unnamed_addr constant [13 x i8] c"# Histogram:\00", align 1
@.str.54 = private unnamed_addr constant [4 x i8] c" %d\00", align 1
@.str.55 = private unnamed_addr constant [36 x i8] c"# Neigh time: %g ave %g max %g min\0A\00", align 1
@.str.56 = private unnamed_addr constant [36 x i8] c"# Comm  time: %g ave %g max %g min\0A\00", align 1
@.str.57 = private unnamed_addr constant [36 x i8] c"# Other time: %g ave %g max %g min\0A\00", align 1
@.str.58 = private unnamed_addr constant [36 x i8] c"# Nlocal:     %g ave %g max %g min\0A\00", align 1
@.str.59 = private unnamed_addr constant [36 x i8] c"# Nghost:     %g ave %g max %g min\0A\00", align 1
@.str.60 = private unnamed_addr constant [36 x i8] c"# Nswaps:     %g ave %g max %g min\0A\00", align 1
@.str.61 = private unnamed_addr constant [36 x i8] c"# Neighs:     %g ave %g max %g min\0A\00", align 1
@.str.62 = private unnamed_addr constant [29 x i8] c"# Total # of neighbors = %g\0A\00", align 1
@line = global [255 x i8] zeroinitializer, align 16
@fp = global %struct._IO_FILE* null, align 8
@keyword = global [255 x i8] zeroinitializer, align 16
@.str.220 = private unnamed_addr constant [5 x i8] c" \09\0A\0D\00", align 1
@.str.4.221 = private unnamed_addr constant [6 x i8] c"atoms\00", align 1
@.str.5.222 = private unnamed_addr constant [3 x i8] c"%i\00", align 1
@.str.6.223 = private unnamed_addr constant [11 x i8] c"atom types\00", align 1
@.str.7.224 = private unnamed_addr constant [8 x i8] c"xlo xhi\00", align 1
@.str.8.225 = private unnamed_addr constant [8 x i8] c"%lg %lg\00", align 1
@.str.9.226 = private unnamed_addr constant [8 x i8] c"ylo yhi\00", align 1
@.str.10.227 = private unnamed_addr constant [8 x i8] c"zlo zhi\00", align 1
@.str.1.228 = private unnamed_addr constant [6 x i8] c"Atoms\00", align 1
@.str.2.229 = private unnamed_addr constant [11 x i8] c"Velocities\00", align 1
@.str.11.230 = private unnamed_addr constant [36 x i8] c"Unknown identifier in data file: %s\00", align 1
@.str.3.231 = private unnamed_addr constant [7 x i8] c"Masses\00", align 1
@.str.12.232 = private unnamed_addr constant [18 x i8] c"%i %i %lg %lg %lg\00", align 1
@.str.13.233 = private unnamed_addr constant [15 x i8] c"%i %lg %lg %lg\00", align 1
@.str.14.236 = private unnamed_addr constant [2 x i8] c"r\00", align 1
@.str.15.237 = private unnamed_addr constant [20 x i8] c"Cannot open file %s\00", align 1
@str.20 = private unnamed_addr constant [34 x i8] c"Must read Atoms before Velocities\00"
@.str.17.238 = private unnamed_addr constant [7 x i8] c"%i %lg\00", align 1
@str.21 = private unnamed_addr constant [29 x i8] c"Created incorrect # of atoms\00"
@str.22 = private unnamed_addr constant [20 x i8] c"No memory for atoms\00"

@_ZN9IntegrateC1Ev = alias void (%class.Integrate*), void (%class.Integrate*)* @_ZN9IntegrateC2Ev
@_ZN9IntegrateD1Ev = alias void (%class.Integrate*), void (%class.Integrate*)* @_ZN9IntegrateD2Ev
@_ZN4AtomC1Ei = alias void (%class.Atom*, i32), void (%class.Atom*, i32)* @_ZN4AtomC2Ei
@_ZN4AtomD1Ev = alias void (%class.Atom*), void (%class.Atom*)* @_ZN4AtomD2Ev
@_ZN7ForceLJC1Ei = alias void (%class.ForceLJ*, i32), void (%class.ForceLJ*, i32)* @_ZN7ForceLJC2Ei
@_ZN7ForceLJD1Ev = alias void (%class.ForceLJ*), void (%class.ForceLJ*)* @_ZN7ForceLJD2Ev
@_ZN8ForceEAMC1Ei = alias void (%class.ForceEAM*, i32), void (%class.ForceEAM*, i32)* @_ZN8ForceEAMC2Ei
@_ZN8ForceEAMD1Ev = alias void (%class.ForceEAM*), void (%class.ForceEAM*)* @_ZN8ForceEAMD2Ev
@_ZN8NeighborC1Ei = alias void (%class.Neighbor*, i32), void (%class.Neighbor*, i32)* @_ZN8NeighborC2Ei
@_ZN8NeighborD1Ev = alias void (%class.Neighbor*), void (%class.Neighbor*)* @_ZN8NeighborD2Ev
@_ZN6ThermoC1Ev = alias void (%class.Thermo*), void (%class.Thermo*)* @_ZN6ThermoC2Ev
@_ZN6ThermoD1Ev = alias void (%class.Thermo*), void (%class.Thermo*)* @_ZN6ThermoD2Ev
@_ZN4CommC1Ev = alias void (%class.Comm*), void (%class.Comm*)* @_ZN4CommC2Ev
@_ZN4CommD1Ev = alias void (%class.Comm*), void (%class.Comm*)* @_ZN4CommD2Ev
@_ZN5TimerC1Ev = alias void (%class.Timer*), void (%class.Timer*)* @_ZN5TimerC2Ev
@_ZN5TimerD1Ev = alias void (%class.Timer*), void (%class.Timer*)* @_ZN5TimerD2Ev

; Function Attrs: norecurse uwtable
define i32 @main(i32 %argc, i8** %argv) #0 personality i8* bitcast (i32 (...)* @__gxx_personality_v0 to i8*) {
  %1 = alloca i32, align 4
  %2 = alloca i8**, align 8
  %in = alloca %struct.In, align 8
  %me = alloca i32, align 4
  %nprocs = alloca i32, align 4
  %atom = alloca %class.Atom, align 8
  %neighbor = alloca %class.Neighbor, align 8
  %integrate = alloca %class.Integrate, align 8
  %thermo = alloca %class.Thermo, align 8
  %comm = alloca %class.Comm, align 8
  %timer = alloca %class.Timer, align 8
  %threads = alloca %class.ThreadData, align 16
  %force = alloca %class.Force*, align 8
  %natoms = alloca i32, align 4
  store i32 %argc, i32* %1, align 4, !tbaa !1
  store i8** %argv, i8*** %2, align 8, !tbaa !5
  %3 = bitcast %struct.In* %in to i8*
  call void @llvm.lifetime.start(i64 112, i8* %3) #7
  %4 = getelementptr inbounds %struct.In, %struct.In* %in, i64 0, i32 9
  store i8* null, i8** %4, align 8, !tbaa !7
  %5 = bitcast i32* %me to i8*
  call void @llvm.lifetime.start(i64 4, i8* %5) #7
  store i32 0, i32* %me, align 4, !tbaa !1
  %6 = bitcast i32* %nprocs to i8*
  call void @llvm.lifetime.start(i64 4, i8* %6) #7
  store i32 1, i32* %nprocs, align 4, !tbaa !1
  %7 = icmp sgt i32 %argc, 0
  br i1 %7, label %.lr.ph110.preheader, label %._crit_edge111

.lr.ph110.preheader:                              ; preds = %0
  br label %.lr.ph110

._crit_edge111.loopexit:                          ; preds = %25
  br label %._crit_edge111

._crit_edge111:                                   ; preds = %._crit_edge111.loopexit, %0
  %input_file.0.lcssa = phi i8* [ null, %0 ], [ %input_file.1, %._crit_edge111.loopexit ]
  %8 = call i32 @MPI_Init(i32* nonnull %1, i8*** nonnull %2)
  %9 = call i32 @MPI_Comm_rank(i32 1140850688, i32* nonnull %me)
  %10 = call i32 @MPI_Comm_size(i32 1140850688, i32* nonnull %nprocs)
  %11 = icmp eq i8* %input_file.0.lcssa, null
  br i1 %11, label %28, label %30

.lr.ph110:                                        ; preds = %25, %.lr.ph110.preheader
  %i.0108 = phi i32 [ %26, %25 ], [ 0, %.lr.ph110.preheader ]
  %input_file.0107 = phi i8* [ %input_file.1, %25 ], [ null, %.lr.ph110.preheader ]
  %12 = sext i32 %i.0108 to i64
  %13 = getelementptr inbounds i8*, i8** %argv, i64 %12
  %14 = load i8*, i8** %13, align 8, !tbaa !5
  %15 = tail call i32 @strcmp(i8* %14, i8* nonnull getelementptr inbounds ([3 x i8], [3 x i8]* @.str, i64 0, i64 0)) #16
  %16 = icmp eq i32 %15, 0
  br i1 %16, label %20, label %17

; <label>:17                                      ; preds = %.lr.ph110
  %18 = tail call i32 @strcmp(i8* %14, i8* nonnull getelementptr inbounds ([13 x i8], [13 x i8]* @.str.1, i64 0, i64 0)) #16
  %19 = icmp eq i32 %18, 0
  br i1 %19, label %20, label %25

; <label>:20                                      ; preds = %17, %.lr.ph110
  %21 = add nsw i32 %i.0108, 1
  %22 = sext i32 %21 to i64
  %23 = getelementptr inbounds i8*, i8** %argv, i64 %22
  %24 = load i8*, i8** %23, align 8, !tbaa !5
  br label %25

; <label>:25                                      ; preds = %20, %17
  %input_file.1 = phi i8* [ %24, %20 ], [ %input_file.0107, %17 ]
  %i.1 = phi i32 [ %21, %20 ], [ %i.0108, %17 ]
  %26 = add nsw i32 %i.1, 1
  %27 = icmp slt i32 %26, %argc
  br i1 %27, label %.lr.ph110, label %._crit_edge111.loopexit

; <label>:28                                      ; preds = %._crit_edge111
  %29 = call i32 @_Z5inputR2InPKc(%struct.In* nonnull dereferenceable(112) %in, i8* nonnull getelementptr inbounds ([13 x i8], [13 x i8]* @.str.2, i64 0, i64 0))
  br label %32

; <label>:30                                      ; preds = %._crit_edge111
  %31 = call i32 @_Z5inputR2InPKc(%struct.In* nonnull dereferenceable(112) %in, i8* nonnull %input_file.0.lcssa)
  br label %32

; <label>:32                                      ; preds = %30, %28
  %error.0 = phi i32 [ %29, %28 ], [ %31, %30 ]
  %33 = icmp eq i32 %error.0, 0
  br i1 %33, label %36, label %34

; <label>:34                                      ; preds = %32
  %35 = call i32 @MPI_Finalize()
  call void @exit(i32 0) #17
  unreachable

; <label>:36                                      ; preds = %32
  call void @srand(i32 5413) #7
  %37 = load i32, i32* %1, align 4, !tbaa !1
  %38 = icmp sgt i32 %37, 0
  br i1 %38, label %.lr.ph92, label %._crit_edge

.lr.ph92:                                         ; preds = %36
  %39 = getelementptr inbounds %struct.In, %struct.In* %in, i64 0, i32 5
  %40 = getelementptr inbounds %struct.In, %struct.In* %in, i64 0, i32 6
  br label %43

._crit_edge.loopexit:                             ; preds = %261
  br label %._crit_edge

._crit_edge:                                      ; preds = %._crit_edge.loopexit, %36
  %num_threads.0.lcssa = phi i32 [ 1, %36 ], [ %num_threads.1, %._crit_edge.loopexit ]
  %num_steps.0.lcssa = phi i32 [ -1, %36 ], [ %num_steps.1, %._crit_edge.loopexit ]
  %ntypes.0.lcssa = phi i32 [ 4, %36 ], [ %ntypes.1, %._crit_edge.loopexit ]
  %sort.0.lcssa = phi i32 [ -1, %36 ], [ %sort.1, %._crit_edge.loopexit ]
  %ghost_newton.0.lcssa = phi i32 [ 1, %36 ], [ %ghost_newton.1, %._crit_edge.loopexit ]
  %neighbor_size.0.lcssa = phi i32 [ -1, %36 ], [ %neighbor_size.1, %._crit_edge.loopexit ]
  %system_size.0.lcssa = phi i32 [ -1, %36 ], [ %system_size.1, %._crit_edge.loopexit ]
  %halfneigh.0.lcssa = phi i32 [ 1, %36 ], [ %halfneigh.1, %._crit_edge.loopexit ]
  %yaml_output.0.lcssa = phi i32 [ 0, %36 ], [ %yaml_output.1, %._crit_edge.loopexit ]
  %screen_yaml.0.lcssa = phi i32 [ 0, %36 ], [ %screen_yaml.1, %._crit_edge.loopexit ]
  %use_sse.0.lcssa = phi i32 [ 0, %36 ], [ %use_sse.1, %._crit_edge.loopexit ]
  %nx.0.lcssa = phi i32 [ -1, %36 ], [ %nx.1, %._crit_edge.loopexit ]
  %check_safeexchange.0.lcssa = phi i32 [ 0, %36 ], [ %check_safeexchange.1, %._crit_edge.loopexit ]
  %nz.0.lcssa = phi i32 [ -1, %36 ], [ %nz.1, %._crit_edge.loopexit ]
  %ny.0.lcssa = phi i32 [ -1, %36 ], [ %ny.1, %._crit_edge.loopexit ]
  %41 = bitcast %class.Atom* %atom to i8*
  call void @llvm.lifetime.start(i64 224, i8* %41) #7
  call void @_ZN4AtomC1Ei(%class.Atom* nonnull %atom, i32 %ntypes.0.lcssa)
  %42 = bitcast %class.Neighbor* %neighbor to i8*
  call void @llvm.lifetime.start(i64 240, i8* %42) #7
  invoke void @_ZN8NeighborC1Ei(%class.Neighbor* nonnull %neighbor, i32 %ntypes.0.lcssa)
          to label %265 unwind label %296

; <label>:43                                      ; preds = %261, %.lr.ph92
  %num_threads.091 = phi i32 [ 1, %.lr.ph92 ], [ %num_threads.1, %261 ]
  %num_steps.090 = phi i32 [ -1, %.lr.ph92 ], [ %num_steps.1, %261 ]
  %i1.089 = phi i32 [ 0, %.lr.ph92 ], [ %262, %261 ]
  %ntypes.088 = phi i32 [ 4, %.lr.ph92 ], [ %ntypes.1, %261 ]
  %sort.087 = phi i32 [ -1, %.lr.ph92 ], [ %sort.1, %261 ]
  %ghost_newton.086 = phi i32 [ 1, %.lr.ph92 ], [ %ghost_newton.1, %261 ]
  %neighbor_size.085 = phi i32 [ -1, %.lr.ph92 ], [ %neighbor_size.1, %261 ]
  %system_size.084 = phi i32 [ -1, %.lr.ph92 ], [ %system_size.1, %261 ]
  %halfneigh.083 = phi i32 [ 1, %.lr.ph92 ], [ %halfneigh.1, %261 ]
  %yaml_output.082 = phi i32 [ 0, %.lr.ph92 ], [ %yaml_output.1, %261 ]
  %screen_yaml.081 = phi i32 [ 0, %.lr.ph92 ], [ %screen_yaml.1, %261 ]
  %use_sse.080 = phi i32 [ 0, %.lr.ph92 ], [ %use_sse.1, %261 ]
  %nx.079 = phi i32 [ -1, %.lr.ph92 ], [ %nx.1, %261 ]
  %check_safeexchange.078 = phi i32 [ 0, %.lr.ph92 ], [ %check_safeexchange.1, %261 ]
  %nz.077 = phi i32 [ -1, %.lr.ph92 ], [ %nz.1, %261 ]
  %ny.076 = phi i32 [ -1, %.lr.ph92 ], [ %ny.1, %261 ]
  %44 = sext i32 %i1.089 to i64
  %45 = load i8**, i8*** %2, align 8, !tbaa !5
  %46 = getelementptr inbounds i8*, i8** %45, i64 %44
  %47 = load i8*, i8** %46, align 8, !tbaa !5
  %48 = call i32 @strcmp(i8* %47, i8* nonnull getelementptr inbounds ([3 x i8], [3 x i8]* @.str.3, i64 0, i64 0)) #16
  %49 = icmp eq i32 %48, 0
  br i1 %49, label %53, label %50

; <label>:50                                      ; preds = %43
  %51 = call i32 @strcmp(i8* %47, i8* nonnull getelementptr inbounds ([14 x i8], [14 x i8]* @.str.4, i64 0, i64 0)) #16
  %52 = icmp eq i32 %51, 0
  br i1 %52, label %53, label %60

; <label>:53                                      ; preds = %50, %43
  %54 = add nsw i32 %i1.089, 1
  %55 = sext i32 %54 to i64
  %56 = getelementptr inbounds i8*, i8** %45, i64 %55
  %57 = load i8*, i8** %56, align 8, !tbaa !5
  %58 = call i64 @strtol(i8* nocapture nonnull %57, i8** null, i32 10) #7
  %59 = trunc i64 %58 to i32
  br label %261

; <label>:60                                      ; preds = %50
  %61 = call i32 @strcmp(i8* %47, i8* nonnull getelementptr inbounds ([8 x i8], [8 x i8]* @.str.5, i64 0, i64 0)) #16
  %62 = icmp eq i32 %61, 0
  br i1 %62, label %63, label %65

; <label>:63                                      ; preds = %60
  %64 = add nsw i32 %i1.089, 1
  br label %261

; <label>:65                                      ; preds = %60
  %66 = call i32 @strcmp(i8* %47, i8* nonnull getelementptr inbounds ([3 x i8], [3 x i8]* @.str.6, i64 0, i64 0)) #16
  %67 = icmp eq i32 %66, 0
  br i1 %67, label %71, label %68

; <label>:68                                      ; preds = %65
  %69 = call i32 @strcmp(i8* %47, i8* nonnull getelementptr inbounds ([9 x i8], [9 x i8]* @.str.7, i64 0, i64 0)) #16
  %70 = icmp eq i32 %69, 0
  br i1 %70, label %71, label %78

; <label>:71                                      ; preds = %68, %65
  %72 = add nsw i32 %i1.089, 1
  %73 = sext i32 %72 to i64
  %74 = getelementptr inbounds i8*, i8** %45, i64 %73
  %75 = load i8*, i8** %74, align 8, !tbaa !5
  %76 = call i64 @strtol(i8* nocapture nonnull %75, i8** null, i32 10) #7
  %77 = trunc i64 %76 to i32
  br label %261

; <label>:78                                      ; preds = %68
  %79 = call i32 @strcmp(i8* %47, i8* nonnull getelementptr inbounds ([3 x i8], [3 x i8]* @.str.8, i64 0, i64 0)) #16
  %80 = icmp eq i32 %79, 0
  br i1 %80, label %84, label %81

; <label>:81                                      ; preds = %78
  %82 = call i32 @strcmp(i8* %47, i8* nonnull getelementptr inbounds ([7 x i8], [7 x i8]* @.str.9, i64 0, i64 0)) #16
  %83 = icmp eq i32 %82, 0
  br i1 %83, label %84, label %91

; <label>:84                                      ; preds = %81, %78
  %85 = add nsw i32 %i1.089, 1
  %86 = sext i32 %85 to i64
  %87 = getelementptr inbounds i8*, i8** %45, i64 %86
  %88 = load i8*, i8** %87, align 8, !tbaa !5
  %89 = call i64 @strtol(i8* nocapture nonnull %88, i8** null, i32 10) #7
  %90 = trunc i64 %89 to i32
  br label %261

; <label>:91                                      ; preds = %81
  %92 = call i32 @strcmp(i8* %47, i8* nonnull getelementptr inbounds ([4 x i8], [4 x i8]* @.str.10, i64 0, i64 0)) #16
  %93 = icmp eq i32 %92, 0
  br i1 %93, label %94, label %101

; <label>:94                                      ; preds = %91
  %95 = add nsw i32 %i1.089, 1
  %96 = sext i32 %95 to i64
  %97 = getelementptr inbounds i8*, i8** %45, i64 %96
  %98 = load i8*, i8** %97, align 8, !tbaa !5
  %99 = call i64 @strtol(i8* nocapture nonnull %98, i8** null, i32 10) #7
  %100 = trunc i64 %99 to i32
  br label %261

; <label>:101                                     ; preds = %91
  %102 = call i32 @strcmp(i8* %47, i8* nonnull getelementptr inbounds ([4 x i8], [4 x i8]* @.str.11, i64 0, i64 0)) #16
  %103 = icmp eq i32 %102, 0
  br i1 %103, label %104, label %111

; <label>:104                                     ; preds = %101
  %105 = add nsw i32 %i1.089, 1
  %106 = sext i32 %105 to i64
  %107 = getelementptr inbounds i8*, i8** %45, i64 %106
  %108 = load i8*, i8** %107, align 8, !tbaa !5
  %109 = call i64 @strtol(i8* nocapture nonnull %108, i8** null, i32 10) #7
  %110 = trunc i64 %109 to i32
  br label %261

; <label>:111                                     ; preds = %101
  %112 = call i32 @strcmp(i8* %47, i8* nonnull getelementptr inbounds ([4 x i8], [4 x i8]* @.str.12, i64 0, i64 0)) #16
  %113 = icmp eq i32 %112, 0
  br i1 %113, label %114, label %121

; <label>:114                                     ; preds = %111
  %115 = add nsw i32 %i1.089, 1
  %116 = sext i32 %115 to i64
  %117 = getelementptr inbounds i8*, i8** %45, i64 %116
  %118 = load i8*, i8** %117, align 8, !tbaa !5
  %119 = call i64 @strtol(i8* nocapture nonnull %118, i8** null, i32 10) #7
  %120 = trunc i64 %119 to i32
  br label %261

; <label>:121                                     ; preds = %111
  %122 = call i32 @strcmp(i8* %47, i8* nonnull getelementptr inbounds ([9 x i8], [9 x i8]* @.str.13, i64 0, i64 0)) #16
  %123 = icmp eq i32 %122, 0
  br i1 %123, label %124, label %131

; <label>:124                                     ; preds = %121
  %125 = add nsw i32 %i1.089, 1
  %126 = sext i32 %125 to i64
  %127 = getelementptr inbounds i8*, i8** %45, i64 %126
  %128 = load i8*, i8** %127, align 8, !tbaa !5
  %129 = call i64 @strtol(i8* nocapture nonnull %128, i8** null, i32 10) #7
  %130 = trunc i64 %129 to i32
  br label %261

; <label>:131                                     ; preds = %121
  %132 = call i32 @strcmp(i8* %47, i8* nonnull getelementptr inbounds ([3 x i8], [3 x i8]* @.str.14, i64 0, i64 0)) #16
  %133 = icmp eq i32 %132, 0
  br i1 %133, label %137, label %134

; <label>:134                                     ; preds = %131
  %135 = call i32 @strcmp(i8* %47, i8* nonnull getelementptr inbounds ([13 x i8], [13 x i8]* @.str.15, i64 0, i64 0)) #16
  %136 = icmp eq i32 %135, 0
  br i1 %136, label %137, label %144

; <label>:137                                     ; preds = %134, %131
  %138 = add nsw i32 %i1.089, 1
  %139 = sext i32 %138 to i64
  %140 = getelementptr inbounds i8*, i8** %45, i64 %139
  %141 = load i8*, i8** %140, align 8, !tbaa !5
  %142 = call i64 @strtol(i8* nocapture nonnull %141, i8** null, i32 10) #7
  %143 = trunc i64 %142 to i32
  br label %261

; <label>:144                                     ; preds = %134
  %145 = call i32 @strcmp(i8* %47, i8* nonnull getelementptr inbounds ([13 x i8], [13 x i8]* @.str.16, i64 0, i64 0)) #16
  %146 = icmp eq i32 %145, 0
  br i1 %146, label %147, label %154

; <label>:147                                     ; preds = %144
  %148 = add nsw i32 %i1.089, 1
  %149 = sext i32 %148 to i64
  %150 = getelementptr inbounds i8*, i8** %45, i64 %149
  %151 = load i8*, i8** %150, align 8, !tbaa !5
  %152 = call i64 @strtol(i8* nocapture nonnull %151, i8** null, i32 10) #7
  %153 = trunc i64 %152 to i32
  br label %261

; <label>:154                                     ; preds = %144
  %155 = call i32 @strcmp(i8* %47, i8* nonnull getelementptr inbounds ([5 x i8], [5 x i8]* @.str.17, i64 0, i64 0)) #16
  %156 = icmp eq i32 %155, 0
  br i1 %156, label %157, label %164

; <label>:157                                     ; preds = %154
  %158 = add nsw i32 %i1.089, 1
  %159 = sext i32 %158 to i64
  %160 = getelementptr inbounds i8*, i8** %45, i64 %159
  %161 = load i8*, i8** %160, align 8, !tbaa !5
  %162 = call i64 @strtol(i8* nocapture nonnull %161, i8** null, i32 10) #7
  %163 = trunc i64 %162 to i32
  br label %261

; <label>:164                                     ; preds = %154
  %165 = call i32 @strcmp(i8* %47, i8* nonnull getelementptr inbounds ([17 x i8], [17 x i8]* @.str.18, i64 0, i64 0)) #16
  %166 = icmp eq i32 %165, 0
  br i1 %166, label %261, label %167

; <label>:167                                     ; preds = %164
  %168 = call i32 @strcmp(i8* %47, i8* nonnull getelementptr inbounds ([7 x i8], [7 x i8]* @.str.19, i64 0, i64 0)) #16
  %169 = icmp eq i32 %168, 0
  br i1 %169, label %170, label %177

; <label>:170                                     ; preds = %167
  %171 = add nsw i32 %i1.089, 1
  %172 = sext i32 %171 to i64
  %173 = getelementptr inbounds i8*, i8** %45, i64 %172
  %174 = load i8*, i8** %173, align 8, !tbaa !5
  %175 = call i64 @strtol(i8* nocapture nonnull %174, i8** null, i32 10) #7
  %176 = trunc i64 %175 to i32
  br label %261

; <label>:177                                     ; preds = %167
  %178 = call i32 @strcmp(i8* %47, i8* nonnull getelementptr inbounds ([3 x i8], [3 x i8]* @.str.20, i64 0, i64 0)) #16
  %179 = icmp eq i32 %178, 0
  br i1 %179, label %183, label %180

; <label>:180                                     ; preds = %177
  %181 = call i32 @strcmp(i8* %47, i8* nonnull getelementptr inbounds ([14 x i8], [14 x i8]* @.str.21, i64 0, i64 0)) #16
  %182 = icmp eq i32 %181, 0
  br i1 %182, label %183, label %190

; <label>:183                                     ; preds = %180, %177
  %184 = add nsw i32 %i1.089, 1
  %185 = sext i32 %184 to i64
  %186 = getelementptr inbounds i8*, i8** %45, i64 %185
  %187 = load i8*, i8** %186, align 8, !tbaa !5
  %188 = call i64 @strtol(i8* nocapture nonnull %187, i8** null, i32 10) #7
  %189 = trunc i64 %188 to i32
  br label %261

; <label>:190                                     ; preds = %180
  %191 = call i32 @strcmp(i8* %47, i8* nonnull getelementptr inbounds ([14 x i8], [14 x i8]* @.str.22, i64 0, i64 0)) #16
  %192 = icmp eq i32 %191, 0
  br i1 %192, label %261, label %193

; <label>:193                                     ; preds = %190
  %194 = call i32 @strcmp(i8* %47, i8* nonnull getelementptr inbounds ([3 x i8], [3 x i8]* @.str.23, i64 0, i64 0)) #16
  %195 = icmp eq i32 %194, 0
  br i1 %195, label %199, label %196

; <label>:196                                     ; preds = %193
  %197 = call i32 @strcmp(i8* %47, i8* nonnull getelementptr inbounds ([12 x i8], [12 x i8]* @.str.24, i64 0, i64 0)) #16
  %198 = icmp eq i32 %197, 0
  br i1 %198, label %199, label %211

; <label>:199                                     ; preds = %196, %193
  %200 = load i8*, i8** %4, align 8, !tbaa !7
  %201 = icmp eq i8* %200, null
  br i1 %201, label %202, label %204

; <label>:202                                     ; preds = %199
  %203 = call noalias i8* @_Znam(i64 1000) #18
  store i8* %203, i8** %4, align 8, !tbaa !7
  br label %204

; <label>:204                                     ; preds = %202, %199
  %205 = phi i8* [ %203, %202 ], [ %200, %199 ]
  %206 = add nsw i32 %i1.089, 1
  %207 = sext i32 %206 to i64
  %208 = getelementptr inbounds i8*, i8** %45, i64 %207
  %209 = load i8*, i8** %208, align 8, !tbaa !5
  %210 = call i8* @strcpy(i8* nonnull %205, i8* %209) #7
  br label %261

; <label>:211                                     ; preds = %196
  %212 = call i32 @strcmp(i8* %47, i8* nonnull getelementptr inbounds ([3 x i8], [3 x i8]* @.str.25, i64 0, i64 0)) #16
  %213 = icmp eq i32 %212, 0
  br i1 %213, label %217, label %214

; <label>:214                                     ; preds = %211
  %215 = call i32 @strcmp(i8* %47, i8* nonnull getelementptr inbounds ([8 x i8], [8 x i8]* @.str.26, i64 0, i64 0)) #16
  %216 = icmp eq i32 %215, 0
  br i1 %216, label %217, label %225

; <label>:217                                     ; preds = %214, %211
  %218 = add nsw i32 %i1.089, 1
  %219 = sext i32 %218 to i64
  %220 = getelementptr inbounds i8*, i8** %45, i64 %219
  %221 = load i8*, i8** %220, align 8, !tbaa !5
  %222 = call i32 @strcmp(i8* %221, i8* nonnull getelementptr inbounds ([6 x i8], [6 x i8]* @.str.27, i64 0, i64 0)) #16
  %223 = icmp eq i32 %222, 0
  %224 = zext i1 %223 to i32
  store i32 %224, i32* %39, align 8, !tbaa !11
  br label %261

; <label>:225                                     ; preds = %214
  %226 = call i32 @strcmp(i8* %47, i8* nonnull getelementptr inbounds ([3 x i8], [3 x i8]* @.str.28, i64 0, i64 0)) #16
  %227 = icmp eq i32 %226, 0
  br i1 %227, label %231, label %228

; <label>:228                                     ; preds = %225
  %229 = call i32 @strcmp(i8* %47, i8* nonnull getelementptr inbounds ([8 x i8], [8 x i8]* @.str.29, i64 0, i64 0)) #16
  %230 = icmp eq i32 %229, 0
  br i1 %230, label %231, label %239

; <label>:231                                     ; preds = %228, %225
  %232 = add nsw i32 %i1.089, 1
  %233 = sext i32 %232 to i64
  %234 = getelementptr inbounds i8*, i8** %45, i64 %233
  %235 = load i8*, i8** %234, align 8, !tbaa !5
  %236 = call i32 @strcmp(i8* %235, i8* nonnull getelementptr inbounds ([4 x i8], [4 x i8]* @.str.30, i64 0, i64 0)) #16
  %237 = icmp eq i32 %236, 0
  %238 = zext i1 %237 to i32
  store i32 %238, i32* %40, align 4, !tbaa !12
  br label %261

; <label>:239                                     ; preds = %228
  %240 = call i32 @strcmp(i8* %47, i8* nonnull getelementptr inbounds ([4 x i8], [4 x i8]* @.str.31, i64 0, i64 0)) #16
  %241 = icmp eq i32 %240, 0
  br i1 %241, label %245, label %242

; <label>:242                                     ; preds = %239
  %243 = call i32 @strcmp(i8* %47, i8* nonnull getelementptr inbounds ([15 x i8], [15 x i8]* @.str.32, i64 0, i64 0)) #16
  %244 = icmp eq i32 %243, 0
  br i1 %244, label %245, label %252

; <label>:245                                     ; preds = %242, %239
  %246 = add nsw i32 %i1.089, 1
  %247 = sext i32 %246 to i64
  %248 = getelementptr inbounds i8*, i8** %45, i64 %247
  %249 = load i8*, i8** %248, align 8, !tbaa !5
  %250 = call i64 @strtol(i8* nocapture nonnull %249, i8** null, i32 10) #7
  %251 = trunc i64 %250 to i32
  br label %261

; <label>:252                                     ; preds = %242
  %253 = call i32 @strcmp(i8* %47, i8* nonnull getelementptr inbounds ([3 x i8], [3 x i8]* @.str.33, i64 0, i64 0)) #16
  %254 = icmp eq i32 %253, 0
  br i1 %254, label %258, label %255

; <label>:255                                     ; preds = %252
  %256 = call i32 @strcmp(i8* %47, i8* nonnull getelementptr inbounds ([7 x i8], [7 x i8]* @.str.34, i64 0, i64 0)) #16
  %257 = icmp eq i32 %256, 0
  br i1 %257, label %258, label %261

; <label>:258                                     ; preds = %255, %252
  %puts = call i32 @puts(i8* nonnull getelementptr inbounds ([109 x i8], [109 x i8]* @str, i64 0, i64 0))
  %puts9 = call i32 @puts(i8* nonnull getelementptr inbounds ([67 x i8], [67 x i8]* @str.111, i64 0, i64 0))
  %puts10 = call i32 @puts(i8* nonnull getelementptr inbounds ([111 x i8], [111 x i8]* @str.112, i64 0, i64 0))
  %puts11 = call i32 @puts(i8* nonnull getelementptr inbounds ([335 x i8], [335 x i8]* @str.113, i64 0, i64 0))
  %puts12 = call i32 @puts(i8* nonnull getelementptr inbounds ([21 x i8], [21 x i8]* @str.114, i64 0, i64 0))
  %puts13 = call i32 @puts(i8* nonnull getelementptr inbounds ([28 x i8], [28 x i8]* @str.115, i64 0, i64 0))
  %puts14 = call i32 @puts(i8* nonnull getelementptr inbounds ([88 x i8], [88 x i8]* @str.116, i64 0, i64 0))
  %puts15 = call i32 @puts(i8* nonnull getelementptr inbounds ([81 x i8], [81 x i8]* @str.117, i64 0, i64 0))
  %puts16 = call i32 @puts(i8* nonnull getelementptr inbounds ([268 x i8], [268 x i8]* @str.118, i64 0, i64 0))
  %puts17 = call i32 @puts(i8* nonnull getelementptr inbounds ([88 x i8], [88 x i8]* @str.119, i64 0, i64 0))
  %puts18 = call i32 @puts(i8* nonnull getelementptr inbounds ([56 x i8], [56 x i8]* @str.120, i64 0, i64 0))
  %259 = call i32 (i8*, ...) @printf(i8* nonnull getelementptr inbounds ([175 x i8], [175 x i8]* @.str.46, i64 0, i64 0))
  %puts19 = call i32 @puts(i8* nonnull getelementptr inbounds ([184 x i8], [184 x i8]* @str.121, i64 0, i64 0))
  %puts20 = call i32 @puts(i8* nonnull getelementptr inbounds ([84 x i8], [84 x i8]* @str.122, i64 0, i64 0))
  %puts21 = call i32 @puts(i8* nonnull getelementptr inbounds ([153 x i8], [153 x i8]* @str.123, i64 0, i64 0))
  %puts22 = call i32 @puts(i8* nonnull getelementptr inbounds ([21 x i8], [21 x i8]* @str.124, i64 0, i64 0))
  %puts23 = call i32 @puts(i8* nonnull getelementptr inbounds ([81 x i8], [81 x i8]* @str.125, i64 0, i64 0))
  %puts24 = call i32 @puts(i8* nonnull getelementptr inbounds ([84 x i8], [84 x i8]* @str.126, i64 0, i64 0))
  %puts25 = call i32 @puts(i8* nonnull getelementptr inbounds ([70 x i8], [70 x i8]* @str.127, i64 0, i64 0))
  %puts26 = call i32 @puts(i8* nonnull getelementptr inbounds ([65 x i8], [65 x i8]* @str.128, i64 0, i64 0))
  %puts27 = call i32 @puts(i8* nonnull getelementptr inbounds ([84 x i8], [84 x i8]* @str.129, i64 0, i64 0))
  %puts28 = call i32 @puts(i8* nonnull getelementptr inbounds ([73 x i8], [73 x i8]* @str.130, i64 0, i64 0))
  %puts29 = call i32 @puts(i8* nonnull getelementptr inbounds ([81 x i8], [81 x i8]* @str.131, i64 0, i64 0))
  %puts30 = call i32 @puts(i8* nonnull getelementptr inbounds ([65 x i8], [65 x i8]* @str.132, i64 0, i64 0))
  %puts31 = call i32 @puts(i8* nonnull getelementptr inbounds ([72 x i8], [72 x i8]* @str.133, i64 0, i64 0))
  %puts32 = call i32 @puts(i8* nonnull getelementptr inbounds ([17 x i8], [17 x i8]* @str.134, i64 0, i64 0))
  %puts33 = call i32 @puts(i8* nonnull getelementptr inbounds ([86 x i8], [86 x i8]* @str.135, i64 0, i64 0))
  %puts34 = call i32 @puts(i8* nonnull getelementptr inbounds ([160 x i8], [160 x i8]* @str.136, i64 0, i64 0))
  %260 = call i32 (i8*, ...) @printf(i8* nonnull getelementptr inbounds ([116 x i8], [116 x i8]* @.str.63, i64 0, i64 0))
  %puts35 = call i32 @puts(i8* nonnull getelementptr inbounds ([64 x i8], [64 x i8]* @str.137, i64 0, i64 0))
  %puts36 = call i32 @puts(i8* nonnull getelementptr inbounds ([64 x i8], [64 x i8]* @str.138, i64 0, i64 0))
  %puts37 = call i32 @puts(i8* nonnull getelementptr inbounds ([58 x i8], [58 x i8]* @str.139, i64 0, i64 0))
  %puts38 = call i32 @puts(i8* nonnull getelementptr inbounds ([59 x i8], [59 x i8]* @str.140, i64 0, i64 0))
  call void @exit(i32 0) #17
  unreachable

; <label>:261                                     ; preds = %255, %245, %231, %217, %204, %190, %183, %170, %164, %157, %147, %137, %124, %114, %104, %94, %84, %71, %63, %53
  %ny.1 = phi i32 [ %ny.076, %53 ], [ %ny.076, %63 ], [ %ny.076, %71 ], [ %ny.076, %84 ], [ %ny.076, %94 ], [ %110, %104 ], [ %ny.076, %114 ], [ %ny.076, %124 ], [ %ny.076, %137 ], [ %ny.076, %147 ], [ %ny.076, %157 ], [ %ny.076, %170 ], [ %ny.076, %183 ], [ %ny.076, %204 ], [ %ny.076, %217 ], [ %ny.076, %231 ], [ %ny.076, %245 ], [ %ny.076, %255 ], [ %ny.076, %164 ], [ %ny.076, %190 ]
  %nz.1 = phi i32 [ %nz.077, %53 ], [ %nz.077, %63 ], [ %nz.077, %71 ], [ %nz.077, %84 ], [ %nz.077, %94 ], [ %nz.077, %104 ], [ %120, %114 ], [ %nz.077, %124 ], [ %nz.077, %137 ], [ %nz.077, %147 ], [ %nz.077, %157 ], [ %nz.077, %170 ], [ %nz.077, %183 ], [ %nz.077, %204 ], [ %nz.077, %217 ], [ %nz.077, %231 ], [ %nz.077, %245 ], [ %nz.077, %255 ], [ %nz.077, %164 ], [ %nz.077, %190 ]
  %check_safeexchange.1 = phi i32 [ %check_safeexchange.078, %53 ], [ %check_safeexchange.078, %63 ], [ %check_safeexchange.078, %71 ], [ %check_safeexchange.078, %84 ], [ %check_safeexchange.078, %94 ], [ %check_safeexchange.078, %104 ], [ %check_safeexchange.078, %114 ], [ %check_safeexchange.078, %124 ], [ %check_safeexchange.078, %137 ], [ %check_safeexchange.078, %147 ], [ %check_safeexchange.078, %157 ], [ %check_safeexchange.078, %170 ], [ %check_safeexchange.078, %183 ], [ %check_safeexchange.078, %204 ], [ %check_safeexchange.078, %217 ], [ %check_safeexchange.078, %231 ], [ %check_safeexchange.078, %245 ], [ %check_safeexchange.078, %255 ], [ 1, %164 ], [ %check_safeexchange.078, %190 ]
  %nx.1 = phi i32 [ %nx.079, %53 ], [ %nx.079, %63 ], [ %nx.079, %71 ], [ %nx.079, %84 ], [ %100, %94 ], [ %nx.079, %104 ], [ %nx.079, %114 ], [ %nx.079, %124 ], [ %nx.079, %137 ], [ %nx.079, %147 ], [ %nx.079, %157 ], [ %nx.079, %170 ], [ %nx.079, %183 ], [ %nx.079, %204 ], [ %nx.079, %217 ], [ %nx.079, %231 ], [ %nx.079, %245 ], [ %nx.079, %255 ], [ %nx.079, %164 ], [ %nx.079, %190 ]
  %use_sse.1 = phi i32 [ %use_sse.080, %53 ], [ %use_sse.080, %63 ], [ %use_sse.080, %71 ], [ %use_sse.080, %84 ], [ %use_sse.080, %94 ], [ %use_sse.080, %104 ], [ %use_sse.080, %114 ], [ %use_sse.080, %124 ], [ %use_sse.080, %137 ], [ %use_sse.080, %147 ], [ %163, %157 ], [ %use_sse.080, %170 ], [ %use_sse.080, %183 ], [ %use_sse.080, %204 ], [ %use_sse.080, %217 ], [ %use_sse.080, %231 ], [ %use_sse.080, %245 ], [ %use_sse.080, %255 ], [ %use_sse.080, %164 ], [ %use_sse.080, %190 ]
  %screen_yaml.1 = phi i32 [ %screen_yaml.081, %53 ], [ %screen_yaml.081, %63 ], [ %screen_yaml.081, %71 ], [ %screen_yaml.081, %84 ], [ %screen_yaml.081, %94 ], [ %screen_yaml.081, %104 ], [ %screen_yaml.081, %114 ], [ %screen_yaml.081, %124 ], [ %screen_yaml.081, %137 ], [ %screen_yaml.081, %147 ], [ %screen_yaml.081, %157 ], [ %screen_yaml.081, %170 ], [ %screen_yaml.081, %183 ], [ %screen_yaml.081, %204 ], [ %screen_yaml.081, %217 ], [ %screen_yaml.081, %231 ], [ %screen_yaml.081, %245 ], [ %screen_yaml.081, %255 ], [ %screen_yaml.081, %164 ], [ 1, %190 ]
  %yaml_output.1 = phi i32 [ %yaml_output.082, %53 ], [ %yaml_output.082, %63 ], [ %yaml_output.082, %71 ], [ %yaml_output.082, %84 ], [ %yaml_output.082, %94 ], [ %yaml_output.082, %104 ], [ %yaml_output.082, %114 ], [ %yaml_output.082, %124 ], [ %yaml_output.082, %137 ], [ %yaml_output.082, %147 ], [ %yaml_output.082, %157 ], [ %yaml_output.082, %170 ], [ %189, %183 ], [ %yaml_output.082, %204 ], [ %yaml_output.082, %217 ], [ %yaml_output.082, %231 ], [ %yaml_output.082, %245 ], [ %yaml_output.082, %255 ], [ %yaml_output.082, %164 ], [ %yaml_output.082, %190 ]
  %halfneigh.1 = phi i32 [ %halfneigh.083, %53 ], [ %halfneigh.083, %63 ], [ %halfneigh.083, %71 ], [ %halfneigh.083, %84 ], [ %halfneigh.083, %94 ], [ %halfneigh.083, %104 ], [ %halfneigh.083, %114 ], [ %halfneigh.083, %124 ], [ %halfneigh.083, %137 ], [ %153, %147 ], [ %halfneigh.083, %157 ], [ %halfneigh.083, %170 ], [ %halfneigh.083, %183 ], [ %halfneigh.083, %204 ], [ %halfneigh.083, %217 ], [ %halfneigh.083, %231 ], [ %halfneigh.083, %245 ], [ %halfneigh.083, %255 ], [ %halfneigh.083, %164 ], [ %halfneigh.083, %190 ]
  %system_size.1 = phi i32 [ %system_size.084, %53 ], [ %system_size.084, %63 ], [ %system_size.084, %71 ], [ %90, %84 ], [ %system_size.084, %94 ], [ %system_size.084, %104 ], [ %system_size.084, %114 ], [ %system_size.084, %124 ], [ %system_size.084, %137 ], [ %system_size.084, %147 ], [ %system_size.084, %157 ], [ %system_size.084, %170 ], [ %system_size.084, %183 ], [ %system_size.084, %204 ], [ %system_size.084, %217 ], [ %system_size.084, %231 ], [ %system_size.084, %245 ], [ %system_size.084, %255 ], [ %system_size.084, %164 ], [ %system_size.084, %190 ]
  %neighbor_size.1 = phi i32 [ %neighbor_size.085, %53 ], [ %neighbor_size.085, %63 ], [ %neighbor_size.085, %71 ], [ %neighbor_size.085, %84 ], [ %neighbor_size.085, %94 ], [ %neighbor_size.085, %104 ], [ %neighbor_size.085, %114 ], [ %neighbor_size.085, %124 ], [ %143, %137 ], [ %neighbor_size.085, %147 ], [ %neighbor_size.085, %157 ], [ %neighbor_size.085, %170 ], [ %neighbor_size.085, %183 ], [ %neighbor_size.085, %204 ], [ %neighbor_size.085, %217 ], [ %neighbor_size.085, %231 ], [ %neighbor_size.085, %245 ], [ %neighbor_size.085, %255 ], [ %neighbor_size.085, %164 ], [ %neighbor_size.085, %190 ]
  %ghost_newton.1 = phi i32 [ %ghost_newton.086, %53 ], [ %ghost_newton.086, %63 ], [ %ghost_newton.086, %71 ], [ %ghost_newton.086, %84 ], [ %ghost_newton.086, %94 ], [ %ghost_newton.086, %104 ], [ %ghost_newton.086, %114 ], [ %ghost_newton.086, %124 ], [ %ghost_newton.086, %137 ], [ %ghost_newton.086, %147 ], [ %ghost_newton.086, %157 ], [ %ghost_newton.086, %170 ], [ %ghost_newton.086, %183 ], [ %ghost_newton.086, %204 ], [ %ghost_newton.086, %217 ], [ %ghost_newton.086, %231 ], [ %251, %245 ], [ %ghost_newton.086, %255 ], [ %ghost_newton.086, %164 ], [ %ghost_newton.086, %190 ]
  %sort.1 = phi i32 [ %sort.087, %53 ], [ %sort.087, %63 ], [ %sort.087, %71 ], [ %sort.087, %84 ], [ %sort.087, %94 ], [ %sort.087, %104 ], [ %sort.087, %114 ], [ %sort.087, %124 ], [ %sort.087, %137 ], [ %sort.087, %147 ], [ %sort.087, %157 ], [ %176, %170 ], [ %sort.087, %183 ], [ %sort.087, %204 ], [ %sort.087, %217 ], [ %sort.087, %231 ], [ %sort.087, %245 ], [ %sort.087, %255 ], [ %sort.087, %164 ], [ %sort.087, %190 ]
  %ntypes.1 = phi i32 [ %ntypes.088, %53 ], [ %ntypes.088, %63 ], [ %ntypes.088, %71 ], [ %ntypes.088, %84 ], [ %ntypes.088, %94 ], [ %ntypes.088, %104 ], [ %ntypes.088, %114 ], [ %130, %124 ], [ %ntypes.088, %137 ], [ %ntypes.088, %147 ], [ %ntypes.088, %157 ], [ %ntypes.088, %170 ], [ %ntypes.088, %183 ], [ %ntypes.088, %204 ], [ %ntypes.088, %217 ], [ %ntypes.088, %231 ], [ %ntypes.088, %245 ], [ %ntypes.088, %255 ], [ %ntypes.088, %164 ], [ %ntypes.088, %190 ]
  %i1.1 = phi i32 [ %54, %53 ], [ %64, %63 ], [ %72, %71 ], [ %85, %84 ], [ %95, %94 ], [ %105, %104 ], [ %115, %114 ], [ %125, %124 ], [ %138, %137 ], [ %148, %147 ], [ %158, %157 ], [ %171, %170 ], [ %184, %183 ], [ %206, %204 ], [ %218, %217 ], [ %232, %231 ], [ %246, %245 ], [ %i1.089, %255 ], [ %i1.089, %164 ], [ %i1.089, %190 ]
  %num_steps.1 = phi i32 [ %num_steps.090, %53 ], [ %num_steps.090, %63 ], [ %77, %71 ], [ %num_steps.090, %84 ], [ %num_steps.090, %94 ], [ %num_steps.090, %104 ], [ %num_steps.090, %114 ], [ %num_steps.090, %124 ], [ %num_steps.090, %137 ], [ %num_steps.090, %147 ], [ %num_steps.090, %157 ], [ %num_steps.090, %170 ], [ %num_steps.090, %183 ], [ %num_steps.090, %204 ], [ %num_steps.090, %217 ], [ %num_steps.090, %231 ], [ %num_steps.090, %245 ], [ %num_steps.090, %255 ], [ %num_steps.090, %164 ], [ %num_steps.090, %190 ]
  %num_threads.1 = phi i32 [ %59, %53 ], [ %num_threads.091, %63 ], [ %num_threads.091, %71 ], [ %num_threads.091, %84 ], [ %num_threads.091, %94 ], [ %num_threads.091, %104 ], [ %num_threads.091, %114 ], [ %num_threads.091, %124 ], [ %num_threads.091, %137 ], [ %num_threads.091, %147 ], [ %num_threads.091, %157 ], [ %num_threads.091, %170 ], [ %num_threads.091, %183 ], [ %num_threads.091, %204 ], [ %num_threads.091, %217 ], [ %num_threads.091, %231 ], [ %num_threads.091, %245 ], [ %num_threads.091, %255 ], [ %num_threads.091, %164 ], [ %num_threads.091, %190 ]
  %262 = add nsw i32 %i1.1, 1
  %263 = load i32, i32* %1, align 4, !tbaa !1
  %264 = icmp slt i32 %262, %263
  br i1 %264, label %43, label %._crit_edge.loopexit

; <label>:265                                     ; preds = %._crit_edge
  %266 = bitcast %class.Integrate* %integrate to i8*
  call void @llvm.lifetime.start(i64 88, i8* %266) #7
  invoke void @_ZN9IntegrateC1Ev(%class.Integrate* nonnull %integrate)
          to label %267 unwind label %300

; <label>:267                                     ; preds = %265
  %268 = bitcast %class.Thermo* %thermo to i8*
  call void @llvm.lifetime.start(i64 128, i8* %268) #7
  invoke void @_ZN6ThermoC1Ev(%class.Thermo* nonnull %thermo)
          to label %269 unwind label %304

; <label>:269                                     ; preds = %267
  %270 = bitcast %class.Comm* %comm to i8*
  call void @llvm.lifetime.start(i64 336, i8* %270) #7
  invoke void @_ZN4CommC1Ev(%class.Comm* nonnull %comm)
          to label %271 unwind label %308

; <label>:271                                     ; preds = %269
  %272 = bitcast %class.Timer* %timer to i8*
  call void @llvm.lifetime.start(i64 24, i8* %272) #7
  invoke void @_ZN5TimerC1Ev(%class.Timer* nonnull %timer)
          to label %273 unwind label %312

; <label>:273                                     ; preds = %271
  %274 = bitcast %class.ThreadData* %threads to i8*
  call void @llvm.lifetime.start(i64 20, i8* %274) #7
  %275 = getelementptr inbounds %class.ThreadData, %class.ThreadData* %threads, i64 0, i32 0
  %276 = getelementptr inbounds %class.ThreadData, %class.ThreadData* %threads, i64 0, i32 1
  %277 = getelementptr inbounds %class.ThreadData, %class.ThreadData* %threads, i64 0, i32 2
  %278 = getelementptr inbounds %class.ThreadData, %class.ThreadData* %threads, i64 0, i32 3
  %279 = bitcast %class.ThreadData* %threads to <4 x i32>*
  store <4 x i32> <i32 0, i32 0, i32 0, i32 1>, <4 x i32>* %279, align 16, !tbaa !1
  %280 = getelementptr inbounds %class.ThreadData, %class.ThreadData* %threads, i64 0, i32 4
  store i32 1, i32* %280, align 16, !tbaa !13
  %281 = bitcast %class.Force** %force to i8*
  call void @llvm.lifetime.start(i64 8, i8* %281) #7
  %282 = getelementptr inbounds %struct.In, %struct.In* %in, i64 0, i32 6
  %283 = load i32, i32* %282, align 4, !tbaa !12
  %284 = icmp eq i32 %283, 1
  br i1 %284, label %285, label %324

; <label>:285                                     ; preds = %273
  %286 = invoke noalias i8* @_Znwm(i64 336) #18
          to label %287 unwind label %316

; <label>:287                                     ; preds = %285
  %288 = bitcast i8* %286 to %class.ForceEAM*
  invoke void @_ZN8ForceEAMC1Ei(%class.ForceEAM* %288, i32 %ntypes.0.lcssa)
          to label %289 unwind label %320

; <label>:289                                     ; preds = %287
  %290 = bitcast %class.Force** %force to i8**
  store i8* %286, i8** %290, align 8, !tbaa !5
  %291 = icmp eq i32 %ghost_newton.0.lcssa, 1
  br i1 %291, label %292, label %thread-pre-split

; <label>:292                                     ; preds = %289
  %293 = load i32, i32* %me, align 4, !tbaa !1
  %294 = icmp eq i32 %293, 0
  br i1 %294, label %295, label %thread-pre-split

; <label>:295                                     ; preds = %292
  %puts59 = call i32 @puts(i8* nonnull getelementptr inbounds ([67 x i8], [67 x i8]* @str.149, i64 0, i64 0))
  br label %thread-pre-split

; <label>:296                                     ; preds = %841, %._crit_edge
  %297 = landingpad { i8*, i32 }
          cleanup
  %298 = extractvalue { i8*, i32 } %297, 0
  %299 = extractvalue { i8*, i32 } %297, 1
  br label %845

; <label>:300                                     ; preds = %839, %265
  %301 = landingpad { i8*, i32 }
          cleanup
  %302 = extractvalue { i8*, i32 } %301, 0
  %303 = extractvalue { i8*, i32 } %301, 1
  br label %844

; <label>:304                                     ; preds = %837, %267
  %305 = landingpad { i8*, i32 }
          cleanup
  %306 = extractvalue { i8*, i32 } %305, 0
  %307 = extractvalue { i8*, i32 } %305, 1
  br label %842

; <label>:308                                     ; preds = %836, %269
  %309 = landingpad { i8*, i32 }
          cleanup
  %310 = extractvalue { i8*, i32 } %309, 0
  %311 = extractvalue { i8*, i32 } %309, 1
  br label %840

; <label>:312                                     ; preds = %834, %271
  %313 = landingpad { i8*, i32 }
          cleanup
  %314 = extractvalue { i8*, i32 } %313, 0
  %315 = extractvalue { i8*, i32 } %313, 1
  br label %838

; <label>:316                                     ; preds = %832, %830, %825, %820, %778, %777, %764, %759, %758, %756, %.thread50, %749, %741, %740, %.thread48, %618, %614, %606, %590, %589, %587, %584, %574, %545, %541, %423, %327, %285
  %317 = landingpad { i8*, i32 }
          cleanup
  %318 = extractvalue { i8*, i32 } %317, 0
  %319 = extractvalue { i8*, i32 } %317, 1
  br label %835

; <label>:320                                     ; preds = %287
  %321 = landingpad { i8*, i32 }
          cleanup
  %322 = extractvalue { i8*, i32 } %321, 0
  %323 = extractvalue { i8*, i32 } %321, 1
  call void @_ZdlPv(i8* nonnull %286) #19
  br label %835

thread-pre-split:                                 ; preds = %295, %292, %289
  %ghost_newton.2.ph = phi i32 [ 0, %292 ], [ 0, %295 ], [ %ghost_newton.0.lcssa, %289 ]
  %.pr = load i32, i32* %282, align 4, !tbaa !12
  br label %324

; <label>:324                                     ; preds = %thread-pre-split, %273
  %325 = phi i32 [ %.pr, %thread-pre-split ], [ %283, %273 ]
  %ghost_newton.2 = phi i32 [ %ghost_newton.2.ph, %thread-pre-split ], [ %ghost_newton.0.lcssa, %273 ]
  %326 = icmp eq i32 %325, 0
  br i1 %326, label %327, label %._crit_edge113

._crit_edge113:                                   ; preds = %324
  %.pre = load %class.Force*, %class.Force** %force, align 8, !tbaa !5
  br label %338

; <label>:327                                     ; preds = %324
  %328 = invoke noalias i8* @_Znwm(i64 128) #18
          to label %329 unwind label %316

; <label>:329                                     ; preds = %327
  %330 = bitcast i8* %328 to %class.ForceLJ*
  invoke void @_ZN7ForceLJC1Ei(%class.ForceLJ* %330, i32 %ntypes.0.lcssa)
          to label %331 unwind label %334

; <label>:331                                     ; preds = %329
  %332 = bitcast %class.Force** %force to i8**
  store i8* %328, i8** %332, align 8, !tbaa !5
  %333 = bitcast i8* %328 to %class.Force*
  %.pre114 = load i32, i32* %282, align 4, !tbaa !12
  br label %338

; <label>:334                                     ; preds = %329
  %335 = landingpad { i8*, i32 }
          cleanup
  %336 = extractvalue { i8*, i32 } %335, 0
  %337 = extractvalue { i8*, i32 } %335, 1
  call void @_ZdlPv(i8* nonnull %328) #19
  br label %835

; <label>:338                                     ; preds = %331, %._crit_edge113
  %339 = phi i32 [ %325, %._crit_edge113 ], [ %.pre114, %331 ]
  %340 = phi %class.Force* [ %.pre, %._crit_edge113 ], [ %333, %331 ]
  %341 = load i32, i32* %me, align 4, !tbaa !1
  store i32 %341, i32* %275, align 16, !tbaa !15
  %342 = load i32, i32* %nprocs, align 4, !tbaa !1
  store i32 %342, i32* %276, align 4, !tbaa !16
  store i32 0, i32* %277, align 8, !tbaa !17
  store i32 %num_threads.0.lcssa, i32* %278, align 4, !tbaa !18
  %343 = getelementptr inbounds %class.Atom, %class.Atom* %atom, i64 0, i32 11
  store %class.ThreadData* %threads, %class.ThreadData** %343, align 8, !tbaa !19
  %344 = getelementptr inbounds %class.Comm, %class.Comm* %comm, i64 0, i32 29
  store %class.ThreadData* %threads, %class.ThreadData** %344, align 8, !tbaa !22
  %345 = getelementptr inbounds %class.Force, %class.Force* %340, i64 0, i32 10
  store %class.ThreadData* %threads, %class.ThreadData** %345, align 8, !tbaa !24
  %346 = getelementptr inbounds %class.Integrate, %class.Integrate* %integrate, i64 0, i32 11
  store %class.ThreadData* %threads, %class.ThreadData** %346, align 8, !tbaa !26
  %347 = getelementptr inbounds %class.Neighbor, %class.Neighbor* %neighbor, i64 0, i32 15
  store %class.ThreadData* %threads, %class.ThreadData** %347, align 8, !tbaa !28
  %348 = getelementptr inbounds %class.Thermo, %class.Thermo* %thermo, i64 0, i32 15
  store %class.ThreadData* %threads, %class.ThreadData** %348, align 8, !tbaa !30
  %349 = icmp eq i32 %339, 0
  br i1 %349, label %.preheader, label %.loopexit

.preheader:                                       ; preds = %338
  %350 = mul i32 %ntypes.0.lcssa, %ntypes.0.lcssa
  %351 = icmp eq i32 %350, 0
  br i1 %351, label %.loopexit, label %.lr.ph

.lr.ph:                                           ; preds = %.preheader
  %352 = getelementptr inbounds %struct.In, %struct.In* %in, i64 0, i32 7
  %353 = bitcast double* %352 to i64*
  %354 = load %class.Force*, %class.Force** %force, align 8
  %355 = getelementptr inbounds %class.Force, %class.Force* %354, i64 0, i32 13
  %356 = load double*, double** %355, align 8
  %357 = getelementptr inbounds %struct.In, %struct.In* %in, i64 0, i32 8
  %358 = bitcast double* %357 to i64*
  %359 = getelementptr inbounds %class.Force, %class.Force* %354, i64 0, i32 15
  %360 = load double*, double** %359, align 8
  %361 = getelementptr inbounds %class.Force, %class.Force* %354, i64 0, i32 14
  %362 = load double*, double** %361, align 8
  %363 = zext i32 %350 to i64
  %xtraiter = and i32 %350, 1
  %lcmp.mod = icmp eq i32 %xtraiter, 0
  br i1 %lcmp.mod, label %.lr.ph.split, label %364

; <label>:364                                     ; preds = %.lr.ph
  %365 = load i64, i64* %353, align 8, !tbaa !32
  %366 = bitcast double* %356 to i64*
  store i64 %365, i64* %366, align 8, !tbaa !33
  %367 = load i64, i64* %358, align 8, !tbaa !34
  %368 = bitcast double* %360 to i64*
  store i64 %367, i64* %368, align 8, !tbaa !33
  %369 = load double, double* %357, align 8, !tbaa !34
  %370 = fmul double %369, %369
  %371 = fmul double %369, %370
  %372 = fmul double %369, %371
  %373 = fmul double %369, %372
  %374 = fmul double %369, %373
  store double %374, double* %362, align 8, !tbaa !33
  br label %.lr.ph.split

.lr.ph.split:                                     ; preds = %364, %.lr.ph
  %indvars.iv.unr = phi i64 [ 0, %.lr.ph ], [ 1, %364 ]
  %375 = icmp eq i32 %350, 1
  br i1 %375, label %.loopexit.loopexit, label %.lr.ph.split.split

.lr.ph.split.split:                               ; preds = %.lr.ph.split
  br label %376

; <label>:376                                     ; preds = %376, %.lr.ph.split.split
  %indvars.iv = phi i64 [ %indvars.iv.unr, %.lr.ph.split.split ], [ %indvars.iv.next.1, %376 ]
  %377 = load i64, i64* %353, align 8, !tbaa !32
  %378 = getelementptr inbounds double, double* %356, i64 %indvars.iv
  %379 = bitcast double* %378 to i64*
  store i64 %377, i64* %379, align 8, !tbaa !33
  %380 = load i64, i64* %358, align 8, !tbaa !34
  %381 = getelementptr inbounds double, double* %360, i64 %indvars.iv
  %382 = bitcast double* %381 to i64*
  store i64 %380, i64* %382, align 8, !tbaa !33
  %383 = load double, double* %357, align 8, !tbaa !34
  %384 = fmul double %383, %383
  %385 = fmul double %383, %384
  %386 = fmul double %383, %385
  %387 = fmul double %383, %386
  %388 = fmul double %383, %387
  %389 = getelementptr inbounds double, double* %362, i64 %indvars.iv
  store double %388, double* %389, align 8, !tbaa !33
  %indvars.iv.next = add nuw nsw i64 %indvars.iv, 1
  %390 = load i64, i64* %353, align 8, !tbaa !32
  %391 = getelementptr inbounds double, double* %356, i64 %indvars.iv.next
  %392 = bitcast double* %391 to i64*
  store i64 %390, i64* %392, align 8, !tbaa !33
  %393 = load i64, i64* %358, align 8, !tbaa !34
  %394 = getelementptr inbounds double, double* %360, i64 %indvars.iv.next
  %395 = bitcast double* %394 to i64*
  store i64 %393, i64* %395, align 8, !tbaa !33
  %396 = load double, double* %357, align 8, !tbaa !34
  %397 = fmul double %396, %396
  %398 = fmul double %396, %397
  %399 = fmul double %396, %398
  %400 = fmul double %396, %399
  %401 = fmul double %396, %400
  %402 = getelementptr inbounds double, double* %362, i64 %indvars.iv.next
  store double %401, double* %402, align 8, !tbaa !33
  %indvars.iv.next.1 = add nsw i64 %indvars.iv, 2
  %403 = icmp slt i64 %indvars.iv.next.1, %363
  br i1 %403, label %376, label %.loopexit.loopexit.unr-lcssa

.loopexit.loopexit.unr-lcssa:                     ; preds = %376
  br label %.loopexit.loopexit

.loopexit.loopexit:                               ; preds = %.loopexit.loopexit.unr-lcssa, %.lr.ph.split
  br label %.loopexit

.loopexit:                                        ; preds = %.loopexit.loopexit, %.preheader, %338
  %404 = getelementptr inbounds %class.Neighbor, %class.Neighbor* %neighbor, i64 0, i32 12
  store i32 %ghost_newton.2, i32* %404, align 8, !tbaa !35
  call void @omp_set_num_threads(i32 %num_threads.0.lcssa) #7
  %405 = getelementptr inbounds %class.Neighbor, %class.Neighbor* %neighbor, i64 0, i32 14
  store %class.Timer* %timer, %class.Timer** %405, align 8, !tbaa !36
  %406 = load %class.Force*, %class.Force** %force, align 8, !tbaa !5
  %407 = getelementptr inbounds %class.Force, %class.Force* %406, i64 0, i32 12
  store %class.Timer* %timer, %class.Timer** %407, align 8, !tbaa !37
  %408 = getelementptr inbounds %class.Comm, %class.Comm* %comm, i64 0, i32 30
  store i32 %check_safeexchange.0.lcssa, i32* %408, align 8, !tbaa !38
  %409 = getelementptr inbounds %class.Comm, %class.Comm* %comm, i64 0, i32 31
  store i32 0, i32* %409, align 4, !tbaa !39
  %410 = load %class.Force*, %class.Force** %force, align 8, !tbaa !5
  %411 = getelementptr inbounds %class.Force, %class.Force* %410, i64 0, i32 8
  store i32 %use_sse.0.lcssa, i32* %411, align 4, !tbaa !40
  %412 = getelementptr inbounds %class.Neighbor, %class.Neighbor* %neighbor, i64 0, i32 11
  store i32 %halfneigh.0.lcssa, i32* %412, align 4, !tbaa !41
  %413 = icmp slt i32 %halfneigh.0.lcssa, 0
  br i1 %413, label %414, label %417

; <label>:414                                     ; preds = %.loopexit
  %415 = load %class.Force*, %class.Force** %force, align 8, !tbaa !5
  %416 = getelementptr inbounds %class.Force, %class.Force* %415, i64 0, i32 9
  store i32 1, i32* %416, align 8, !tbaa !42
  br label %417

; <label>:417                                     ; preds = %414, %.loopexit
  %418 = icmp eq i32 %use_sse.0.lcssa, 0
  br i1 %418, label %426, label %419

; <label>:419                                     ; preds = %417
  %420 = load i32, i32* %me, align 4, !tbaa !1
  %421 = icmp eq i32 %420, 0
  br i1 %421, label %422, label %423

; <label>:422                                     ; preds = %419
  %puts51 = call i32 @puts(i8* nonnull getelementptr inbounds ([96 x i8], [96 x i8]* @str.141, i64 0, i64 0))
  br label %423

; <label>:423                                     ; preds = %422, %419
  %424 = invoke i32 @MPI_Finalize()
          to label %425 unwind label %316

; <label>:425                                     ; preds = %423
  call void @exit(i32 0) #17
  unreachable

; <label>:426                                     ; preds = %417
  %427 = icmp sgt i32 %num_steps.0.lcssa, 0
  br i1 %427, label %428, label %430

; <label>:428                                     ; preds = %426
  %429 = getelementptr inbounds %struct.In, %struct.In* %in, i64 0, i32 10
  store i32 %num_steps.0.lcssa, i32* %429, align 8, !tbaa !43
  br label %430

; <label>:430                                     ; preds = %428, %426
  %431 = icmp sgt i32 %system_size.0.lcssa, 0
  br i1 %431, label %432, label %436

; <label>:432                                     ; preds = %430
  %433 = getelementptr inbounds %struct.In, %struct.In* %in, i64 0, i32 0
  store i32 %system_size.0.lcssa, i32* %433, align 8, !tbaa !44
  %434 = getelementptr inbounds %struct.In, %struct.In* %in, i64 0, i32 1
  store i32 %system_size.0.lcssa, i32* %434, align 4, !tbaa !45
  %435 = getelementptr inbounds %struct.In, %struct.In* %in, i64 0, i32 2
  store i32 %system_size.0.lcssa, i32* %435, align 8, !tbaa !46
  br label %436

; <label>:436                                     ; preds = %432, %430
  %437 = icmp sgt i32 %nx.0.lcssa, 0
  br i1 %437, label %438, label %455

; <label>:438                                     ; preds = %436
  %439 = getelementptr inbounds %struct.In, %struct.In* %in, i64 0, i32 0
  store i32 %nx.0.lcssa, i32* %439, align 8, !tbaa !44
  %440 = icmp sgt i32 %ny.0.lcssa, 0
  br i1 %440, label %441, label %443

; <label>:441                                     ; preds = %438
  %442 = getelementptr inbounds %struct.In, %struct.In* %in, i64 0, i32 1
  store i32 %ny.0.lcssa, i32* %442, align 4, !tbaa !45
  br label %447

; <label>:443                                     ; preds = %438
  %444 = icmp slt i32 %system_size.0.lcssa, 0
  br i1 %444, label %445, label %447

; <label>:445                                     ; preds = %443
  %446 = getelementptr inbounds %struct.In, %struct.In* %in, i64 0, i32 1
  store i32 %nx.0.lcssa, i32* %446, align 4, !tbaa !45
  br label %447

; <label>:447                                     ; preds = %445, %443, %441
  %448 = icmp sgt i32 %nz.0.lcssa, 0
  br i1 %448, label %449, label %451

; <label>:449                                     ; preds = %447
  %450 = getelementptr inbounds %struct.In, %struct.In* %in, i64 0, i32 2
  store i32 %nz.0.lcssa, i32* %450, align 8, !tbaa !46
  br label %455

; <label>:451                                     ; preds = %447
  %452 = icmp slt i32 %system_size.0.lcssa, 0
  br i1 %452, label %453, label %455

; <label>:453                                     ; preds = %451
  %454 = getelementptr inbounds %struct.In, %struct.In* %in, i64 0, i32 2
  store i32 %nx.0.lcssa, i32* %454, align 8, !tbaa !46
  br label %455

; <label>:455                                     ; preds = %453, %451, %449, %436
  %456 = icmp sgt i32 %neighbor_size.0.lcssa, 0
  br i1 %456, label %.thread, label %460

.thread:                                          ; preds = %455
  %457 = getelementptr inbounds %class.Neighbor, %class.Neighbor* %neighbor, i64 0, i32 1
  store i32 %neighbor_size.0.lcssa, i32* %457, align 4, !tbaa !47
  %458 = getelementptr inbounds %class.Neighbor, %class.Neighbor* %neighbor, i64 0, i32 2
  store i32 %neighbor_size.0.lcssa, i32* %458, align 8, !tbaa !48
  %459 = getelementptr inbounds %class.Neighbor, %class.Neighbor* %neighbor, i64 0, i32 3
  store i32 %neighbor_size.0.lcssa, i32* %459, align 4, !tbaa !49
  %.pre115 = load i8*, i8** %4, align 8
  br label %.thread124

; <label>:460                                     ; preds = %455
  %461 = icmp slt i32 %neighbor_size.0.lcssa, 0
  %462 = load i8*, i8** %4, align 8
  %463 = icmp eq i8* %462, null
  %or.cond = and i1 %461, %463
  br i1 %or.cond, label %464, label %484

; <label>:464                                     ; preds = %460
  %465 = bitcast %struct.In* %in to i64*
  %466 = load i64, i64* %465, align 8
  %467 = trunc i64 %466 to i32
  %468 = sitofp i32 %467 to double
  %469 = fmul double %468, 0x3FEAAAAAAAAAAAAB
  %470 = fptosi double %469 to i32
  %471 = getelementptr inbounds %class.Neighbor, %class.Neighbor* %neighbor, i64 0, i32 1
  store i32 %470, i32* %471, align 4, !tbaa !47
  %472 = lshr i64 %466, 32
  %473 = trunc i64 %472 to i32
  %474 = sitofp i32 %473 to double
  %475 = fmul double %474, 0x3FEAAAAAAAAAAAAB
  %476 = fptosi double %475 to i32
  %477 = getelementptr inbounds %class.Neighbor, %class.Neighbor* %neighbor, i64 0, i32 2
  store i32 %476, i32* %477, align 8, !tbaa !48
  %478 = getelementptr inbounds %struct.In, %struct.In* %in, i64 0, i32 2
  %479 = load i32, i32* %478, align 8, !tbaa !46
  %480 = sitofp i32 %479 to double
  %481 = fmul double %480, 0x3FEAAAAAAAAAAAAB
  %482 = fptosi double %481 to i32
  %483 = getelementptr inbounds %class.Neighbor, %class.Neighbor* %neighbor, i64 0, i32 3
  store i32 %482, i32* %483, align 4, !tbaa !49
  br label %.thread124

; <label>:484                                     ; preds = %460
  %.not = xor i1 %461, true
  %or.cond41 = or i1 %463, %.not
  br i1 %or.cond41, label %..thread124_crit_edge, label %.thread127

..thread124_crit_edge:                            ; preds = %484
  %.phi.trans.insert.phi.trans.insert = getelementptr inbounds %class.Neighbor, %class.Neighbor* %neighbor, i64 0, i32 1
  %.pre117.pre = load i32, i32* %.phi.trans.insert.phi.trans.insert, align 4, !tbaa !47
  br label %.thread124

.thread127:                                       ; preds = %484
  %485 = getelementptr inbounds %class.Neighbor, %class.Neighbor* %neighbor, i64 0, i32 1
  store i32 -1, i32* %485, align 4, !tbaa !47
  br label %489

.thread124:                                       ; preds = %..thread124_crit_edge, %464, %.thread
  %.phi.trans.insert.pre-phi = phi i32* [ %.phi.trans.insert.phi.trans.insert, %..thread124_crit_edge ], [ %471, %464 ], [ %457, %.thread ]
  %.pre117 = phi i32 [ %.pre117.pre, %..thread124_crit_edge ], [ %470, %464 ], [ %neighbor_size.0.lcssa, %.thread ]
  %486 = phi i8* [ %462, %..thread124_crit_edge ], [ null, %464 ], [ %.pre115, %.thread ]
  %487 = icmp eq i32 %.pre117, 0
  br i1 %487, label %488, label %489

; <label>:488                                     ; preds = %.thread124
  store i32 1, i32* %.phi.trans.insert.pre-phi, align 4, !tbaa !47
  br label %489

; <label>:489                                     ; preds = %488, %.thread124, %.thread127
  %.pre-phi128 = phi i32* [ %485, %.thread127 ], [ %.phi.trans.insert.pre-phi, %488 ], [ %.phi.trans.insert.pre-phi, %.thread124 ]
  %490 = phi i8* [ %462, %.thread127 ], [ %486, %488 ], [ %486, %.thread124 ]
  %491 = getelementptr inbounds %class.Neighbor, %class.Neighbor* %neighbor, i64 0, i32 2
  %492 = bitcast i32* %491 to i64*
  %493 = load i64, i64* %492, align 8
  %494 = trunc i64 %493 to i32
  %495 = icmp eq i32 %494, 0
  br i1 %495, label %496, label %497

; <label>:496                                     ; preds = %489
  store i32 1, i32* %491, align 8, !tbaa !48
  br label %497

; <label>:497                                     ; preds = %496, %489
  %498 = icmp ult i64 %493, 4294967296
  br i1 %498, label %499, label %501

; <label>:499                                     ; preds = %497
  %500 = getelementptr inbounds %class.Neighbor, %class.Neighbor* %neighbor, i64 0, i32 3
  store i32 1, i32* %500, align 4, !tbaa !49
  br label %501

; <label>:501                                     ; preds = %499, %497
  %502 = getelementptr inbounds %struct.In, %struct.In* %in, i64 0, i32 10
  %503 = load i32, i32* %502, align 8, !tbaa !43
  %504 = getelementptr inbounds %class.Integrate, %class.Integrate* %integrate, i64 0, i32 2
  store i32 %503, i32* %504, align 8, !tbaa !50
  %505 = getelementptr inbounds %struct.In, %struct.In* %in, i64 0, i32 11
  %506 = bitcast double* %505 to i64*
  %507 = load i64, i64* %506, align 8, !tbaa !51
  %508 = getelementptr inbounds %class.Integrate, %class.Integrate* %integrate, i64 0, i32 0
  %509 = bitcast %class.Integrate* %integrate to i64*
  store i64 %507, i64* %509, align 8, !tbaa !52
  %510 = icmp sgt i32 %sort.0.lcssa, 0
  br i1 %510, label %._crit_edge118, label %511

._crit_edge118:                                   ; preds = %501
  %.phi.trans.insert119 = getelementptr inbounds %struct.In, %struct.In* %in, i64 0, i32 12
  %.pre120 = load i32, i32* %.phi.trans.insert119, align 8, !tbaa !53
  br label %516

; <label>:511                                     ; preds = %501
  %512 = icmp slt i32 %sort.0.lcssa, 0
  %513 = getelementptr inbounds %struct.In, %struct.In* %in, i64 0, i32 12
  %514 = load i32, i32* %513, align 8, !tbaa !53
  %515 = select i1 %512, i32 %514, i32 0
  br label %516

; <label>:516                                     ; preds = %511, %._crit_edge118
  %517 = phi i32 [ %.pre120, %._crit_edge118 ], [ %514, %511 ]
  %518 = phi i32 [ %sort.0.lcssa, %._crit_edge118 ], [ %515, %511 ]
  %519 = getelementptr inbounds %class.Integrate, %class.Integrate* %integrate, i64 0, i32 10
  store i32 %518, i32* %519, align 8, !tbaa !54
  %520 = getelementptr inbounds %class.Neighbor, %class.Neighbor* %neighbor, i64 0, i32 0
  store i32 %517, i32* %520, align 8, !tbaa !55
  %521 = getelementptr inbounds %struct.In, %struct.In* %in, i64 0, i32 14
  %522 = bitcast double* %521 to i64*
  %523 = load i64, i64* %522, align 8, !tbaa !56
  %524 = getelementptr inbounds %class.Neighbor, %class.Neighbor* %neighbor, i64 0, i32 4
  %525 = bitcast double* %524 to i64*
  store i64 %523, i64* %525, align 8, !tbaa !57
  %526 = getelementptr inbounds %struct.In, %struct.In* %in, i64 0, i32 13
  %527 = bitcast double* %526 to i64*
  %528 = load i64, i64* %527, align 8, !tbaa !58
  %529 = load %class.Force*, %class.Force** %force, align 8, !tbaa !5
  %530 = getelementptr inbounds %class.Force, %class.Force* %529, i64 0, i32 1
  %531 = bitcast double* %530 to i64*
  store i64 %528, i64* %531, align 8, !tbaa !59
  %532 = getelementptr inbounds %struct.In, %struct.In* %in, i64 0, i32 15
  %533 = load i32, i32* %532, align 8, !tbaa !60
  %534 = getelementptr inbounds %class.Thermo, %class.Thermo* %thermo, i64 0, i32 0
  store i32 %533, i32* %534, align 8, !tbaa !61
  %535 = load i32, i32* %me, align 4, !tbaa !1
  %536 = icmp eq i32 %535, 0
  br i1 %536, label %537, label %538

; <label>:537                                     ; preds = %516
  %puts58 = call i32 @puts(i8* nonnull getelementptr inbounds ([17 x i8], [17 x i8]* @str.148, i64 0, i64 0))
  %.pre121 = load i8*, i8** %4, align 8, !tbaa !7
  br label %538

; <label>:538                                     ; preds = %537, %516
  %539 = phi i8* [ %.pre121, %537 ], [ %490, %516 ]
  %540 = icmp eq i8* %539, null
  br i1 %540, label %574, label %541

; <label>:541                                     ; preds = %538
  %542 = getelementptr inbounds %struct.In, %struct.In* %in, i64 0, i32 5
  %543 = load i32, i32* %542, align 8, !tbaa !11
  %544 = invoke i32 @_Z16read_lammps_dataR4AtomR4CommR8NeighborR9IntegrateR6ThermoPci(%class.Atom* nonnull dereferenceable(224) %atom, %class.Comm* nonnull dereferenceable(336) %comm, %class.Neighbor* nonnull dereferenceable(240) %neighbor, %class.Integrate* nonnull dereferenceable(88) %integrate, %class.Thermo* nonnull dereferenceable(128) %thermo, i8* nonnull %539, i32 %543)
          to label %545 unwind label %316

; <label>:545                                     ; preds = %541
  %546 = getelementptr inbounds %class.Atom, %class.Atom* %atom, i64 0, i32 18, i32 0
  %547 = load double, double* %546, align 8, !tbaa !62
  %548 = getelementptr inbounds %class.Atom, %class.Atom* %atom, i64 0, i32 18, i32 1
  %549 = load double, double* %548, align 8, !tbaa !63
  %550 = fmul double %547, %549
  %551 = getelementptr inbounds %class.Atom, %class.Atom* %atom, i64 0, i32 18, i32 2
  %552 = load double, double* %551, align 8, !tbaa !64
  %553 = fmul double %550, %552
  %554 = getelementptr inbounds %class.Atom, %class.Atom* %atom, i64 0, i32 0
  %555 = load i32, i32* %554, align 8, !tbaa !65
  %556 = sitofp i32 %555 to double
  %557 = fdiv double %556, %553
  %558 = getelementptr inbounds %struct.In, %struct.In* %in, i64 0, i32 4
  store double %557, double* %558, align 8, !tbaa !66
  %559 = load %class.Force*, %class.Force** %force, align 8, !tbaa !5
  %560 = bitcast %class.Force* %559 to void (%class.Force*)***
  %561 = load void (%class.Force*)**, void (%class.Force*)*** %560, align 8, !tbaa !67
  %562 = getelementptr inbounds void (%class.Force*)*, void (%class.Force*)** %561, i64 2
  %563 = load void (%class.Force*)*, void (%class.Force*)** %562, align 8
  invoke void %563(%class.Force* %559)
          to label %564 unwind label %316

; <label>:564                                     ; preds = %545
  %565 = load i32, i32* %282, align 4, !tbaa !12
  %566 = icmp eq i32 %565, 1
  br i1 %566, label %567, label %621

; <label>:567                                     ; preds = %564
  %568 = load %class.Force*, %class.Force** %force, align 8, !tbaa !5
  %569 = getelementptr inbounds %class.Force, %class.Force* %568, i64 0, i32 4
  %570 = bitcast double* %569 to i64*
  %571 = load i64, i64* %570, align 8, !tbaa !69
  %572 = getelementptr inbounds %class.Atom, %class.Atom* %atom, i64 0, i32 13
  %573 = bitcast double* %572 to i64*
  store i64 %571, i64* %573, align 8, !tbaa !70
  br label %621

; <label>:574                                     ; preds = %538
  %575 = bitcast %struct.In* %in to i64*
  %576 = load i64, i64* %575, align 8
  %577 = trunc i64 %576 to i32
  %578 = lshr i64 %576, 32
  %579 = trunc i64 %578 to i32
  %580 = getelementptr inbounds %struct.In, %struct.In* %in, i64 0, i32 2
  %581 = load i32, i32* %580, align 8, !tbaa !46
  %582 = getelementptr inbounds %struct.In, %struct.In* %in, i64 0, i32 4
  %583 = load double, double* %582, align 8, !tbaa !66
  invoke void @_Z10create_boxR4Atomiiid(%class.Atom* nonnull dereferenceable(224) %atom, i32 %577, i32 %579, i32 %581, double %583)
          to label %584 unwind label %316

; <label>:584                                     ; preds = %574
  %585 = load double, double* %524, align 8, !tbaa !57
  %586 = invoke i32 @_ZN4Comm5setupEdR4Atom(%class.Comm* nonnull %comm, double %585, %class.Atom* nonnull dereferenceable(224) %atom)
          to label %587 unwind label %316

; <label>:587                                     ; preds = %584
  %588 = invoke i32 @_ZN8Neighbor5setupER4Atom(%class.Neighbor* nonnull %neighbor, %class.Atom* nonnull dereferenceable(224) %atom)
          to label %589 unwind label %316

; <label>:589                                     ; preds = %587
  invoke void @_ZN9Integrate5setupEv(%class.Integrate* nonnull %integrate)
          to label %590 unwind label %316

; <label>:590                                     ; preds = %589
  %591 = load %class.Force*, %class.Force** %force, align 8, !tbaa !5
  %592 = bitcast %class.Force* %591 to void (%class.Force*)***
  %593 = load void (%class.Force*)**, void (%class.Force*)*** %592, align 8, !tbaa !67
  %594 = getelementptr inbounds void (%class.Force*)*, void (%class.Force*)** %593, i64 2
  %595 = load void (%class.Force*)*, void (%class.Force*)** %594, align 8
  invoke void %595(%class.Force* %591)
          to label %596 unwind label %316

; <label>:596                                     ; preds = %590
  %597 = load i32, i32* %282, align 4, !tbaa !12
  %598 = icmp eq i32 %597, 1
  br i1 %598, label %599, label %606

; <label>:599                                     ; preds = %596
  %600 = load %class.Force*, %class.Force** %force, align 8, !tbaa !5
  %601 = getelementptr inbounds %class.Force, %class.Force* %600, i64 0, i32 4
  %602 = bitcast double* %601 to i64*
  %603 = load i64, i64* %602, align 8, !tbaa !69
  %604 = getelementptr inbounds %class.Atom, %class.Atom* %atom, i64 0, i32 13
  %605 = bitcast double* %604 to i64*
  store i64 %603, i64* %605, align 8, !tbaa !70
  br label %606

; <label>:606                                     ; preds = %599, %596
  %607 = load i64, i64* %575, align 8
  %608 = trunc i64 %607 to i32
  %609 = lshr i64 %607, 32
  %610 = trunc i64 %609 to i32
  %611 = load i32, i32* %580, align 8, !tbaa !46
  %612 = load double, double* %582, align 8, !tbaa !66
  %613 = invoke i32 @_Z12create_atomsR4Atomiiid(%class.Atom* nonnull dereferenceable(224) %atom, i32 %608, i32 %610, i32 %611, double %612)
          to label %614 unwind label %316

; <label>:614                                     ; preds = %606
  %615 = load double, double* %582, align 8, !tbaa !66
  %616 = getelementptr inbounds %struct.In, %struct.In* %in, i64 0, i32 5
  %617 = load i32, i32* %616, align 8, !tbaa !11
  invoke void @_ZN6Thermo5setupEdR9IntegrateR4Atomi(%class.Thermo* nonnull %thermo, double %615, %class.Integrate* nonnull dereferenceable(88) %integrate, %class.Atom* nonnull dereferenceable(224) %atom, i32 %617)
          to label %618 unwind label %316

; <label>:618                                     ; preds = %614
  %619 = getelementptr inbounds %struct.In, %struct.In* %in, i64 0, i32 3
  %620 = load double, double* %619, align 8, !tbaa !71
  invoke void @_Z15create_velocitydR4AtomR6Thermo(double %620, %class.Atom* nonnull dereferenceable(224) %atom, %class.Thermo* nonnull dereferenceable(128) %thermo)
          to label %621 unwind label %316

; <label>:621                                     ; preds = %618, %567, %564
  %622 = load i32, i32* %me, align 4, !tbaa !1
  %623 = icmp eq i32 %622, 0
  br i1 %623, label %624, label %.thread48

; <label>:624                                     ; preds = %621
  %puts57 = call i32 @puts(i8* nonnull getelementptr inbounds ([13 x i8], [13 x i8]* @str.147, i64 0, i64 0))
  %.pr47 = load i32, i32* %me, align 4, !tbaa !1
  %625 = icmp eq i32 %.pr47, 0
  br i1 %625, label %626, label %.thread48

; <label>:626                                     ; preds = %624
  %627 = load %struct._IO_FILE*, %struct._IO_FILE** @stdout, align 8, !tbaa !5
  %628 = call i64 @fwrite(i8* nonnull getelementptr inbounds ([48 x i8], [48 x i8]* @.str.72, i64 0, i64 0), i64 47, i64 1, %struct._IO_FILE* %627)
  %629 = load %struct._IO_FILE*, %struct._IO_FILE** @stdout, align 8, !tbaa !5
  %630 = call i64 @fwrite(i8* nonnull getelementptr inbounds ([18 x i8], [18 x i8]* @.str.73, i64 0, i64 0), i64 17, i64 1, %struct._IO_FILE* %629)
  %631 = load %struct._IO_FILE*, %struct._IO_FILE** @stdout, align 8, !tbaa !5
  %632 = load %class.ThreadData*, %class.ThreadData** %347, align 8, !tbaa !28
  %633 = getelementptr inbounds %class.ThreadData, %class.ThreadData* %632, i64 0, i32 1
  %634 = load i32, i32* %633, align 4, !tbaa !16
  %635 = call i32 (%struct._IO_FILE*, i8*, ...) @fprintf(%struct._IO_FILE* %631, i8* nonnull getelementptr inbounds ([22 x i8], [22 x i8]* @.str.74, i64 0, i64 0), i32 %634)
  %636 = load %struct._IO_FILE*, %struct._IO_FILE** @stdout, align 8, !tbaa !5
  %637 = load %class.ThreadData*, %class.ThreadData** %347, align 8, !tbaa !28
  %638 = getelementptr inbounds %class.ThreadData, %class.ThreadData* %637, i64 0, i32 3
  %639 = load i32, i32* %638, align 4, !tbaa !18
  %640 = call i32 (%struct._IO_FILE*, i8*, ...) @fprintf(%struct._IO_FILE* %636, i8* nonnull getelementptr inbounds ([23 x i8], [23 x i8]* @.str.75, i64 0, i64 0), i32 %639)
  %641 = load %struct._IO_FILE*, %struct._IO_FILE** @stdout, align 8, !tbaa !5
  %642 = select i1 %11, i8* getelementptr inbounds ([13 x i8], [13 x i8]* @.str.2, i64 0, i64 0), i8* %input_file.0.lcssa
  %643 = call i32 (%struct._IO_FILE*, i8*, ...) @fprintf(%struct._IO_FILE* %641, i8* nonnull getelementptr inbounds ([18 x i8], [18 x i8]* @.str.76, i64 0, i64 0), i8* %642)
  %644 = load %struct._IO_FILE*, %struct._IO_FILE** @stdout, align 8, !tbaa !5
  %645 = load i8*, i8** %4, align 8, !tbaa !7
  %646 = icmp ne i8* %645, null
  %647 = select i1 %646, i8* %645, i8* getelementptr inbounds ([5 x i8], [5 x i8]* @.str.78, i64 0, i64 0)
  %648 = call i32 (%struct._IO_FILE*, i8*, ...) @fprintf(%struct._IO_FILE* %644, i8* nonnull getelementptr inbounds ([17 x i8], [17 x i8]* @.str.77, i64 0, i64 0), i8* %647)
  %649 = load %struct._IO_FILE*, %struct._IO_FILE** @stdout, align 8, !tbaa !5
  %650 = call i64 @fwrite(i8* nonnull getelementptr inbounds ([22 x i8], [22 x i8]* @.str.79, i64 0, i64 0), i64 21, i64 1, %struct._IO_FILE* %649)
  %651 = load %struct._IO_FILE*, %struct._IO_FILE** @stdout, align 8, !tbaa !5
  %652 = load i32, i32* %282, align 4, !tbaa !12
  %653 = icmp eq i32 %652, 0
  %654 = select i1 %653, i8* getelementptr inbounds ([3 x i8], [3 x i8]* @.str.81, i64 0, i64 0), i8* getelementptr inbounds ([4 x i8], [4 x i8]* @.str.82, i64 0, i64 0)
  %655 = call i32 (%struct._IO_FILE*, i8*, ...) @fprintf(%struct._IO_FILE* %651, i8* nonnull getelementptr inbounds ([19 x i8], [19 x i8]* @.str.80, i64 0, i64 0), i8* %654)
  %656 = load %struct._IO_FILE*, %struct._IO_FILE** @stdout, align 8, !tbaa !5
  %657 = getelementptr inbounds %struct.In, %struct.In* %in, i64 0, i32 7
  %658 = load double, double* %657, align 8, !tbaa !32
  %659 = getelementptr inbounds %struct.In, %struct.In* %in, i64 0, i32 8
  %660 = load double, double* %659, align 8, !tbaa !34
  %661 = call i32 (%struct._IO_FILE*, i8*, ...) @fprintf(%struct._IO_FILE* %656, i8* nonnull getelementptr inbounds ([36 x i8], [36 x i8]* @.str.83, i64 0, i64 0), double %658, double %660)
  %662 = load %struct._IO_FILE*, %struct._IO_FILE** @stdout, align 8, !tbaa !5
  %663 = getelementptr inbounds %struct.In, %struct.In* %in, i64 0, i32 5
  %664 = load i32, i32* %663, align 8, !tbaa !11
  %665 = icmp eq i32 %664, 0
  %666 = select i1 %665, i8* getelementptr inbounds ([3 x i8], [3 x i8]* @.str.81, i64 0, i64 0), i8* getelementptr inbounds ([6 x i8], [6 x i8]* @.str.85, i64 0, i64 0)
  %667 = call i32 (%struct._IO_FILE*, i8*, ...) @fprintf(%struct._IO_FILE* %662, i8* nonnull getelementptr inbounds ([14 x i8], [14 x i8]* @.str.84, i64 0, i64 0), i8* %666)
  %668 = load %struct._IO_FILE*, %struct._IO_FILE** @stdout, align 8, !tbaa !5
  %669 = getelementptr inbounds %class.Atom, %class.Atom* %atom, i64 0, i32 0
  %670 = load i32, i32* %669, align 8, !tbaa !65
  %671 = call i32 (%struct._IO_FILE*, i8*, ...) @fprintf(%struct._IO_FILE* %668, i8* nonnull getelementptr inbounds ([14 x i8], [14 x i8]* @.str.86, i64 0, i64 0), i32 %670)
  %672 = load %struct._IO_FILE*, %struct._IO_FILE** @stdout, align 8, !tbaa !5
  %673 = getelementptr inbounds %class.Atom, %class.Atom* %atom, i64 0, i32 7
  %674 = load i32, i32* %673, align 8, !tbaa !72
  %675 = call i32 (%struct._IO_FILE*, i8*, ...) @fprintf(%struct._IO_FILE* %672, i8* nonnull getelementptr inbounds ([19 x i8], [19 x i8]* @.str.87, i64 0, i64 0), i32 %674)
  %676 = load %struct._IO_FILE*, %struct._IO_FILE** @stdout, align 8, !tbaa !5
  %677 = getelementptr inbounds %class.Atom, %class.Atom* %atom, i64 0, i32 18, i32 0
  %678 = load double, double* %677, align 8, !tbaa !62
  %679 = getelementptr inbounds %class.Atom, %class.Atom* %atom, i64 0, i32 18, i32 1
  %680 = load double, double* %679, align 8, !tbaa !63
  %681 = getelementptr inbounds %class.Atom, %class.Atom* %atom, i64 0, i32 18, i32 2
  %682 = load double, double* %681, align 8, !tbaa !64
  %683 = bitcast %struct.In* %in to i64*
  %684 = load i64, i64* %683, align 8
  %685 = trunc i64 %684 to i32
  %686 = lshr i64 %684, 32
  %687 = trunc i64 %686 to i32
  %688 = getelementptr inbounds %struct.In, %struct.In* %in, i64 0, i32 2
  %689 = load i32, i32* %688, align 8, !tbaa !46
  %690 = call i32 (%struct._IO_FILE*, i8*, ...) @fprintf(%struct._IO_FILE* %676, i8* nonnull getelementptr inbounds ([61 x i8], [61 x i8]* @.str.88, i64 0, i64 0), double %678, double %680, double %682, i32 %685, i32 %687, i32 %689)
  %691 = load %struct._IO_FILE*, %struct._IO_FILE** @stdout, align 8, !tbaa !5
  %692 = getelementptr inbounds %struct.In, %struct.In* %in, i64 0, i32 4
  %693 = load double, double* %692, align 8, !tbaa !66
  %694 = call i32 (%struct._IO_FILE*, i8*, ...) @fprintf(%struct._IO_FILE* %691, i8* nonnull getelementptr inbounds ([17 x i8], [17 x i8]* @.str.89, i64 0, i64 0), double %693)
  %695 = load %struct._IO_FILE*, %struct._IO_FILE** @stdout, align 8, !tbaa !5
  %696 = load %class.Force*, %class.Force** %force, align 8, !tbaa !5
  %697 = getelementptr inbounds %class.Force, %class.Force* %696, i64 0, i32 1
  %698 = load double, double* %697, align 8, !tbaa !59
  %699 = call i32 (%struct._IO_FILE*, i8*, ...) @fprintf(%struct._IO_FILE* %695, i8* nonnull getelementptr inbounds ([22 x i8], [22 x i8]* @.str.90, i64 0, i64 0), double %698)
  %700 = load %struct._IO_FILE*, %struct._IO_FILE** @stdout, align 8, !tbaa !5
  %701 = load double, double* %508, align 8, !tbaa !52
  %702 = call i32 (%struct._IO_FILE*, i8*, ...) @fprintf(%struct._IO_FILE* %700, i8* nonnull getelementptr inbounds ([23 x i8], [23 x i8]* @.str.91, i64 0, i64 0), double %701)
  %703 = load %struct._IO_FILE*, %struct._IO_FILE** @stdout, align 8, !tbaa !5
  %704 = call i64 @fwrite(i8* nonnull getelementptr inbounds ([24 x i8], [24 x i8]* @.str.92, i64 0, i64 0), i64 23, i64 1, %struct._IO_FILE* %703)
  %705 = load %struct._IO_FILE*, %struct._IO_FILE** @stdout, align 8, !tbaa !5
  %706 = load double, double* %524, align 8, !tbaa !57
  %707 = call i32 (%struct._IO_FILE*, i8*, ...) @fprintf(%struct._IO_FILE* %705, i8* nonnull getelementptr inbounds ([22 x i8], [22 x i8]* @.str.93, i64 0, i64 0), double %706)
  %708 = load %struct._IO_FILE*, %struct._IO_FILE** @stdout, align 8, !tbaa !5
  %709 = load i32, i32* %412, align 4, !tbaa !41
  %710 = call i32 (%struct._IO_FILE*, i8*, ...) @fprintf(%struct._IO_FILE* %708, i8* nonnull getelementptr inbounds ([27 x i8], [27 x i8]* @.str.94, i64 0, i64 0), i32 %709)
  %711 = load %struct._IO_FILE*, %struct._IO_FILE** @stdout, align 8, !tbaa !5
  %712 = load i32, i32* %.pre-phi128, align 4, !tbaa !47
  %713 = load i64, i64* %492, align 8
  %714 = trunc i64 %713 to i32
  %715 = lshr i64 %713, 32
  %716 = trunc i64 %715 to i32
  %717 = call i32 (%struct._IO_FILE*, i8*, ...) @fprintf(%struct._IO_FILE* %711, i8* nonnull getelementptr inbounds ([28 x i8], [28 x i8]* @.str.95, i64 0, i64 0), i32 %712, i32 %714, i32 %716)
  %718 = load %struct._IO_FILE*, %struct._IO_FILE** @stdout, align 8, !tbaa !5
  %719 = load i32, i32* %520, align 8, !tbaa !55
  %720 = call i32 (%struct._IO_FILE*, i8*, ...) @fprintf(%struct._IO_FILE* %718, i8* nonnull getelementptr inbounds ([27 x i8], [27 x i8]* @.str.96, i64 0, i64 0), i32 %719)
  %721 = load %struct._IO_FILE*, %struct._IO_FILE** @stdout, align 8, !tbaa !5
  %722 = load i32, i32* %519, align 8, !tbaa !54
  %723 = call i32 (%struct._IO_FILE*, i8*, ...) @fprintf(%struct._IO_FILE* %721, i8* nonnull getelementptr inbounds ([26 x i8], [26 x i8]* @.str.97, i64 0, i64 0), i32 %722)
  %724 = load %struct._IO_FILE*, %struct._IO_FILE** @stdout, align 8, !tbaa !5
  %725 = load i32, i32* %534, align 8, !tbaa !61
  %726 = call i32 (%struct._IO_FILE*, i8*, ...) @fprintf(%struct._IO_FILE* %724, i8* nonnull getelementptr inbounds ([25 x i8], [25 x i8]* @.str.98, i64 0, i64 0), i32 %725)
  %727 = load %struct._IO_FILE*, %struct._IO_FILE** @stdout, align 8, !tbaa !5
  %728 = call i32 (%struct._IO_FILE*, i8*, ...) @fprintf(%struct._IO_FILE* %727, i8* nonnull getelementptr inbounds ([21 x i8], [21 x i8]* @.str.99, i64 0, i64 0), i32 %ghost_newton.2)
  %729 = load %struct._IO_FILE*, %struct._IO_FILE** @stdout, align 8, !tbaa !5
  %730 = load %class.Force*, %class.Force** %force, align 8, !tbaa !5
  %731 = getelementptr inbounds %class.Force, %class.Force* %730, i64 0, i32 8
  %732 = load i32, i32* %731, align 4, !tbaa !40
  %733 = call i32 (%struct._IO_FILE*, i8*, ...) @fprintf(%struct._IO_FILE* %729, i8* nonnull getelementptr inbounds ([23 x i8], [23 x i8]* @.str.100, i64 0, i64 0), i32 %732)
  %734 = load %struct._IO_FILE*, %struct._IO_FILE** @stdout, align 8, !tbaa !5
  %735 = load i32, i32* %409, align 4, !tbaa !39
  %736 = call i32 (%struct._IO_FILE*, i8*, ...) @fprintf(%struct._IO_FILE* %734, i8* nonnull getelementptr inbounds ([25 x i8], [25 x i8]* @.str.101, i64 0, i64 0), i32 %735)
  %737 = load %struct._IO_FILE*, %struct._IO_FILE** @stdout, align 8, !tbaa !5
  %738 = call i32 (%struct._IO_FILE*, i8*, ...) @fprintf(%struct._IO_FILE* %737, i8* nonnull getelementptr inbounds ([23 x i8], [23 x i8]* @.str.102, i64 0, i64 0), i32 8)
  br label %.thread48

.thread48:                                        ; preds = %626, %624, %621
  invoke void @_ZN4Comm8exchangeER4Atom(%class.Comm* nonnull %comm, %class.Atom* nonnull dereferenceable(224) %atom)
          to label %739 unwind label %316

; <label>:739                                     ; preds = %.thread48
  br i1 %510, label %740, label %741

; <label>:740                                     ; preds = %739
  invoke void @_ZN4Atom4sortER8Neighbor(%class.Atom* nonnull %atom, %class.Neighbor* nonnull dereferenceable(240) %neighbor)
          to label %741 unwind label %316

; <label>:741                                     ; preds = %740, %739
  invoke void @_ZN4Comm7bordersER4Atom(%class.Comm* nonnull %comm, %class.Atom* nonnull dereferenceable(224) %atom)
          to label %742 unwind label %316

; <label>:742                                     ; preds = %741
  %743 = load %class.Force*, %class.Force** %force, align 8, !tbaa !5
  %744 = getelementptr inbounds %class.Force, %class.Force* %743, i64 0, i32 5
  store i32 1, i32* %744, align 8, !tbaa !73
  call void (%ident_t*, i32, void (i32*, i32*, ...)*, ...) @__kmpc_fork_call(%ident_t* nonnull @0, i32 5, void (i32*, i32*, ...)* nonnull bitcast (void (i32*, i32*, %class.Neighbor*, %class.Atom*, %class.Force**, %class.Comm*, i32*)* @.omp_outlined. to void (i32*, i32*, ...)*), %class.Neighbor* nonnull %neighbor, %class.Atom* nonnull %atom, %class.Force** nonnull %force, %class.Comm* nonnull %comm, i32* nonnull %me)
  %745 = load i32, i32* %412, align 4, !tbaa !41
  %746 = icmp eq i32 %745, 0
  %747 = load i32, i32* %404, align 8
  %748 = icmp eq i32 %747, 0
  %or.cond43 = or i1 %746, %748
  br i1 %or.cond43, label %750, label %749

; <label>:749                                     ; preds = %742
  invoke void @_ZN4Comm19reverse_communicateER4Atom(%class.Comm* nonnull %comm, %class.Atom* nonnull dereferenceable(224) %atom)
          to label %750 unwind label %316

; <label>:750                                     ; preds = %749, %742
  %751 = load i32, i32* %me, align 4, !tbaa !1
  %752 = icmp eq i32 %751, 0
  br i1 %752, label %753, label %.thread50

; <label>:753                                     ; preds = %750
  %puts55 = call i32 @puts(i8* nonnull getelementptr inbounds ([24 x i8], [24 x i8]* @str.145, i64 0, i64 0))
  %.pr49 = load i32, i32* %me, align 4, !tbaa !1
  %754 = icmp eq i32 %.pr49, 0
  br i1 %754, label %755, label %.thread50

; <label>:755                                     ; preds = %753
  %puts56 = call i32 @puts(i8* nonnull getelementptr inbounds ([22 x i8], [22 x i8]* @str.146, i64 0, i64 0))
  br label %.thread50

.thread50:                                        ; preds = %755, %753, %750
  call void (%ident_t*, i32, void (i32*, i32*, ...)*, ...) @__kmpc_fork_call(%ident_t* nonnull @0, i32 6, void (i32*, i32*, ...)* nonnull bitcast (void (i32*, i32*, %class.Thermo*, %class.Atom*, %class.Neighbor*, %class.Force**, %class.Timer*, %class.Comm*)* @.omp_outlined..106 to void (i32*, i32*, ...)*), %class.Thermo* nonnull %thermo, %class.Atom* nonnull %atom, %class.Neighbor* nonnull %neighbor, %class.Force** nonnull %force, %class.Timer* nonnull %timer, %class.Comm* nonnull %comm)
  invoke void @_ZN5Timer13barrier_startEi(%class.Timer* nonnull %timer, i32 0)
          to label %756 unwind label %316

; <label>:756                                     ; preds = %.thread50
  %757 = load %class.Force*, %class.Force** %force, align 8, !tbaa !5
  invoke void @_ZN9Integrate3runER4AtomP5ForceR8NeighborR4CommR6ThermoR5Timer(%class.Integrate* nonnull %integrate, %class.Atom* nonnull dereferenceable(224) %atom, %class.Force* %757, %class.Neighbor* nonnull dereferenceable(240) %neighbor, %class.Comm* nonnull dereferenceable(336) %comm, %class.Thermo* nonnull dereferenceable(128) %thermo, %class.Timer* nonnull dereferenceable(24) %timer)
          to label %758 unwind label %316

; <label>:758                                     ; preds = %756
  invoke void @_ZN5Timer12barrier_stopEi(%class.Timer* nonnull %timer, i32 0)
          to label %759 unwind label %316

; <label>:759                                     ; preds = %758
  %760 = bitcast i32* %natoms to i8*
  call void @llvm.lifetime.start(i64 4, i8* %760) #7
  %761 = getelementptr inbounds %class.Atom, %class.Atom* %atom, i64 0, i32 1
  %762 = bitcast i32* %761 to i8*
  %763 = invoke i32 @MPI_Allreduce(i8* %762, i8* %760, i32 1, i32 1275069445, i32 1476395011, i32 1140850688)
          to label %764 unwind label %316

; <label>:764                                     ; preds = %759
  %765 = load %class.Force*, %class.Force** %force, align 8, !tbaa !5
  %766 = getelementptr inbounds %class.Force, %class.Force* %765, i64 0, i32 5
  store i32 1, i32* %766, align 8, !tbaa !73
  %767 = bitcast %class.Force* %765 to void (%class.Force*, %class.Atom*, %class.Neighbor*, %class.Comm*, i32)***
  %768 = load void (%class.Force*, %class.Atom*, %class.Neighbor*, %class.Comm*, i32)**, void (%class.Force*, %class.Atom*, %class.Neighbor*, %class.Comm*, i32)*** %767, align 8, !tbaa !67
  %769 = getelementptr inbounds void (%class.Force*, %class.Atom*, %class.Neighbor*, %class.Comm*, i32)*, void (%class.Force*, %class.Atom*, %class.Neighbor*, %class.Comm*, i32)** %768, i64 4
  %770 = load void (%class.Force*, %class.Atom*, %class.Neighbor*, %class.Comm*, i32)*, void (%class.Force*, %class.Atom*, %class.Neighbor*, %class.Comm*, i32)** %769, align 8
  %771 = load i32, i32* %me, align 4, !tbaa !1
  invoke void %770(%class.Force* %765, %class.Atom* nonnull dereferenceable(224) %atom, %class.Neighbor* nonnull dereferenceable(240) %neighbor, %class.Comm* nonnull dereferenceable(336) %comm, i32 %771)
          to label %772 unwind label %316

; <label>:772                                     ; preds = %764
  %773 = load i32, i32* %412, align 4, !tbaa !41
  %774 = icmp eq i32 %773, 0
  %775 = load i32, i32* %404, align 8
  %776 = icmp eq i32 %775, 0
  %or.cond45 = or i1 %774, %776
  br i1 %or.cond45, label %778, label %777

; <label>:777                                     ; preds = %772
  invoke void @_ZN4Comm19reverse_communicateER4Atom(%class.Comm* nonnull %comm, %class.Atom* nonnull dereferenceable(224) %atom)
          to label %778 unwind label %316

; <label>:778                                     ; preds = %777, %772
  %779 = load %class.Force*, %class.Force** %force, align 8, !tbaa !5
  invoke void @_ZN6Thermo7computeEiR4AtomR8NeighborP5ForceR5TimerR4Comm(%class.Thermo* nonnull %thermo, i32 -1, %class.Atom* nonnull dereferenceable(224) %atom, %class.Neighbor* nonnull dereferenceable(240) %neighbor, %class.Force* %779, %class.Timer* nonnull dereferenceable(24) %timer, %class.Comm* nonnull dereferenceable(336) %comm)
          to label %780 unwind label %316

; <label>:780                                     ; preds = %778
  %781 = load i32, i32* %me, align 4, !tbaa !1
  %782 = icmp eq i32 %781, 0
  br i1 %782, label %783, label %818

; <label>:783                                     ; preds = %780
  %784 = getelementptr inbounds %class.Timer, %class.Timer* %timer, i64 0, i32 0
  %785 = load double*, double** %784, align 8, !tbaa !74
  %786 = load double, double* %785, align 8, !tbaa !33
  %787 = getelementptr inbounds double, double* %785, i64 2
  %788 = load double, double* %787, align 8, !tbaa !33
  %789 = fsub double %786, %788
  %790 = getelementptr inbounds double, double* %785, i64 3
  %791 = load double, double* %790, align 8, !tbaa !33
  %792 = fsub double %789, %791
  %793 = getelementptr inbounds double, double* %785, i64 1
  %794 = load double, double* %793, align 8, !tbaa !33
  %795 = fsub double %792, %794
  %puts52 = call i32 @puts(i8* nonnull getelementptr inbounds ([2 x i8], [2 x i8]* @str.142, i64 0, i64 0))
  %puts53 = call i32 @puts(i8* nonnull getelementptr inbounds ([23 x i8], [23 x i8]* @str.143, i64 0, i64 0))
  %puts54 = call i32 @puts(i8* nonnull getelementptr inbounds ([120 x i8], [120 x i8]* @str.144, i64 0, i64 0))
  %796 = load i32, i32* %nprocs, align 4, !tbaa !1
  %797 = load i32, i32* %504, align 8, !tbaa !50
  %798 = load i32, i32* %natoms, align 4, !tbaa !1
  %799 = load double*, double** %784, align 8, !tbaa !74
  %800 = load double, double* %799, align 8, !tbaa !33
  %801 = getelementptr inbounds double, double* %799, i64 2
  %802 = load double, double* %801, align 8, !tbaa !33
  %803 = getelementptr inbounds double, double* %799, i64 3
  %804 = load double, double* %803, align 8, !tbaa !33
  %805 = getelementptr inbounds double, double* %799, i64 1
  %806 = load double, double* %805, align 8, !tbaa !33
  %807 = sitofp i32 %798 to double
  %808 = sitofp i32 %797 to double
  %809 = fmul double %808, %807
  %810 = fdiv double %809, %800
  %811 = sitofp i32 %796 to double
  %812 = fdiv double %810, %811
  %813 = sitofp i32 %num_threads.0.lcssa to double
  %814 = fdiv double %812, %813
  %815 = getelementptr inbounds double, double* %799, i64 4
  %816 = load double, double* %815, align 8, !tbaa !33
  %817 = call i32 (i8*, ...) @printf(i8* nonnull getelementptr inbounds ([60 x i8], [60 x i8]* @.str.110, i64 0, i64 0), i32 %796, i32 %num_threads.0.lcssa, i32 %797, i32 %798, double %800, double %802, double %804, double %806, double %795, double %810, double %814, double %816)
  br label %818

; <label>:818                                     ; preds = %783, %780
  %819 = icmp eq i32 %yaml_output.0.lcssa, 0
  br i1 %819, label %822, label %820

; <label>:820                                     ; preds = %818
  %821 = load %class.Force*, %class.Force** %force, align 8, !tbaa !5
  invoke void @_Z6outputR2InR4AtomP5ForceR8NeighborR4CommR6ThermoR9IntegrateR5Timeri(%struct.In* nonnull dereferenceable(112) %in, %class.Atom* nonnull dereferenceable(224) %atom, %class.Force* %821, %class.Neighbor* nonnull dereferenceable(240) %neighbor, %class.Comm* nonnull dereferenceable(336) %comm, %class.Thermo* nonnull dereferenceable(128) %thermo, %class.Integrate* nonnull dereferenceable(88) %integrate, %class.Timer* nonnull dereferenceable(24) %timer, i32 %screen_yaml.0.lcssa)
          to label %822 unwind label %316

; <label>:822                                     ; preds = %820, %818
  %823 = load %class.Force*, %class.Force** %force, align 8, !tbaa !5
  %824 = icmp eq %class.Force* %823, null
  br i1 %824, label %830, label %825

; <label>:825                                     ; preds = %822
  %826 = bitcast %class.Force* %823 to void (%class.Force*)***
  %827 = load void (%class.Force*)**, void (%class.Force*)*** %826, align 8, !tbaa !67
  %828 = getelementptr inbounds void (%class.Force*)*, void (%class.Force*)** %827, i64 1
  %829 = load void (%class.Force*)*, void (%class.Force*)** %828, align 8
  invoke void %829(%class.Force* nonnull %823)
          to label %830 unwind label %316

; <label>:830                                     ; preds = %825, %822
  %831 = invoke i32 @MPI_Barrier(i32 1140850688)
          to label %832 unwind label %316

; <label>:832                                     ; preds = %830
  %833 = invoke i32 @MPI_Finalize()
          to label %834 unwind label %316

; <label>:834                                     ; preds = %832
  call void @llvm.lifetime.end(i64 4, i8* %760) #7
  call void @llvm.lifetime.end(i64 8, i8* nonnull %281) #7
  call void @llvm.lifetime.end(i64 20, i8* %274) #7
  invoke void @_ZN5TimerD1Ev(%class.Timer* nonnull %timer)
          to label %836 unwind label %312

; <label>:835                                     ; preds = %334, %320, %316
  %.03 = phi i8* [ %318, %316 ], [ %336, %334 ], [ %322, %320 ]
  %.0 = phi i32 [ %319, %316 ], [ %337, %334 ], [ %323, %320 ]
  invoke void @_ZN5TimerD1Ev(%class.Timer* nonnull %timer)
          to label %838 unwind label %849

; <label>:836                                     ; preds = %834
  call void @llvm.lifetime.end(i64 24, i8* %272) #7
  invoke void @_ZN4CommD1Ev(%class.Comm* nonnull %comm)
          to label %837 unwind label %308

; <label>:837                                     ; preds = %836
  call void @llvm.lifetime.end(i64 336, i8* %270) #7
  invoke void @_ZN6ThermoD1Ev(%class.Thermo* nonnull %thermo)
          to label %839 unwind label %304

; <label>:838                                     ; preds = %835, %312
  %.14 = phi i8* [ %.03, %835 ], [ %314, %312 ]
  %.1 = phi i32 [ %.0, %835 ], [ %315, %312 ]
  invoke void @_ZN4CommD1Ev(%class.Comm* nonnull %comm)
          to label %840 unwind label %849

; <label>:839                                     ; preds = %837
  call void @llvm.lifetime.end(i64 128, i8* %268) #7
  invoke void @_ZN9IntegrateD1Ev(%class.Integrate* nonnull %integrate)
          to label %841 unwind label %300

; <label>:840                                     ; preds = %838, %308
  %.25 = phi i8* [ %.14, %838 ], [ %310, %308 ]
  %.2 = phi i32 [ %.1, %838 ], [ %311, %308 ]
  invoke void @_ZN6ThermoD1Ev(%class.Thermo* nonnull %thermo)
          to label %842 unwind label %849

; <label>:841                                     ; preds = %839
  call void @llvm.lifetime.end(i64 88, i8* %266) #7
  invoke void @_ZN8NeighborD1Ev(%class.Neighbor* nonnull %neighbor)
          to label %843 unwind label %296

; <label>:842                                     ; preds = %840, %304
  %.36 = phi i8* [ %.25, %840 ], [ %306, %304 ]
  %.3 = phi i32 [ %.2, %840 ], [ %307, %304 ]
  invoke void @_ZN9IntegrateD1Ev(%class.Integrate* nonnull %integrate)
          to label %844 unwind label %849

; <label>:843                                     ; preds = %841
  call void @llvm.lifetime.end(i64 240, i8* %42) #7
  call void @_ZN4AtomD1Ev(%class.Atom* nonnull %atom)
  call void @llvm.lifetime.end(i64 224, i8* %41) #7
  call void @llvm.lifetime.end(i64 4, i8* %6) #7
  call void @llvm.lifetime.end(i64 4, i8* %5) #7
  call void @llvm.lifetime.end(i64 112, i8* %3) #7
  ret i32 0

; <label>:844                                     ; preds = %842, %300
  %.47 = phi i8* [ %.36, %842 ], [ %302, %300 ]
  %.4 = phi i32 [ %.3, %842 ], [ %303, %300 ]
  invoke void @_ZN8NeighborD1Ev(%class.Neighbor* nonnull %neighbor)
          to label %845 unwind label %849

; <label>:845                                     ; preds = %844, %296
  %.58 = phi i8* [ %.47, %844 ], [ %298, %296 ]
  %.5 = phi i32 [ %.4, %844 ], [ %299, %296 ]
  invoke void @_ZN4AtomD1Ev(%class.Atom* nonnull %atom)
          to label %846 unwind label %849

; <label>:846                                     ; preds = %845
  %847 = insertvalue { i8*, i32 } undef, i8* %.58, 0
  %848 = insertvalue { i8*, i32 } %847, i32 %.5, 1
  resume { i8*, i32 } %848

; <label>:849                                     ; preds = %845, %844, %842, %840, %838, %835
  %850 = landingpad { i8*, i32 }
          catch i8* null
  %851 = extractvalue { i8*, i32 } %850, 0
  call void @__clang_call_terminate(i8* %851) #17
  unreachable
}

declare i32 @__gxx_personality_v0(...)

; Function Attrs: argmemonly nounwind
declare void @llvm.lifetime.start(i64, i8* nocapture) #1

declare i32 @MPI_Init(i32*, i8***) #2

declare i32 @MPI_Comm_rank(i32, i32*) #2

declare i32 @MPI_Comm_size(i32, i32*) #2

; Function Attrs: nounwind readonly
declare i32 @strcmp(i8* nocapture, i8* nocapture) #3

declare i32 @MPI_Finalize() #2

; Function Attrs: noreturn nounwind
declare void @exit(i32) #4

; Function Attrs: nounwind
declare void @srand(i32) #5

; Function Attrs: nounwind
declare i64 @strtol(i8* readonly, i8** nocapture, i32) #5

; Function Attrs: nobuiltin
declare noalias nonnull i8* @_Znam(i64) #6

; Function Attrs: nounwind
declare i8* @strcpy(i8*, i8* nocapture readonly) #5

; Function Attrs: nounwind
declare i32 @puts(i8* nocapture) #7

; Function Attrs: nounwind
declare i32 @printf(i8* nocapture readonly, ...) #5

; Function Attrs: nobuiltin
declare noalias nonnull i8* @_Znwm(i64) #6

; Function Attrs: nobuiltin nounwind
declare void @_ZdlPv(i8*) #8

; Function Attrs: nounwind
declare void @omp_set_num_threads(i32) #5

; Function Attrs: nounwind
declare i64 @fwrite(i8* nocapture, i64, i64, %struct._IO_FILE* nocapture) #7

; Function Attrs: nounwind
declare i32 @fprintf(%struct._IO_FILE* nocapture, i8* nocapture readonly, ...) #5

; Function Attrs: nounwind uwtable
define internal void @.omp_outlined.(i32* noalias nocapture readnone %.global_tid., i32* noalias nocapture readnone %.bound_tid., %class.Neighbor* dereferenceable(240) %neighbor, %class.Atom* dereferenceable(224) %atom, %class.Force** nocapture readonly dereferenceable(8) %force, %class.Comm* dereferenceable(336) %comm, i32* nocapture readonly dereferenceable(4) %me) #9 personality i8* bitcast (i32 (...)* @__gxx_personality_v0 to i8*) {
  invoke void @_ZN8Neighbor5buildER4Atom(%class.Neighbor* nonnull %neighbor, %class.Atom* nonnull dereferenceable(224) %atom)
          to label %1 unwind label %9

; <label>:1                                       ; preds = %0
  %2 = load %class.Force*, %class.Force** %force, align 8, !tbaa !5
  %3 = bitcast %class.Force* %2 to void (%class.Force*, %class.Atom*, %class.Neighbor*, %class.Comm*, i32)***
  %4 = load void (%class.Force*, %class.Atom*, %class.Neighbor*, %class.Comm*, i32)**, void (%class.Force*, %class.Atom*, %class.Neighbor*, %class.Comm*, i32)*** %3, align 8, !tbaa !67
  %5 = getelementptr inbounds void (%class.Force*, %class.Atom*, %class.Neighbor*, %class.Comm*, i32)*, void (%class.Force*, %class.Atom*, %class.Neighbor*, %class.Comm*, i32)** %4, i64 4
  %6 = load void (%class.Force*, %class.Atom*, %class.Neighbor*, %class.Comm*, i32)*, void (%class.Force*, %class.Atom*, %class.Neighbor*, %class.Comm*, i32)** %5, align 8
  %7 = load i32, i32* %me, align 4, !tbaa !1
  invoke void %6(%class.Force* %2, %class.Atom* nonnull dereferenceable(224) %atom, %class.Neighbor* nonnull dereferenceable(240) %neighbor, %class.Comm* nonnull dereferenceable(336) %comm, i32 %7)
          to label %8 unwind label %9

; <label>:8                                       ; preds = %1
  ret void

; <label>:9                                       ; preds = %1, %0
  %10 = landingpad { i8*, i32 }
          catch i8* null
  %11 = extractvalue { i8*, i32 } %10, 0
  tail call void @__clang_call_terminate(i8* %11) #17
  unreachable
}

; Function Attrs: noinline noreturn nounwind
define linkonce_odr hidden void @__clang_call_terminate(i8*) #10 comdat {
  %2 = tail call i8* @__cxa_begin_catch(i8* %0) #7
  tail call void @_ZSt9terminatev() #17
  unreachable
}

declare i8* @__cxa_begin_catch(i8*)

declare void @_ZSt9terminatev()

declare void @__kmpc_fork_call(%ident_t*, i32, void (i32*, i32*, ...)*, ...)

; Function Attrs: nounwind uwtable
define internal void @.omp_outlined..106(i32* noalias nocapture readnone %.global_tid., i32* noalias nocapture readnone %.bound_tid., %class.Thermo* dereferenceable(128) %thermo, %class.Atom* dereferenceable(224) %atom, %class.Neighbor* dereferenceable(240) %neighbor, %class.Force** nocapture readonly dereferenceable(8) %force, %class.Timer* dereferenceable(24) %timer, %class.Comm* dereferenceable(336) %comm) #9 personality i8* bitcast (i32 (...)* @__gxx_personality_v0 to i8*) {
  %1 = load %class.Force*, %class.Force** %force, align 8, !tbaa !5
  invoke void @_ZN6Thermo7computeEiR4AtomR8NeighborP5ForceR5TimerR4Comm(%class.Thermo* nonnull %thermo, i32 0, %class.Atom* nonnull dereferenceable(224) %atom, %class.Neighbor* nonnull dereferenceable(240) %neighbor, %class.Force* %1, %class.Timer* nonnull dereferenceable(24) %timer, %class.Comm* nonnull dereferenceable(336) %comm)
          to label %2 unwind label %3

; <label>:2                                       ; preds = %0
  ret void

; <label>:3                                       ; preds = %0
  %4 = landingpad { i8*, i32 }
          catch i8* null
  %5 = extractvalue { i8*, i32 } %4, 0
  tail call void @__clang_call_terminate(i8* %5) #17
  unreachable
}

declare i32 @MPI_Allreduce(i8*, i8*, i32, i32, i32, i32) #2

declare i32 @MPI_Barrier(i32) #2

; Function Attrs: argmemonly nounwind
declare void @llvm.lifetime.end(i64, i8* nocapture) #1

; Function Attrs: uwtable
define i32 @_Z5inputR2InPKc(%struct.In* dereferenceable(112) %in, i8* %filename) #11 {
  %line = alloca [256 x i8], align 16
  %me = alloca i32, align 4
  %1 = getelementptr inbounds [256 x i8], [256 x i8]* %line, i64 0, i64 0
  call void @llvm.lifetime.start(i64 256, i8* %1) #7
  %2 = bitcast i32* %me to i8*
  call void @llvm.lifetime.start(i64 4, i8* %2) #7
  %3 = call i32 @MPI_Comm_rank(i32 1140850688, i32* nonnull %me)
  %4 = call %struct._IO_FILE* @fopen(i8* %filename, i8* getelementptr inbounds ([2 x i8], [2 x i8]* @.str.35, i64 0, i64 0))
  %5 = icmp eq %struct._IO_FILE* %4, null
  br i1 %5, label %6, label %11

; <label>:6                                       ; preds = %0
  %7 = load i32, i32* %me, align 4, !tbaa !1
  %8 = icmp eq i32 %7, 0
  br i1 %8, label %9, label %94

; <label>:9                                       ; preds = %6
  %10 = call i32 (i8*, ...) @printf(i8* nonnull getelementptr inbounds ([23 x i8], [23 x i8]* @.str.1.36, i64 0, i64 0), i8* %filename)
  br label %94

; <label>:11                                      ; preds = %0
  %12 = call i8* @fgets(i8* %1, i32 256, %struct._IO_FILE* nonnull %4)
  %13 = call i8* @fgets(i8* %1, i32 256, %struct._IO_FILE* nonnull %4)
  %14 = call i8* @fgets(i8* %1, i32 256, %struct._IO_FILE* nonnull %4)
  %15 = call i8* @strtok(i8* %1, i8* nonnull getelementptr inbounds ([4 x i8], [4 x i8]* @.str.2.37, i64 0, i64 0)) #7
  %16 = call i32 @strcmp(i8* %15, i8* nonnull getelementptr inbounds ([3 x i8], [3 x i8]* @.str.3.38, i64 0, i64 0)) #16
  %17 = icmp eq i32 %16, 0
  br i1 %17, label %18, label %20

; <label>:18                                      ; preds = %11
  %19 = getelementptr inbounds %struct.In, %struct.In* %in, i64 0, i32 5
  store i32 0, i32* %19, align 8, !tbaa !11
  br label %28

; <label>:20                                      ; preds = %11
  %21 = call i32 @strcmp(i8* %1, i8* nonnull getelementptr inbounds ([6 x i8], [6 x i8]* @.str.4.39, i64 0, i64 0)) #16
  %22 = icmp eq i32 %21, 0
  br i1 %22, label %23, label %25

; <label>:23                                      ; preds = %20
  %24 = getelementptr inbounds %struct.In, %struct.In* %in, i64 0, i32 5
  store i32 1, i32* %24, align 8, !tbaa !11
  br label %28

; <label>:25                                      ; preds = %20
  %26 = call i32 (i8*, ...) @printf(i8* nonnull getelementptr inbounds ([82 x i8], [82 x i8]* @.str.5.40, i64 0, i64 0), i8* %1)
  %27 = call i32 @MPI_Finalize()
  call void @exit(i32 0) #17
  unreachable

; <label>:28                                      ; preds = %23, %18
  %29 = call i8* @fgets(i8* %1, i32 256, %struct._IO_FILE* nonnull %4)
  %30 = call i8* @strtok(i8* %1, i8* nonnull getelementptr inbounds ([4 x i8], [4 x i8]* @.str.2.37, i64 0, i64 0)) #7
  %31 = call i32 @strcmp(i8* %30, i8* nonnull getelementptr inbounds ([5 x i8], [5 x i8]* @.str.6.41, i64 0, i64 0)) #16
  %32 = icmp eq i32 %31, 0
  br i1 %32, label %33, label %35

; <label>:33                                      ; preds = %28
  %34 = getelementptr inbounds %struct.In, %struct.In* %in, i64 0, i32 9
  store i8* null, i8** %34, align 8, !tbaa !7
  br label %42

; <label>:35                                      ; preds = %28
  %36 = call noalias i8* @_Znam(i64 1000) #18
  %37 = getelementptr inbounds %struct.In, %struct.In* %in, i64 0, i32 9
  store i8* %36, i8** %37, align 8, !tbaa !7
  %38 = call i8* @strtok(i8* %1, i8* nonnull getelementptr inbounds ([3 x i8], [3 x i8]* @.str.7.42, i64 0, i64 0)) #7
  %39 = icmp eq i8* %38, null
  %.1 = select i1 %39, i8* %1, i8* %38
  %40 = load i8*, i8** %37, align 8, !tbaa !7
  %41 = call i8* @strcpy(i8* %40, i8* %.1) #7
  br label %42

; <label>:42                                      ; preds = %35, %33
  %43 = call i8* @fgets(i8* %1, i32 256, %struct._IO_FILE* nonnull %4)
  %44 = call i8* @strtok(i8* %1, i8* nonnull getelementptr inbounds ([4 x i8], [4 x i8]* @.str.2.37, i64 0, i64 0)) #7
  %45 = call i32 @strcmp(i8* %44, i8* nonnull getelementptr inbounds ([3 x i8], [3 x i8]* @.str.3.38, i64 0, i64 0)) #16
  %46 = icmp eq i32 %45, 0
  br i1 %46, label %47, label %49

; <label>:47                                      ; preds = %42
  %48 = getelementptr inbounds %struct.In, %struct.In* %in, i64 0, i32 6
  store i32 0, i32* %48, align 4, !tbaa !12
  br label %57

; <label>:49                                      ; preds = %42
  %50 = call i32 @strcmp(i8* %1, i8* nonnull getelementptr inbounds ([4 x i8], [4 x i8]* @.str.8.43, i64 0, i64 0)) #16
  %51 = icmp eq i32 %50, 0
  br i1 %51, label %52, label %54

; <label>:52                                      ; preds = %49
  %53 = getelementptr inbounds %struct.In, %struct.In* %in, i64 0, i32 6
  store i32 1, i32* %53, align 4, !tbaa !12
  br label %57

; <label>:54                                      ; preds = %49
  %55 = call i32 (i8*, ...) @printf(i8* nonnull getelementptr inbounds ([84 x i8], [84 x i8]* @.str.9.44, i64 0, i64 0), i8* %1)
  %56 = call i32 @MPI_Finalize()
  call void @exit(i32 0) #17
  unreachable

; <label>:57                                      ; preds = %52, %47
  %58 = call i8* @fgets(i8* %1, i32 256, %struct._IO_FILE* nonnull %4)
  %59 = getelementptr inbounds %struct.In, %struct.In* %in, i64 0, i32 7
  %60 = getelementptr inbounds %struct.In, %struct.In* %in, i64 0, i32 8
  %61 = call i32 (i8*, i8*, ...) @sscanf(i8* %1, i8* nonnull getelementptr inbounds ([8 x i8], [8 x i8]* @.str.10.45, i64 0, i64 0), double* %59, double* %60) #7
  %62 = call i8* @fgets(i8* %1, i32 256, %struct._IO_FILE* nonnull %4)
  %63 = getelementptr inbounds %struct.In, %struct.In* %in, i64 0, i32 0
  %64 = getelementptr inbounds %struct.In, %struct.In* %in, i64 0, i32 1
  %65 = getelementptr inbounds %struct.In, %struct.In* %in, i64 0, i32 2
  %66 = call i32 (i8*, i8*, ...) @sscanf(i8* %1, i8* nonnull getelementptr inbounds ([9 x i8], [9 x i8]* @.str.11.46, i64 0, i64 0), i32* %63, i32* %64, i32* %65) #7
  %67 = call i8* @fgets(i8* %1, i32 256, %struct._IO_FILE* nonnull %4)
  %68 = getelementptr inbounds %struct.In, %struct.In* %in, i64 0, i32 10
  %69 = call i32 (i8*, i8*, ...) @sscanf(i8* %1, i8* nonnull getelementptr inbounds ([3 x i8], [3 x i8]* @.str.12.47, i64 0, i64 0), i32* %68) #7
  %70 = call i8* @fgets(i8* %1, i32 256, %struct._IO_FILE* nonnull %4)
  %71 = getelementptr inbounds %struct.In, %struct.In* %in, i64 0, i32 11
  %72 = call i32 (i8*, i8*, ...) @sscanf(i8* %1, i8* nonnull getelementptr inbounds ([4 x i8], [4 x i8]* @.str.13.48, i64 0, i64 0), double* %71) #7
  %73 = call i8* @fgets(i8* %1, i32 256, %struct._IO_FILE* nonnull %4)
  %74 = getelementptr inbounds %struct.In, %struct.In* %in, i64 0, i32 3
  %75 = call i32 (i8*, i8*, ...) @sscanf(i8* %1, i8* nonnull getelementptr inbounds ([4 x i8], [4 x i8]* @.str.13.48, i64 0, i64 0), double* %74) #7
  %76 = call i8* @fgets(i8* %1, i32 256, %struct._IO_FILE* nonnull %4)
  %77 = getelementptr inbounds %struct.In, %struct.In* %in, i64 0, i32 4
  %78 = call i32 (i8*, i8*, ...) @sscanf(i8* %1, i8* nonnull getelementptr inbounds ([4 x i8], [4 x i8]* @.str.13.48, i64 0, i64 0), double* %77) #7
  %79 = call i8* @fgets(i8* %1, i32 256, %struct._IO_FILE* nonnull %4)
  %80 = getelementptr inbounds %struct.In, %struct.In* %in, i64 0, i32 12
  %81 = call i32 (i8*, i8*, ...) @sscanf(i8* %1, i8* nonnull getelementptr inbounds ([3 x i8], [3 x i8]* @.str.12.47, i64 0, i64 0), i32* %80) #7
  %82 = call i8* @fgets(i8* %1, i32 256, %struct._IO_FILE* nonnull %4)
  %83 = getelementptr inbounds %struct.In, %struct.In* %in, i64 0, i32 13
  %84 = getelementptr inbounds %struct.In, %struct.In* %in, i64 0, i32 14
  %85 = call i32 (i8*, i8*, ...) @sscanf(i8* %1, i8* nonnull getelementptr inbounds ([8 x i8], [8 x i8]* @.str.10.45, i64 0, i64 0), double* %83, double* %84) #7
  %86 = call i8* @fgets(i8* %1, i32 256, %struct._IO_FILE* nonnull %4)
  %87 = getelementptr inbounds %struct.In, %struct.In* %in, i64 0, i32 15
  %88 = call i32 (i8*, i8*, ...) @sscanf(i8* %1, i8* nonnull getelementptr inbounds ([3 x i8], [3 x i8]* @.str.12.47, i64 0, i64 0), i32* %87) #7
  %89 = call i32 @fclose(%struct._IO_FILE* nonnull %4)
  %90 = load double, double* %83, align 8, !tbaa !58
  %91 = load double, double* %84, align 8, !tbaa !56
  %92 = fadd double %90, %91
  store double %92, double* %84, align 8, !tbaa !56
  %93 = call i32 @MPI_Barrier(i32 1140850688)
  br label %94

; <label>:94                                      ; preds = %57, %9, %6
  %.0 = phi i32 [ 0, %57 ], [ 1, %9 ], [ 1, %6 ]
  call void @llvm.lifetime.end(i64 4, i8* %2) #7
  call void @llvm.lifetime.end(i64 256, i8* %1) #7
  ret i32 %.0
}

; Function Attrs: nounwind
declare noalias %struct._IO_FILE* @fopen(i8* nocapture readonly, i8* nocapture readonly) #5

; Function Attrs: nounwind
declare i8* @fgets(i8*, i32, %struct._IO_FILE* nocapture) #5

; Function Attrs: nounwind
declare i8* @strtok(i8*, i8* nocapture readonly) #5

; Function Attrs: nounwind
declare i32 @sscanf(i8* nocapture readonly, i8* nocapture readonly, ...) #5

; Function Attrs: nounwind
declare i32 @fclose(%struct._IO_FILE* nocapture) #5

; Function Attrs: norecurse nounwind uwtable
define void @_ZN9IntegrateC2Ev(%class.Integrate* nocapture %this) unnamed_addr #12 align 2 {
  %1 = getelementptr inbounds %class.Integrate, %class.Integrate* %this, i64 0, i32 10
  store i32 20, i32* %1, align 8, !tbaa !54
  ret void
}

; Function Attrs: norecurse nounwind readnone uwtable
define void @_ZN9IntegrateD2Ev(%class.Integrate* nocapture %this) unnamed_addr #13 align 2 {
  ret void
}

; Function Attrs: norecurse nounwind uwtable
define void @_ZN9Integrate5setupEv(%class.Integrate* nocapture %this) #12 align 2 {
  %1 = getelementptr inbounds %class.Integrate, %class.Integrate* %this, i64 0, i32 0
  %2 = load double, double* %1, align 8, !tbaa !52
  %3 = fmul double %2, 5.000000e-01
  %4 = getelementptr inbounds %class.Integrate, %class.Integrate* %this, i64 0, i32 1
  store double %3, double* %4, align 8, !tbaa !76
  ret void
}

; Function Attrs: uwtable
define void @_ZN9Integrate16initialIntegrateEv(%class.Integrate* nocapture readonly %this) #11 align 2 {
  %.omp.lb = alloca i32, align 4
  %.omp.ub = alloca i32, align 4
  %.omp.stride = alloca i32, align 4
  %.omp.is_last = alloca i32, align 4
  %1 = tail call i32 @__kmpc_global_thread_num(%ident_t* nonnull @1)
  %2 = getelementptr inbounds %class.Integrate, %class.Integrate* %this, i64 0, i32 3
  %3 = load i32, i32* %2, align 4, !tbaa !77
  %4 = add nsw i32 %3, -1
  %5 = icmp sgt i32 %3, 0
  br i1 %5, label %6, label %._crit_edge3

._crit_edge3:                                     ; preds = %0
  %.pre = bitcast i32* %.omp.is_last to i8*
  %.pre4 = bitcast i32* %.omp.stride to i8*
  %.pre6 = bitcast i32* %.omp.ub to i8*
  %.pre8 = bitcast i32* %.omp.lb to i8*
  br label %73

; <label>:6                                       ; preds = %0
  %7 = bitcast i32* %.omp.lb to i8*
  call void @llvm.lifetime.start(i64 4, i8* %7) #7
  store i32 0, i32* %.omp.lb, align 4, !tbaa !1
  %8 = bitcast i32* %.omp.ub to i8*
  call void @llvm.lifetime.start(i64 4, i8* %8) #7
  store i32 %4, i32* %.omp.ub, align 4, !tbaa !1
  %9 = bitcast i32* %.omp.stride to i8*
  call void @llvm.lifetime.start(i64 4, i8* %9) #7
  store i32 1, i32* %.omp.stride, align 4, !tbaa !1
  %10 = bitcast i32* %.omp.is_last to i8*
  call void @llvm.lifetime.start(i64 4, i8* %10) #7
  store i32 0, i32* %.omp.is_last, align 4, !tbaa !1
  call void @__kmpc_for_static_init_4(%ident_t* nonnull @1, i32 %1, i32 34, i32* nonnull %.omp.is_last, i32* nonnull %.omp.lb, i32* nonnull %.omp.ub, i32* nonnull %.omp.stride, i32 1, i32 1)
  %11 = load i32, i32* %.omp.ub, align 4, !tbaa !1
  %12 = icmp sgt i32 %11, %4
  %13 = select i1 %12, i32 %4, i32 %11
  store i32 %13, i32* %.omp.ub, align 4, !tbaa !1
  %14 = load i32, i32* %.omp.lb, align 4, !tbaa !1
  %15 = icmp sgt i32 %14, %13
  br i1 %15, label %._crit_edge, label %.lr.ph

.lr.ph:                                           ; preds = %6
  %16 = getelementptr inbounds %class.Integrate, %class.Integrate* %this, i64 0, i32 1
  %17 = getelementptr inbounds %class.Integrate, %class.Integrate* %this, i64 0, i32 7
  %18 = load double*, double** %17, align 8
  %19 = getelementptr inbounds %class.Integrate, %class.Integrate* %this, i64 0, i32 6
  %20 = load double*, double** %19, align 8
  %21 = getelementptr inbounds %class.Integrate, %class.Integrate* %this, i64 0, i32 0
  %22 = getelementptr inbounds %class.Integrate, %class.Integrate* %this, i64 0, i32 5
  %23 = load double*, double** %22, align 8
  %24 = sext i32 %14 to i64
  %25 = sext i32 %13 to i64
  br label %26

; <label>:26                                      ; preds = %26, %.lr.ph
  %indvars.iv = phi i64 [ %indvars.iv.next, %26 ], [ %24, %.lr.ph ]
  %.omp.iv.02 = phi i32 [ %71, %26 ], [ %14, %.lr.ph ]
  %27 = load double, double* %16, align 8, !tbaa !76
  %28 = mul nsw i32 %.omp.iv.02, 3
  %29 = sext i32 %28 to i64
  %30 = getelementptr inbounds double, double* %18, i64 %29
  %31 = load double, double* %30, align 8, !tbaa !33
  %32 = fmul double %27, %31
  %33 = getelementptr inbounds double, double* %20, i64 %29
  %34 = load double, double* %33, align 8, !tbaa !33
  %35 = fadd double %32, %34
  store double %35, double* %33, align 8, !tbaa !33
  %36 = load double, double* %16, align 8, !tbaa !76
  %37 = add nsw i32 %28, 1
  %38 = sext i32 %37 to i64
  %39 = getelementptr inbounds double, double* %18, i64 %38
  %40 = load double, double* %39, align 8, !tbaa !33
  %41 = fmul double %36, %40
  %42 = getelementptr inbounds double, double* %20, i64 %38
  %43 = load double, double* %42, align 8, !tbaa !33
  %44 = fadd double %41, %43
  store double %44, double* %42, align 8, !tbaa !33
  %45 = load double, double* %16, align 8, !tbaa !76
  %46 = add nsw i32 %28, 2
  %47 = sext i32 %46 to i64
  %48 = getelementptr inbounds double, double* %18, i64 %47
  %49 = load double, double* %48, align 8, !tbaa !33
  %50 = fmul double %45, %49
  %51 = getelementptr inbounds double, double* %20, i64 %47
  %52 = load double, double* %51, align 8, !tbaa !33
  %53 = fadd double %50, %52
  store double %53, double* %51, align 8, !tbaa !33
  %54 = load double, double* %21, align 8, !tbaa !52
  %55 = fmul double %54, %35
  %56 = getelementptr inbounds double, double* %23, i64 %29
  %57 = load double, double* %56, align 8, !tbaa !33
  %58 = fadd double %55, %57
  store double %58, double* %56, align 8, !tbaa !33
  %59 = load double, double* %21, align 8, !tbaa !52
  %60 = load double, double* %42, align 8, !tbaa !33
  %61 = fmul double %59, %60
  %62 = getelementptr inbounds double, double* %23, i64 %38
  %63 = load double, double* %62, align 8, !tbaa !33
  %64 = fadd double %61, %63
  store double %64, double* %62, align 8, !tbaa !33
  %65 = load double, double* %21, align 8, !tbaa !52
  %66 = load double, double* %51, align 8, !tbaa !33
  %67 = fmul double %65, %66
  %68 = getelementptr inbounds double, double* %23, i64 %47
  %69 = load double, double* %68, align 8, !tbaa !33
  %70 = fadd double %67, %69
  store double %70, double* %68, align 8, !tbaa !33
  %71 = add nsw i32 %.omp.iv.02, 1
  %72 = icmp slt i64 %indvars.iv, %25
  %indvars.iv.next = add nsw i64 %indvars.iv, 1
  br i1 %72, label %26, label %._crit_edge.loopexit

._crit_edge.loopexit:                             ; preds = %26
  br label %._crit_edge

._crit_edge:                                      ; preds = %._crit_edge.loopexit, %6
  call void @__kmpc_for_static_fini(%ident_t* nonnull @1, i32 %1)
  br label %73

; <label>:73                                      ; preds = %._crit_edge, %._crit_edge3
  %.pre-phi9 = phi i8* [ %.pre8, %._crit_edge3 ], [ %7, %._crit_edge ]
  %.pre-phi7 = phi i8* [ %.pre6, %._crit_edge3 ], [ %8, %._crit_edge ]
  %.pre-phi5 = phi i8* [ %.pre4, %._crit_edge3 ], [ %9, %._crit_edge ]
  %.pre-phi = phi i8* [ %.pre, %._crit_edge3 ], [ %10, %._crit_edge ]
  call void @llvm.lifetime.end(i64 4, i8* %.pre-phi) #7
  call void @llvm.lifetime.end(i64 4, i8* %.pre-phi5) #7
  call void @llvm.lifetime.end(i64 4, i8* %.pre-phi7) #7
  call void @llvm.lifetime.end(i64 4, i8* %.pre-phi9) #7
  call void @__kmpc_barrier(%ident_t* nonnull @2, i32 %1)
  ret void
}

declare i32 @__kmpc_global_thread_num(%ident_t*)

declare void @__kmpc_for_static_init_4(%ident_t*, i32, i32, i32*, i32*, i32*, i32*, i32, i32)

declare void @__kmpc_for_static_fini(%ident_t*, i32)

declare void @__kmpc_barrier(%ident_t*, i32)

; Function Attrs: uwtable
define void @_ZN9Integrate14finalIntegrateEv(%class.Integrate* nocapture readonly %this) #11 align 2 {
  %.omp.lb = alloca i32, align 4
  %.omp.ub = alloca i32, align 4
  %.omp.stride = alloca i32, align 4
  %.omp.is_last = alloca i32, align 4
  %1 = tail call i32 @__kmpc_global_thread_num(%ident_t* nonnull @1)
  %2 = getelementptr inbounds %class.Integrate, %class.Integrate* %this, i64 0, i32 3
  %3 = load i32, i32* %2, align 4, !tbaa !77
  %4 = add nsw i32 %3, -1
  %5 = icmp sgt i32 %3, 0
  br i1 %5, label %6, label %._crit_edge3

._crit_edge3:                                     ; preds = %0
  %.pre = bitcast i32* %.omp.is_last to i8*
  %.pre4 = bitcast i32* %.omp.stride to i8*
  %.pre6 = bitcast i32* %.omp.ub to i8*
  %.pre8 = bitcast i32* %.omp.lb to i8*
  br label %53

; <label>:6                                       ; preds = %0
  %7 = bitcast i32* %.omp.lb to i8*
  call void @llvm.lifetime.start(i64 4, i8* %7) #7
  store i32 0, i32* %.omp.lb, align 4, !tbaa !1
  %8 = bitcast i32* %.omp.ub to i8*
  call void @llvm.lifetime.start(i64 4, i8* %8) #7
  store i32 %4, i32* %.omp.ub, align 4, !tbaa !1
  %9 = bitcast i32* %.omp.stride to i8*
  call void @llvm.lifetime.start(i64 4, i8* %9) #7
  store i32 1, i32* %.omp.stride, align 4, !tbaa !1
  %10 = bitcast i32* %.omp.is_last to i8*
  call void @llvm.lifetime.start(i64 4, i8* %10) #7
  store i32 0, i32* %.omp.is_last, align 4, !tbaa !1
  call void @__kmpc_for_static_init_4(%ident_t* nonnull @1, i32 %1, i32 34, i32* nonnull %.omp.is_last, i32* nonnull %.omp.lb, i32* nonnull %.omp.ub, i32* nonnull %.omp.stride, i32 1, i32 1)
  %11 = load i32, i32* %.omp.ub, align 4, !tbaa !1
  %12 = icmp sgt i32 %11, %4
  %13 = select i1 %12, i32 %4, i32 %11
  store i32 %13, i32* %.omp.ub, align 4, !tbaa !1
  %14 = load i32, i32* %.omp.lb, align 4, !tbaa !1
  %15 = icmp sgt i32 %14, %13
  br i1 %15, label %._crit_edge, label %.lr.ph

.lr.ph:                                           ; preds = %6
  %16 = getelementptr inbounds %class.Integrate, %class.Integrate* %this, i64 0, i32 1
  %17 = getelementptr inbounds %class.Integrate, %class.Integrate* %this, i64 0, i32 7
  %18 = load double*, double** %17, align 8
  %19 = getelementptr inbounds %class.Integrate, %class.Integrate* %this, i64 0, i32 6
  %20 = load double*, double** %19, align 8
  %21 = sext i32 %14 to i64
  %22 = sext i32 %13 to i64
  br label %23

; <label>:23                                      ; preds = %23, %.lr.ph
  %indvars.iv = phi i64 [ %indvars.iv.next, %23 ], [ %21, %.lr.ph ]
  %.omp.iv.02 = phi i32 [ %51, %23 ], [ %14, %.lr.ph ]
  %24 = load double, double* %16, align 8, !tbaa !76
  %25 = mul nsw i32 %.omp.iv.02, 3
  %26 = sext i32 %25 to i64
  %27 = getelementptr inbounds double, double* %18, i64 %26
  %28 = load double, double* %27, align 8, !tbaa !33
  %29 = fmul double %24, %28
  %30 = getelementptr inbounds double, double* %20, i64 %26
  %31 = load double, double* %30, align 8, !tbaa !33
  %32 = fadd double %29, %31
  store double %32, double* %30, align 8, !tbaa !33
  %33 = load double, double* %16, align 8, !tbaa !76
  %34 = add nsw i32 %25, 1
  %35 = sext i32 %34 to i64
  %36 = getelementptr inbounds double, double* %18, i64 %35
  %37 = load double, double* %36, align 8, !tbaa !33
  %38 = fmul double %33, %37
  %39 = getelementptr inbounds double, double* %20, i64 %35
  %40 = load double, double* %39, align 8, !tbaa !33
  %41 = fadd double %38, %40
  store double %41, double* %39, align 8, !tbaa !33
  %42 = load double, double* %16, align 8, !tbaa !76
  %43 = add nsw i32 %25, 2
  %44 = sext i32 %43 to i64
  %45 = getelementptr inbounds double, double* %18, i64 %44
  %46 = load double, double* %45, align 8, !tbaa !33
  %47 = fmul double %42, %46
  %48 = getelementptr inbounds double, double* %20, i64 %44
  %49 = load double, double* %48, align 8, !tbaa !33
  %50 = fadd double %47, %49
  store double %50, double* %48, align 8, !tbaa !33
  %51 = add nsw i32 %.omp.iv.02, 1
  %52 = icmp slt i64 %indvars.iv, %22
  %indvars.iv.next = add nsw i64 %indvars.iv, 1
  br i1 %52, label %23, label %._crit_edge.loopexit

._crit_edge.loopexit:                             ; preds = %23
  br label %._crit_edge

._crit_edge:                                      ; preds = %._crit_edge.loopexit, %6
  call void @__kmpc_for_static_fini(%ident_t* nonnull @1, i32 %1)
  br label %53

; <label>:53                                      ; preds = %._crit_edge, %._crit_edge3
  %.pre-phi9 = phi i8* [ %.pre8, %._crit_edge3 ], [ %7, %._crit_edge ]
  %.pre-phi7 = phi i8* [ %.pre6, %._crit_edge3 ], [ %8, %._crit_edge ]
  %.pre-phi5 = phi i8* [ %.pre4, %._crit_edge3 ], [ %9, %._crit_edge ]
  %.pre-phi = phi i8* [ %.pre, %._crit_edge3 ], [ %10, %._crit_edge ]
  call void @llvm.lifetime.end(i64 4, i8* %.pre-phi) #7
  call void @llvm.lifetime.end(i64 4, i8* %.pre-phi5) #7
  call void @llvm.lifetime.end(i64 4, i8* %.pre-phi7) #7
  call void @llvm.lifetime.end(i64 4, i8* %.pre-phi9) #7
  call void @__kmpc_barrier(%ident_t* nonnull @2, i32 %1)
  ret void
}

; Function Attrs: uwtable
define void @_ZN9Integrate3runER4AtomP5ForceR8NeighborR4CommR6ThermoR5Timer(%class.Integrate* %this, %class.Atom* dereferenceable(224) %atom, %class.Force* %force, %class.Neighbor* dereferenceable(240) %neighbor, %class.Comm* dereferenceable(336) %comm, %class.Thermo* dereferenceable(128) %thermo, %class.Timer* dereferenceable(24) %timer) #11 align 2 {
  %1 = alloca %class.Force*, align 8
  %check_safeexchange = alloca i32, align 4
  store %class.Force* %force, %class.Force** %1, align 8, !tbaa !5
  %2 = getelementptr inbounds %class.Comm, %class.Comm* %comm, i64 0, i32 32
  store %class.Timer* %timer, %class.Timer** %2, align 8, !tbaa !78
  %3 = getelementptr inbounds %class.Timer, %class.Timer* %timer, i64 0, i32 0
  %4 = load double*, double** %3, align 8, !tbaa !74
  %5 = getelementptr inbounds double, double* %4, i64 4
  store double 0.000000e+00, double* %5, align 8, !tbaa !33
  %6 = bitcast i32* %check_safeexchange to i8*
  call void @llvm.lifetime.start(i64 4, i8* %6) #7
  %7 = getelementptr inbounds %class.Comm, %class.Comm* %comm, i64 0, i32 30
  %8 = load i32, i32* %7, align 8, !tbaa !38
  store i32 %8, i32* %check_safeexchange, align 4, !tbaa !1
  %9 = getelementptr inbounds %class.Atom, %class.Atom* %atom, i64 0, i32 13
  %10 = load double, double* %9, align 8, !tbaa !70
  %11 = getelementptr inbounds %class.Integrate, %class.Integrate* %this, i64 0, i32 9
  store double %10, double* %11, align 8, !tbaa !79
  %12 = getelementptr inbounds %class.Integrate, %class.Integrate* %this, i64 0, i32 1
  %13 = load double, double* %12, align 8, !tbaa !76
  %14 = fdiv double %13, %10
  store double %14, double* %12, align 8, !tbaa !76
  call void (%ident_t*, i32, void (i32*, i32*, ...)*, ...) @__kmpc_fork_call(%ident_t* nonnull @1, i32 8, void (i32*, i32*, ...)* bitcast (void (i32*, i32*, %class.Integrate*, %class.Atom*, %class.Timer*, %class.Neighbor*, %class.Comm*, i32*, %class.Force**, %class.Thermo*)* @.omp_outlined..54 to void (i32*, i32*, ...)*), %class.Integrate* %this, %class.Atom* nonnull %atom, %class.Timer* nonnull %timer, %class.Neighbor* nonnull %neighbor, %class.Comm* nonnull %comm, i32* nonnull %check_safeexchange, %class.Force** nonnull %1, %class.Thermo* nonnull %thermo)
  call void @llvm.lifetime.end(i64 4, i8* %6) #7
  ret void
}

; Function Attrs: nounwind uwtable
define internal void @.omp_outlined..54(i32* noalias nocapture readonly %.global_tid., i32* noalias nocapture readnone %.bound_tid., %class.Integrate* nocapture %this, %class.Atom* dereferenceable(224) %atom, %class.Timer* dereferenceable(24) %timer, %class.Neighbor* dereferenceable(240) %neighbor, %class.Comm* dereferenceable(336) %comm, i32* nocapture readonly dereferenceable(4) %check_safeexchange, %class.Force** nocapture readonly dereferenceable(8) %force, %class.Thermo* dereferenceable(128) %thermo) #9 personality i8* bitcast (i32 (...)* @__gxx_personality_v0 to i8*) {
.preheader3:
  %0 = getelementptr inbounds %class.Integrate, %class.Integrate* %this, i64 0, i32 10
  %1 = load i32, i32* %0, align 8, !tbaa !54
  %.phi.trans.insert = getelementptr inbounds %class.Integrate, %class.Integrate* %this, i64 0, i32 2
  %.pre = load i32, i32* %.phi.trans.insert, align 8, !tbaa !50
  %2 = icmp sgt i32 %.pre, 0
  br i1 %2, label %.lr.ph26, label %._crit_edge27

.lr.ph26:                                         ; preds = %.preheader3
  %3 = icmp sgt i32 %1, 0
  %4 = add nsw i32 %.pre, 1
  %next_sort.0.ph = select i1 %3, i32 %1, i32 %4
  %5 = load i32, i32* %.global_tid., align 4
  %6 = getelementptr inbounds %class.Atom, %class.Atom* %atom, i64 0, i32 4
  %7 = getelementptr inbounds %class.Integrate, %class.Integrate* %this, i64 0, i32 5
  %8 = getelementptr inbounds %class.Atom, %class.Atom* %atom, i64 0, i32 5
  %9 = getelementptr inbounds %class.Integrate, %class.Integrate* %this, i64 0, i32 6
  %10 = getelementptr inbounds %class.Atom, %class.Atom* %atom, i64 0, i32 6
  %11 = bitcast double** %10 to i64*
  %12 = getelementptr inbounds %class.Integrate, %class.Integrate* %this, i64 0, i32 7
  %13 = bitcast double** %12 to i64*
  %14 = getelementptr inbounds %class.Atom, %class.Atom* %atom, i64 0, i32 10
  %15 = bitcast double** %14 to i64*
  %16 = getelementptr inbounds %class.Integrate, %class.Integrate* %this, i64 0, i32 8
  %17 = bitcast double** %16 to i64*
  %18 = getelementptr inbounds %class.Atom, %class.Atom* %atom, i64 0, i32 1
  %19 = getelementptr inbounds %class.Integrate, %class.Integrate* %this, i64 0, i32 3
  %20 = getelementptr inbounds %class.Neighbor, %class.Neighbor* %neighbor, i64 0, i32 0
  %21 = getelementptr inbounds %class.Atom, %class.Atom* %atom, i64 0, i32 18, i32 4
  %22 = getelementptr inbounds %class.Atom, %class.Atom* %atom, i64 0, i32 18, i32 3
  %23 = getelementptr inbounds %class.Atom, %class.Atom* %atom, i64 0, i32 18, i32 6
  %24 = getelementptr inbounds %class.Atom, %class.Atom* %atom, i64 0, i32 18, i32 5
  %25 = getelementptr inbounds %class.Atom, %class.Atom* %atom, i64 0, i32 18, i32 8
  %26 = getelementptr inbounds %class.Atom, %class.Atom* %atom, i64 0, i32 18, i32 7
  %27 = getelementptr inbounds %class.Atom, %class.Atom* %atom, i64 0, i32 18, i32 0
  %28 = getelementptr inbounds %class.Atom, %class.Atom* %atom, i64 0, i32 18, i32 1
  %29 = getelementptr inbounds %class.Atom, %class.Atom* %atom, i64 0, i32 18, i32 2
  %30 = getelementptr inbounds %class.Thermo, %class.Thermo* %thermo, i64 0, i32 0
  %31 = getelementptr inbounds %class.Comm, %class.Comm* %comm, i64 0, i32 0
  %32 = getelementptr inbounds %class.Neighbor, %class.Neighbor* %neighbor, i64 0, i32 11
  %33 = getelementptr inbounds %class.Neighbor, %class.Neighbor* %neighbor, i64 0, i32 12
  %34 = bitcast double** %6 to <2 x i64>*
  %35 = bitcast double** %7 to <2 x i64>*
  %36 = bitcast double** %8 to <2 x i64>*
  %37 = bitcast double** %9 to <2 x i64>*
  br label %38

; <label>:38                                      ; preds = %.backedge, %.lr.ph26
  %next_sort.025 = phi i32 [ %next_sort.0.ph, %.lr.ph26 ], [ %next_sort.2, %.backedge ]
  %n.024 = phi i32 [ 0, %.lr.ph26 ], [ %52, %.backedge ]
  tail call void @__kmpc_barrier(%ident_t* nonnull @3, i32 %5) #7
  %39 = load <2 x i64>, <2 x i64>* %34, align 8, !tbaa !5
  store <2 x i64> %39, <2 x i64>* %35, align 8, !tbaa !5
  %40 = load i64, i64* %11, align 8, !tbaa !80
  store i64 %40, i64* %13, align 8, !tbaa !81
  %41 = load i64, i64* %15, align 8, !tbaa !82
  store i64 %41, i64* %17, align 8, !tbaa !83
  %42 = load i32, i32* %18, align 4, !tbaa !84
  store i32 %42, i32* %19, align 4, !tbaa !77
  invoke void @_ZN9Integrate16initialIntegrateEv(%class.Integrate* nonnull %this)
          to label %43 unwind label %282

; <label>:43                                      ; preds = %38
  %44 = tail call i32 @__kmpc_master(%ident_t* nonnull @1, i32 %5) #7
  %45 = icmp eq i32 %44, 0
  br i1 %45, label %51, label %46

; <label>:46                                      ; preds = %43
  invoke void @_ZN5Timer5stampEv(%class.Timer* nonnull %timer)
          to label %47 unwind label %48

; <label>:47                                      ; preds = %46
  tail call void @__kmpc_end_master(%ident_t* nonnull @1, i32 %5) #7
  br label %51

; <label>:48                                      ; preds = %46
  %49 = landingpad { i8*, i32 }
          catch i8* null
  %50 = extractvalue { i8*, i32 } %49, 0
  tail call void @__kmpc_end_master(%ident_t* nonnull @1, i32 %5) #7
  br label %285

; <label>:51                                      ; preds = %47, %43
  %52 = add nuw nsw i32 %n.024, 1
  %53 = load i32, i32* %20, align 8, !tbaa !55
  %54 = srem i32 %52, %53
  %55 = icmp eq i32 %54, 0
  br i1 %55, label %65, label %56

; <label>:56                                      ; preds = %51
  invoke void @_ZN4Comm11communicateER4Atom(%class.Comm* nonnull %comm, %class.Atom* nonnull dereferenceable(224) %atom)
          to label %57 unwind label %282

; <label>:57                                      ; preds = %56
  %58 = tail call i32 @__kmpc_master(%ident_t* nonnull @1, i32 %5) #7
  %59 = icmp eq i32 %58, 0
  br i1 %59, label %237, label %60

; <label>:60                                      ; preds = %57
  invoke void @_ZN5Timer5stampEi(%class.Timer* nonnull %timer, i32 1)
          to label %61 unwind label %62

; <label>:61                                      ; preds = %60
  tail call void @__kmpc_end_master(%ident_t* nonnull @1, i32 %5) #7
  br label %237

; <label>:62                                      ; preds = %60
  %63 = landingpad { i8*, i32 }
          catch i8* null
  %64 = extractvalue { i8*, i32 } %63, 0
  tail call void @__kmpc_end_master(%ident_t* nonnull @1, i32 %5) #7
  br label %285

; <label>:65                                      ; preds = %51
  %66 = load i32, i32* %check_safeexchange, align 4, !tbaa !1
  %67 = icmp eq i32 %66, 0
  br i1 %67, label %137, label %68

; <label>:68                                      ; preds = %65
  %69 = tail call i32 @__kmpc_master(%ident_t* nonnull @1, i32 %5) #7
  %70 = icmp eq i32 %69, 0
  br i1 %70, label %137, label %.preheader2

.preheader2:                                      ; preds = %68
  %71 = load i32, i32* %18, align 4, !tbaa !84
  %72 = icmp sgt i32 %71, 0
  br i1 %72, label %.lr.ph, label %._crit_edge

.lr.ph:                                           ; preds = %.preheader2
  %73 = load double*, double** %7, align 8
  %74 = load double*, double** %16, align 8
  %75 = load double, double* %27, align 8
  %76 = fsub double -0.000000e+00, %75
  %77 = load double, double* %28, align 8
  %78 = fsub double -0.000000e+00, %77
  %79 = load double, double* %29, align 8
  %80 = fsub double -0.000000e+00, %79
  %81 = sext i32 %71 to i64
  br label %82

; <label>:82                                      ; preds = %82, %.lr.ph
  %indvars.iv = phi i64 [ 0, %.lr.ph ], [ %indvars.iv.next, %82 ]
  %d_max.020 = phi double [ 0.000000e+00, %.lr.ph ], [ %d_max.1, %82 ]
  %83 = mul nuw nsw i64 %indvars.iv, 3
  %84 = getelementptr inbounds double, double* %73, i64 %83
  %85 = load double, double* %84, align 8, !tbaa !33
  %86 = getelementptr inbounds double, double* %74, i64 %83
  %87 = load double, double* %86, align 8, !tbaa !33
  %88 = fsub double %85, %87
  %89 = fcmp ogt double %88, %75
  %90 = fsub double %88, %75
  %dx.0 = select i1 %89, double %90, double %88
  %91 = fcmp olt double %dx.0, %76
  %92 = fadd double %75, %dx.0
  %dx.1 = select i1 %91, double %92, double %dx.0
  %93 = add nuw nsw i64 %83, 1
  %94 = getelementptr inbounds double, double* %73, i64 %93
  %95 = load double, double* %94, align 8, !tbaa !33
  %96 = getelementptr inbounds double, double* %74, i64 %93
  %97 = load double, double* %96, align 8, !tbaa !33
  %98 = fsub double %95, %97
  %99 = fcmp ogt double %98, %77
  %100 = fsub double %98, %77
  %dy.0 = select i1 %99, double %100, double %98
  %101 = fcmp olt double %dy.0, %78
  %102 = fadd double %77, %dy.0
  %dy.1 = select i1 %101, double %102, double %dy.0
  %103 = add nuw nsw i64 %83, 2
  %104 = getelementptr inbounds double, double* %73, i64 %103
  %105 = load double, double* %104, align 8, !tbaa !33
  %106 = getelementptr inbounds double, double* %74, i64 %103
  %107 = load double, double* %106, align 8, !tbaa !33
  %108 = fsub double %105, %107
  %109 = fcmp ogt double %108, %79
  %110 = fsub double %108, %79
  %dz.0 = select i1 %109, double %110, double %108
  %111 = fcmp olt double %dz.0, %80
  %112 = fadd double %79, %dz.0
  %dz.1 = select i1 %111, double %112, double %dz.0
  %113 = fmul double %dx.1, %dx.1
  %114 = fmul double %dy.1, %dy.1
  %115 = fadd double %113, %114
  %116 = fmul double %dz.1, %dz.1
  %117 = fadd double %115, %116
  %118 = fcmp ogt double %117, %d_max.020
  %d_max.1 = select i1 %118, double %117, double %d_max.020
  %indvars.iv.next = add nuw nsw i64 %indvars.iv, 1
  %119 = icmp slt i64 %indvars.iv.next, %81
  br i1 %119, label %82, label %._crit_edge.loopexit

._crit_edge.loopexit:                             ; preds = %82
  br label %._crit_edge

._crit_edge:                                      ; preds = %._crit_edge.loopexit, %.preheader2
  %d_max.0.lcssa = phi double [ 0.000000e+00, %.preheader2 ], [ %d_max.1, %._crit_edge.loopexit ]
  %120 = tail call double @sqrt(double %d_max.0.lcssa) #7
  %121 = load double, double* %21, align 8, !tbaa !85
  %122 = load double, double* %22, align 8, !tbaa !86
  %123 = fsub double %121, %122
  %124 = fcmp ogt double %120, %123
  %.pre48 = load double, double* %23, align 8, !tbaa !87
  %.pre49 = load double, double* %24, align 8, !tbaa !88
  %125 = fsub double %.pre48, %.pre49
  %126 = fcmp ogt double %120, %125
  %or.cond = or i1 %124, %126
  br i1 %or.cond, label %._crit_edge.._crit_edge._crit_edge_crit_edge, label %127

._crit_edge.._crit_edge._crit_edge_crit_edge:     ; preds = %._crit_edge
  %.pre1 = load double, double* %25, align 8, !tbaa !89
  %.pre2 = load double, double* %26, align 8, !tbaa !90
  br label %._crit_edge._crit_edge

; <label>:127                                     ; preds = %._crit_edge
  %128 = load double, double* %25, align 8, !tbaa !89
  %129 = load double, double* %26, align 8, !tbaa !90
  %130 = fsub double %128, %129
  %131 = fcmp ogt double %120, %130
  br i1 %131, label %._crit_edge._crit_edge, label %136

._crit_edge._crit_edge:                           ; preds = %._crit_edge.._crit_edge._crit_edge_crit_edge, %127
  %132 = phi double [ %.pre2, %._crit_edge.._crit_edge._crit_edge_crit_edge ], [ %129, %127 ]
  %133 = phi double [ %.pre1, %._crit_edge.._crit_edge._crit_edge_crit_edge ], [ %128, %127 ]
  %134 = fsub double %133, %132
  %135 = tail call i32 (i8*, ...) @printf(i8* nonnull getelementptr inbounds ([227 x i8], [227 x i8]* @.str.1.55, i64 0, i64 0), double %120, double %123, double %125, double %134)
  br label %136

; <label>:136                                     ; preds = %._crit_edge._crit_edge, %127
  tail call void @__kmpc_end_master(%ident_t* nonnull @1, i32 %5) #7
  br label %137

; <label>:137                                     ; preds = %136, %68, %65
  %138 = tail call i32 @__kmpc_master(%ident_t* nonnull @1, i32 %5) #7
  %139 = icmp eq i32 %138, 0
  br i1 %139, label %145, label %140

; <label>:140                                     ; preds = %137
  invoke void @_ZN5Timer17stamp_extra_startEv(%class.Timer* nonnull %timer)
          to label %141 unwind label %142

; <label>:141                                     ; preds = %140
  tail call void @__kmpc_end_master(%ident_t* nonnull @1, i32 %5) #7
  br label %145

; <label>:142                                     ; preds = %140
  %143 = landingpad { i8*, i32 }
          catch i8* null
  %144 = extractvalue { i8*, i32 } %143, 0
  tail call void @__kmpc_end_master(%ident_t* nonnull @1, i32 %5) #7
  br label %285

; <label>:145                                     ; preds = %141, %137
  invoke void @_ZN4Comm8exchangeER4Atom(%class.Comm* nonnull %comm, %class.Atom* nonnull dereferenceable(224) %atom)
          to label %146 unwind label %282

; <label>:146                                     ; preds = %145
  %147 = icmp slt i32 %52, %next_sort.025
  br i1 %147, label %152, label %148

; <label>:148                                     ; preds = %146
  invoke void @_ZN4Atom4sortER8Neighbor(%class.Atom* nonnull %atom, %class.Neighbor* nonnull dereferenceable(240) %neighbor)
          to label %149 unwind label %282

; <label>:149                                     ; preds = %148
  %150 = load i32, i32* %0, align 8, !tbaa !54
  %151 = add nsw i32 %150, %next_sort.025
  br label %152

; <label>:152                                     ; preds = %149, %146
  %next_sort.1 = phi i32 [ %151, %149 ], [ %next_sort.025, %146 ]
  invoke void @_ZN4Comm7bordersER4Atom(%class.Comm* nonnull %comm, %class.Atom* nonnull dereferenceable(224) %atom)
          to label %153 unwind label %282

; <label>:153                                     ; preds = %152
  %154 = tail call i32 @__kmpc_master(%ident_t* nonnull @1, i32 %5) #7
  %155 = icmp eq i32 %154, 0
  br i1 %155, label %162, label %156

; <label>:156                                     ; preds = %153
  invoke void @_ZN5Timer16stamp_extra_stopEi(%class.Timer* nonnull %timer, i32 4)
          to label %157 unwind label %159

; <label>:157                                     ; preds = %156
  invoke void @_ZN5Timer5stampEi(%class.Timer* nonnull %timer, i32 1)
          to label %158 unwind label %159

; <label>:158                                     ; preds = %157
  tail call void @__kmpc_end_master(%ident_t* nonnull @1, i32 %5) #7
  br label %162

; <label>:159                                     ; preds = %157, %156
  %160 = landingpad { i8*, i32 }
          catch i8* null
  %161 = extractvalue { i8*, i32 } %160, 0
  tail call void @__kmpc_end_master(%ident_t* nonnull @1, i32 %5) #7
  br label %285

; <label>:162                                     ; preds = %158, %153
  %163 = load i32, i32* %check_safeexchange, align 4, !tbaa !1
  %164 = icmp eq i32 %163, 0
  br i1 %164, label %.loopexit, label %.preheader

.preheader:                                       ; preds = %162
  %165 = load i32, i32* %18, align 4, !tbaa !84
  %166 = icmp sgt i32 %165, 0
  br i1 %166, label %.lr.ph23, label %.loopexit

.lr.ph23:                                         ; preds = %.preheader
  %167 = load double*, double** %7, align 8
  %168 = load double*, double** %16, align 8
  %169 = mul i32 %165, 3
  %170 = sext i32 %169 to i64
  %171 = icmp sgt i64 %170, 1
  %smax = select i1 %171, i64 %170, i64 1
  %min.iters.check = icmp ult i64 %smax, 16
  br i1 %min.iters.check, label %scalar.ph.preheader, label %min.iters.checked

min.iters.checked:                                ; preds = %.lr.ph23
  %n.vec = and i64 %smax, -16
  %cmp.zero = icmp eq i64 %n.vec, 0
  br i1 %cmp.zero, label %scalar.ph.preheader, label %vector.memcheck

vector.memcheck:                                  ; preds = %min.iters.checked
  %scevgep = getelementptr double, double* %168, i64 -1
  %scevgep52 = getelementptr double, double* %scevgep, i64 %smax
  %scevgep54 = getelementptr double, double* %167, i64 -1
  %scevgep55 = getelementptr double, double* %scevgep54, i64 %smax
  %bound0 = icmp ule double* %168, %scevgep55
  %bound1 = icmp ule double* %167, %scevgep52
  %memcheck.conflict = and i1 %bound0, %bound1
  br i1 %memcheck.conflict, label %scalar.ph.preheader, label %vector.body.preheader

vector.body.preheader:                            ; preds = %vector.memcheck
  %172 = add nsw i64 %smax, -16
  %173 = lshr i64 %172, 4
  %174 = and i64 %173, 1
  %lcmp.mod = icmp eq i64 %174, 0
  br i1 %lcmp.mod, label %vector.body.prol, label %vector.body.preheader.split

vector.body.prol:                                 ; preds = %vector.body.preheader
  %175 = bitcast double* %167 to <4 x i64>*
  %wide.load.prol = load <4 x i64>, <4 x i64>* %175, align 8, !tbaa !33
  %176 = getelementptr double, double* %167, i64 4
  %177 = bitcast double* %176 to <4 x i64>*
  %wide.load60.prol = load <4 x i64>, <4 x i64>* %177, align 8, !tbaa !33
  %178 = getelementptr double, double* %167, i64 8
  %179 = bitcast double* %178 to <4 x i64>*
  %wide.load61.prol = load <4 x i64>, <4 x i64>* %179, align 8, !tbaa !33
  %180 = getelementptr double, double* %167, i64 12
  %181 = bitcast double* %180 to <4 x i64>*
  %wide.load62.prol = load <4 x i64>, <4 x i64>* %181, align 8, !tbaa !33
  %182 = bitcast double* %168 to <4 x i64>*
  store <4 x i64> %wide.load.prol, <4 x i64>* %182, align 8, !tbaa !33
  %183 = getelementptr double, double* %168, i64 4
  %184 = bitcast double* %183 to <4 x i64>*
  store <4 x i64> %wide.load60.prol, <4 x i64>* %184, align 8, !tbaa !33
  %185 = getelementptr double, double* %168, i64 8
  %186 = bitcast double* %185 to <4 x i64>*
  store <4 x i64> %wide.load61.prol, <4 x i64>* %186, align 8, !tbaa !33
  %187 = getelementptr double, double* %168, i64 12
  %188 = bitcast double* %187 to <4 x i64>*
  store <4 x i64> %wide.load62.prol, <4 x i64>* %188, align 8, !tbaa !33
  br label %vector.body.preheader.split

vector.body.preheader.split:                      ; preds = %vector.body.prol, %vector.body.preheader
  %index.unr = phi i64 [ 0, %vector.body.preheader ], [ 16, %vector.body.prol ]
  %189 = icmp eq i64 %173, 0
  br i1 %189, label %middle.block, label %vector.body.preheader.split.split

vector.body.preheader.split.split:                ; preds = %vector.body.preheader.split
  br label %vector.body

vector.body:                                      ; preds = %vector.body, %vector.body.preheader.split.split
  %index = phi i64 [ %index.unr, %vector.body.preheader.split.split ], [ %index.next.1, %vector.body ]
  %190 = getelementptr inbounds double, double* %167, i64 %index
  %191 = bitcast double* %190 to <4 x i64>*
  %wide.load = load <4 x i64>, <4 x i64>* %191, align 8, !tbaa !33
  %192 = getelementptr double, double* %190, i64 4
  %193 = bitcast double* %192 to <4 x i64>*
  %wide.load60 = load <4 x i64>, <4 x i64>* %193, align 8, !tbaa !33
  %194 = getelementptr double, double* %190, i64 8
  %195 = bitcast double* %194 to <4 x i64>*
  %wide.load61 = load <4 x i64>, <4 x i64>* %195, align 8, !tbaa !33
  %196 = getelementptr double, double* %190, i64 12
  %197 = bitcast double* %196 to <4 x i64>*
  %wide.load62 = load <4 x i64>, <4 x i64>* %197, align 8, !tbaa !33
  %198 = getelementptr inbounds double, double* %168, i64 %index
  %199 = bitcast double* %198 to <4 x i64>*
  store <4 x i64> %wide.load, <4 x i64>* %199, align 8, !tbaa !33
  %200 = getelementptr double, double* %198, i64 4
  %201 = bitcast double* %200 to <4 x i64>*
  store <4 x i64> %wide.load60, <4 x i64>* %201, align 8, !tbaa !33
  %202 = getelementptr double, double* %198, i64 8
  %203 = bitcast double* %202 to <4 x i64>*
  store <4 x i64> %wide.load61, <4 x i64>* %203, align 8, !tbaa !33
  %204 = getelementptr double, double* %198, i64 12
  %205 = bitcast double* %204 to <4 x i64>*
  store <4 x i64> %wide.load62, <4 x i64>* %205, align 8, !tbaa !33
  %index.next = add i64 %index, 16
  %206 = getelementptr inbounds double, double* %167, i64 %index.next
  %207 = bitcast double* %206 to <4 x i64>*
  %wide.load.1 = load <4 x i64>, <4 x i64>* %207, align 8, !tbaa !33
  %208 = getelementptr double, double* %206, i64 4
  %209 = bitcast double* %208 to <4 x i64>*
  %wide.load60.1 = load <4 x i64>, <4 x i64>* %209, align 8, !tbaa !33
  %210 = getelementptr double, double* %206, i64 8
  %211 = bitcast double* %210 to <4 x i64>*
  %wide.load61.1 = load <4 x i64>, <4 x i64>* %211, align 8, !tbaa !33
  %212 = getelementptr double, double* %206, i64 12
  %213 = bitcast double* %212 to <4 x i64>*
  %wide.load62.1 = load <4 x i64>, <4 x i64>* %213, align 8, !tbaa !33
  %214 = getelementptr inbounds double, double* %168, i64 %index.next
  %215 = bitcast double* %214 to <4 x i64>*
  store <4 x i64> %wide.load.1, <4 x i64>* %215, align 8, !tbaa !33
  %216 = getelementptr double, double* %214, i64 4
  %217 = bitcast double* %216 to <4 x i64>*
  store <4 x i64> %wide.load60.1, <4 x i64>* %217, align 8, !tbaa !33
  %218 = getelementptr double, double* %214, i64 8
  %219 = bitcast double* %218 to <4 x i64>*
  store <4 x i64> %wide.load61.1, <4 x i64>* %219, align 8, !tbaa !33
  %220 = getelementptr double, double* %214, i64 12
  %221 = bitcast double* %220 to <4 x i64>*
  store <4 x i64> %wide.load62.1, <4 x i64>* %221, align 8, !tbaa !33
  %index.next.1 = add i64 %index, 32
  %222 = icmp eq i64 %index.next.1, %n.vec
  br i1 %222, label %middle.block.unr-lcssa, label %vector.body, !llvm.loop !91

middle.block.unr-lcssa:                           ; preds = %vector.body
  br label %middle.block

middle.block:                                     ; preds = %middle.block.unr-lcssa, %vector.body.preheader.split
  %cmp.n = icmp eq i64 %smax, %n.vec
  br i1 %cmp.n, label %.loopexit, label %scalar.ph.preheader

scalar.ph.preheader:                              ; preds = %middle.block, %vector.memcheck, %min.iters.checked, %.lr.ph23
  %indvars.iv46.ph = phi i64 [ 0, %vector.memcheck ], [ 0, %min.iters.checked ], [ 0, %.lr.ph23 ], [ %n.vec, %middle.block ]
  br label %scalar.ph

scalar.ph:                                        ; preds = %scalar.ph, %scalar.ph.preheader
  %indvars.iv46 = phi i64 [ %indvars.iv.next47, %scalar.ph ], [ %indvars.iv46.ph, %scalar.ph.preheader ]
  %223 = getelementptr inbounds double, double* %167, i64 %indvars.iv46
  %224 = bitcast double* %223 to i64*
  %225 = load i64, i64* %224, align 8, !tbaa !33
  %226 = getelementptr inbounds double, double* %168, i64 %indvars.iv46
  %227 = bitcast double* %226 to i64*
  store i64 %225, i64* %227, align 8, !tbaa !33
  %indvars.iv.next47 = add nuw nsw i64 %indvars.iv46, 1
  %228 = icmp slt i64 %indvars.iv.next47, %170
  br i1 %228, label %scalar.ph, label %.loopexit.loopexit, !llvm.loop !94

.loopexit.loopexit:                               ; preds = %scalar.ph
  br label %.loopexit

.loopexit:                                        ; preds = %.loopexit.loopexit, %middle.block, %.preheader, %162
  tail call void @__kmpc_barrier(%ident_t* nonnull @3, i32 %5) #7
  invoke void @_ZN8Neighbor5buildER4Atom(%class.Neighbor* nonnull %neighbor, %class.Atom* nonnull dereferenceable(224) %atom)
          to label %229 unwind label %282

; <label>:229                                     ; preds = %.loopexit
  %230 = tail call i32 @__kmpc_master(%ident_t* nonnull @1, i32 %5) #7
  %231 = icmp eq i32 %230, 0
  br i1 %231, label %237, label %232

; <label>:232                                     ; preds = %229
  invoke void @_ZN5Timer5stampEi(%class.Timer* nonnull %timer, i32 3)
          to label %233 unwind label %234

; <label>:233                                     ; preds = %232
  tail call void @__kmpc_end_master(%ident_t* nonnull @1, i32 %5) #7
  br label %237

; <label>:234                                     ; preds = %232
  %235 = landingpad { i8*, i32 }
          catch i8* null
  %236 = extractvalue { i8*, i32 } %235, 0
  tail call void @__kmpc_end_master(%ident_t* nonnull @1, i32 %5) #7
  br label %285

; <label>:237                                     ; preds = %233, %229, %61, %57
  %next_sort.2 = phi i32 [ %next_sort.025, %61 ], [ %next_sort.025, %57 ], [ %next_sort.1, %233 ], [ %next_sort.1, %229 ]
  %238 = load i32, i32* %30, align 8, !tbaa !61
  %239 = srem i32 %52, %238
  %240 = icmp eq i32 %239, 0
  %241 = zext i1 %240 to i32
  %242 = load %class.Force*, %class.Force** %force, align 8, !tbaa !5
  %243 = getelementptr inbounds %class.Force, %class.Force* %242, i64 0, i32 5
  store i32 %241, i32* %243, align 8, !tbaa !73
  %244 = bitcast %class.Force* %242 to void (%class.Force*, %class.Atom*, %class.Neighbor*, %class.Comm*, i32)***
  %245 = load void (%class.Force*, %class.Atom*, %class.Neighbor*, %class.Comm*, i32)**, void (%class.Force*, %class.Atom*, %class.Neighbor*, %class.Comm*, i32)*** %244, align 8, !tbaa !67
  %246 = getelementptr inbounds void (%class.Force*, %class.Atom*, %class.Neighbor*, %class.Comm*, i32)*, void (%class.Force*, %class.Atom*, %class.Neighbor*, %class.Comm*, i32)** %245, i64 4
  %247 = load void (%class.Force*, %class.Atom*, %class.Neighbor*, %class.Comm*, i32)*, void (%class.Force*, %class.Atom*, %class.Neighbor*, %class.Comm*, i32)** %246, align 8
  %248 = load i32, i32* %31, align 8, !tbaa !95
  invoke void %247(%class.Force* %242, %class.Atom* nonnull dereferenceable(224) %atom, %class.Neighbor* nonnull dereferenceable(240) %neighbor, %class.Comm* nonnull dereferenceable(336) %comm, i32 %248)
          to label %249 unwind label %282

; <label>:249                                     ; preds = %237
  %250 = tail call i32 @__kmpc_master(%ident_t* nonnull @1, i32 %5) #7
  %251 = icmp eq i32 %250, 0
  br i1 %251, label %257, label %252

; <label>:252                                     ; preds = %249
  invoke void @_ZN5Timer5stampEi(%class.Timer* nonnull %timer, i32 2)
          to label %253 unwind label %254

; <label>:253                                     ; preds = %252
  tail call void @__kmpc_end_master(%ident_t* nonnull @1, i32 %5) #7
  br label %257

; <label>:254                                     ; preds = %252
  %255 = landingpad { i8*, i32 }
          catch i8* null
  %256 = extractvalue { i8*, i32 } %255, 0
  tail call void @__kmpc_end_master(%ident_t* nonnull @1, i32 %5) #7
  br label %285

; <label>:257                                     ; preds = %253, %249
  %258 = load i32, i32* %32, align 4, !tbaa !41
  %259 = icmp eq i32 %258, 0
  br i1 %259, label %272, label %260

; <label>:260                                     ; preds = %257
  %261 = load i32, i32* %33, align 8, !tbaa !35
  %262 = icmp eq i32 %261, 0
  br i1 %262, label %272, label %263

; <label>:263                                     ; preds = %260
  invoke void @_ZN4Comm19reverse_communicateER4Atom(%class.Comm* nonnull %comm, %class.Atom* nonnull dereferenceable(224) %atom)
          to label %264 unwind label %282

; <label>:264                                     ; preds = %263
  %265 = tail call i32 @__kmpc_master(%ident_t* nonnull @1, i32 %5) #7
  %266 = icmp eq i32 %265, 0
  br i1 %266, label %272, label %267

; <label>:267                                     ; preds = %264
  invoke void @_ZN5Timer5stampEi(%class.Timer* nonnull %timer, i32 1)
          to label %268 unwind label %269

; <label>:268                                     ; preds = %267
  tail call void @__kmpc_end_master(%ident_t* nonnull @1, i32 %5) #7
  br label %272

; <label>:269                                     ; preds = %267
  %270 = landingpad { i8*, i32 }
          catch i8* null
  %271 = extractvalue { i8*, i32 } %270, 0
  tail call void @__kmpc_end_master(%ident_t* nonnull @1, i32 %5) #7
  br label %285

; <label>:272                                     ; preds = %268, %264, %260, %257
  %273 = load <2 x i64>, <2 x i64>* %36, align 8, !tbaa !5
  store <2 x i64> %273, <2 x i64>* %37, align 8, !tbaa !5
  %274 = load i32, i32* %18, align 4, !tbaa !84
  store i32 %274, i32* %19, align 4, !tbaa !77
  tail call void @__kmpc_barrier(%ident_t* nonnull @3, i32 %5) #7
  invoke void @_ZN9Integrate14finalIntegrateEv(%class.Integrate* %this)
          to label %275 unwind label %282

; <label>:275                                     ; preds = %272
  %276 = load i32, i32* %30, align 8, !tbaa !61
  %277 = icmp eq i32 %276, 0
  br i1 %277, label %.backedge, label %280

.backedge:                                        ; preds = %280, %275
  %278 = load i32, i32* %.phi.trans.insert, align 8, !tbaa !50
  %279 = icmp slt i32 %52, %278
  br i1 %279, label %38, label %._crit_edge27.loopexit

; <label>:280                                     ; preds = %275
  %281 = load %class.Force*, %class.Force** %force, align 8, !tbaa !5
  invoke void @_ZN6Thermo7computeEiR4AtomR8NeighborP5ForceR5TimerR4Comm(%class.Thermo* nonnull %thermo, i32 %52, %class.Atom* nonnull dereferenceable(224) %atom, %class.Neighbor* nonnull dereferenceable(240) %neighbor, %class.Force* %281, %class.Timer* nonnull dereferenceable(24) %timer, %class.Comm* nonnull dereferenceable(336) %comm)
          to label %.backedge unwind label %282

._crit_edge27.loopexit:                           ; preds = %.backedge
  br label %._crit_edge27

._crit_edge27:                                    ; preds = %._crit_edge27.loopexit, %.preheader3
  ret void

; <label>:282                                     ; preds = %280, %272, %263, %237, %.loopexit, %152, %148, %145, %56, %38
  %283 = landingpad { i8*, i32 }
          catch i8* null
  %284 = extractvalue { i8*, i32 } %283, 0
  tail call void @__clang_call_terminate(i8* %284) #17
  unreachable

; <label>:285                                     ; preds = %269, %254, %234, %159, %142, %62, %48
  %.0 = phi i8* [ %271, %269 ], [ %256, %254 ], [ %64, %62 ], [ %236, %234 ], [ %161, %159 ], [ %144, %142 ], [ %50, %48 ]
  tail call void @__clang_call_terminate(i8* %.0) #17
  unreachable
}

declare i32 @__kmpc_master(%ident_t*, i32)

declare void @__kmpc_end_master(%ident_t*, i32)

; Function Attrs: nounwind
declare double @sqrt(double) #5

; Function Attrs: norecurse nounwind uwtable
define void @_ZN4AtomC2Ei(%class.Atom* nocapture %this, i32 %ntypes_) unnamed_addr #12 align 2 {
  %1 = getelementptr inbounds %class.Atom, %class.Atom* %this, i64 0, i32 21
  %2 = getelementptr inbounds %class.Atom, %class.Atom* %this, i64 0, i32 9
  %3 = getelementptr inbounds %class.Atom, %class.Atom* %this, i64 0, i32 14
  %4 = bitcast %class.Atom* %this to i8*
  call void @llvm.memset.p0i8.i64(i8* %4, i8 0, i64 40, i32 8, i1 false)
  %5 = bitcast i32** %2 to i8*
  call void @llvm.memset.p0i8.i64(i8* %5, i8 0, i64 16, i32 8, i1 false)
  %6 = bitcast double** %1 to i8*
  call void @llvm.memset.p0i8.i64(i8* %6, i8 0, i64 28, i32 8, i1 false)
  store i32 3, i32* %3, align 8, !tbaa !96
  %7 = getelementptr inbounds %class.Atom, %class.Atom* %this, i64 0, i32 15
  store i32 3, i32* %7, align 4, !tbaa !97
  %8 = getelementptr inbounds %class.Atom, %class.Atom* %this, i64 0, i32 16
  store i32 4, i32* %8, align 8, !tbaa !98
  %9 = getelementptr inbounds %class.Atom, %class.Atom* %this, i64 0, i32 13
  store double 1.000000e+00, double* %9, align 8, !tbaa !70
  %10 = getelementptr inbounds %class.Atom, %class.Atom* %this, i64 0, i32 7
  store i32 %ntypes_, i32* %10, align 8, !tbaa !72
  ret void
}

; Function Attrs: argmemonly nounwind
declare void @llvm.memset.p0i8.i64(i8* nocapture, i8, i64, i32, i1) #1

; Function Attrs: nounwind uwtable
define void @_ZN4AtomD2Ev(%class.Atom* nocapture readonly %this) unnamed_addr #9 align 2 {
  %1 = getelementptr inbounds %class.Atom, %class.Atom* %this, i64 0, i32 3
  %2 = load i32, i32* %1, align 4, !tbaa !99
  %3 = icmp eq i32 %2, 0
  br i1 %3, label %_ZN4Atom20destroy_1d_int_arrayEPi.exit, label %4

; <label>:4                                       ; preds = %0
  %5 = getelementptr inbounds %class.Atom, %class.Atom* %this, i64 0, i32 4
  %6 = load double*, double** %5, align 8, !tbaa !100
  %7 = icmp eq double* %6, null
  br i1 %7, label %_ZN4Atom26destroy_2d_MMD_float_arrayEPd.exit, label %8

; <label>:8                                       ; preds = %4
  %9 = bitcast double* %6 to i8*
  tail call void @free(i8* %9) #7
  br label %_ZN4Atom26destroy_2d_MMD_float_arrayEPd.exit

_ZN4Atom26destroy_2d_MMD_float_arrayEPd.exit:     ; preds = %8, %4
  %10 = getelementptr inbounds %class.Atom, %class.Atom* %this, i64 0, i32 5
  %11 = load double*, double** %10, align 8, !tbaa !101
  %12 = icmp eq double* %11, null
  br i1 %12, label %_ZN4Atom26destroy_2d_MMD_float_arrayEPd.exit1, label %13

; <label>:13                                      ; preds = %_ZN4Atom26destroy_2d_MMD_float_arrayEPd.exit
  %14 = bitcast double* %11 to i8*
  tail call void @free(i8* %14) #7
  br label %_ZN4Atom26destroy_2d_MMD_float_arrayEPd.exit1

_ZN4Atom26destroy_2d_MMD_float_arrayEPd.exit1:    ; preds = %13, %_ZN4Atom26destroy_2d_MMD_float_arrayEPd.exit
  %15 = getelementptr inbounds %class.Atom, %class.Atom* %this, i64 0, i32 6
  %16 = load double*, double** %15, align 8, !tbaa !80
  %17 = icmp eq double* %16, null
  br i1 %17, label %_ZN4Atom26destroy_2d_MMD_float_arrayEPd.exit2, label %18

; <label>:18                                      ; preds = %_ZN4Atom26destroy_2d_MMD_float_arrayEPd.exit1
  %19 = bitcast double* %16 to i8*
  tail call void @free(i8* %19) #7
  br label %_ZN4Atom26destroy_2d_MMD_float_arrayEPd.exit2

_ZN4Atom26destroy_2d_MMD_float_arrayEPd.exit2:    ; preds = %18, %_ZN4Atom26destroy_2d_MMD_float_arrayEPd.exit1
  %20 = getelementptr inbounds %class.Atom, %class.Atom* %this, i64 0, i32 10
  %21 = load double*, double** %20, align 8, !tbaa !82
  %22 = icmp eq double* %21, null
  br i1 %22, label %_ZN4Atom26destroy_2d_MMD_float_arrayEPd.exit3, label %23

; <label>:23                                      ; preds = %_ZN4Atom26destroy_2d_MMD_float_arrayEPd.exit2
  %24 = bitcast double* %21 to i8*
  tail call void @free(i8* %24) #7
  br label %_ZN4Atom26destroy_2d_MMD_float_arrayEPd.exit3

_ZN4Atom26destroy_2d_MMD_float_arrayEPd.exit3:    ; preds = %23, %_ZN4Atom26destroy_2d_MMD_float_arrayEPd.exit2
  %25 = getelementptr inbounds %class.Atom, %class.Atom* %this, i64 0, i32 9
  %26 = load i32*, i32** %25, align 8, !tbaa !102
  %27 = icmp eq i32* %26, null
  br i1 %27, label %_ZN4Atom20destroy_1d_int_arrayEPi.exit, label %28

; <label>:28                                      ; preds = %_ZN4Atom26destroy_2d_MMD_float_arrayEPd.exit3
  %29 = bitcast i32* %26 to i8*
  tail call void @free(i8* %29) #7
  br label %_ZN4Atom20destroy_1d_int_arrayEPi.exit

_ZN4Atom20destroy_1d_int_arrayEPi.exit:           ; preds = %28, %_ZN4Atom26destroy_2d_MMD_float_arrayEPd.exit3, %0
  ret void
}

; Function Attrs: nounwind
declare void @free(i8* nocapture) #5

; Function Attrs: nounwind uwtable
define void @_ZN4Atom26destroy_2d_MMD_float_arrayEPd(%class.Atom* nocapture readnone %this, double* %array) #9 align 2 {
  %1 = icmp eq double* %array, null
  br i1 %1, label %4, label %2

; <label>:2                                       ; preds = %0
  %3 = bitcast double* %array to i8*
  tail call void @free(i8* %3) #7
  br label %4

; <label>:4                                       ; preds = %2, %0
  ret void
}

; Function Attrs: nounwind uwtable
define void @_ZN4Atom20destroy_1d_int_arrayEPi(%class.Atom* nocapture readnone %this, i32* %array) #9 align 2 {
  %1 = icmp eq i32* %array, null
  br i1 %1, label %4, label %2

; <label>:2                                       ; preds = %0
  %3 = bitcast i32* %array to i8*
  tail call void @free(i8* %3) #7
  br label %4

; <label>:4                                       ; preds = %2, %0
  ret void
}

; Function Attrs: nounwind uwtable
define void @_ZN4Atom9growarrayEv(%class.Atom* nocapture %this) #9 align 2 {
  %1 = getelementptr inbounds %class.Atom, %class.Atom* %this, i64 0, i32 3
  %2 = load i32, i32* %1, align 4, !tbaa !99
  %3 = add nsw i32 %2, 20000
  store i32 %3, i32* %1, align 4, !tbaa !99
  %4 = getelementptr inbounds %class.Atom, %class.Atom* %this, i64 0, i32 4
  %5 = load double*, double** %4, align 8, !tbaa !100
  %6 = mul nsw i32 %2, 3
  %7 = icmp eq i32 %3, 0
  br i1 %7, label %_ZN4Atom25create_2d_MMD_float_arrayEii.exit.i, label %8

; <label>:8                                       ; preds = %0
  %9 = mul nsw i32 %3, 3
  %10 = add nsw i32 %9, 1025
  %11 = sext i32 %10 to i64
  %12 = shl nsw i64 %11, 3
  %13 = tail call noalias i8* @malloc(i64 %12) #7
  %14 = bitcast i8* %13 to double*
  br label %_ZN4Atom25create_2d_MMD_float_arrayEii.exit.i

_ZN4Atom25create_2d_MMD_float_arrayEii.exit.i:    ; preds = %8, %0
  %.0.i.i = phi double* [ %14, %8 ], [ null, %0 ]
  %15 = icmp eq i32 %2, 0
  br i1 %15, label %21, label %16

; <label>:16                                      ; preds = %_ZN4Atom25create_2d_MMD_float_arrayEii.exit.i
  %17 = bitcast double* %.0.i.i to i8*
  %18 = bitcast double* %5 to i8*
  %19 = sext i32 %6 to i64
  %20 = shl nsw i64 %19, 3
  tail call void @llvm.memcpy.p0i8.p0i8.i64(i8* %17, i8* %18, i64 %20, i32 8, i1 false) #7
  br label %21

; <label>:21                                      ; preds = %16, %_ZN4Atom25create_2d_MMD_float_arrayEii.exit.i
  %22 = icmp eq double* %5, null
  br i1 %22, label %_ZN4Atom26realloc_2d_MMD_float_arrayEPdiii.exit, label %23

; <label>:23                                      ; preds = %21
  %24 = bitcast double* %5 to i8*
  tail call void @free(i8* %24) #7
  %.pre = load i32, i32* %1, align 4, !tbaa !99
  br label %_ZN4Atom26realloc_2d_MMD_float_arrayEPdiii.exit

_ZN4Atom26realloc_2d_MMD_float_arrayEPdiii.exit:  ; preds = %23, %21
  %25 = phi i32 [ %3, %21 ], [ %.pre, %23 ]
  store double* %.0.i.i, double** %4, align 8, !tbaa !100
  %26 = getelementptr inbounds %class.Atom, %class.Atom* %this, i64 0, i32 5
  %27 = load double*, double** %26, align 8, !tbaa !101
  %28 = icmp eq i32 %25, 0
  br i1 %28, label %_ZN4Atom25create_2d_MMD_float_arrayEii.exit.i2, label %29

; <label>:29                                      ; preds = %_ZN4Atom26realloc_2d_MMD_float_arrayEPdiii.exit
  %30 = mul nsw i32 %25, 3
  %31 = add nsw i32 %30, 1025
  %32 = sext i32 %31 to i64
  %33 = shl nsw i64 %32, 3
  %34 = tail call noalias i8* @malloc(i64 %33) #7
  %35 = bitcast i8* %34 to double*
  br label %_ZN4Atom25create_2d_MMD_float_arrayEii.exit.i2

_ZN4Atom25create_2d_MMD_float_arrayEii.exit.i2:   ; preds = %29, %_ZN4Atom26realloc_2d_MMD_float_arrayEPdiii.exit
  %.0.i.i1 = phi double* [ %35, %29 ], [ null, %_ZN4Atom26realloc_2d_MMD_float_arrayEPdiii.exit ]
  br i1 %15, label %41, label %36

; <label>:36                                      ; preds = %_ZN4Atom25create_2d_MMD_float_arrayEii.exit.i2
  %37 = bitcast double* %.0.i.i1 to i8*
  %38 = bitcast double* %27 to i8*
  %39 = sext i32 %6 to i64
  %40 = shl nsw i64 %39, 3
  tail call void @llvm.memcpy.p0i8.p0i8.i64(i8* %37, i8* %38, i64 %40, i32 8, i1 false) #7
  br label %41

; <label>:41                                      ; preds = %36, %_ZN4Atom25create_2d_MMD_float_arrayEii.exit.i2
  %42 = icmp eq double* %27, null
  br i1 %42, label %_ZN4Atom26realloc_2d_MMD_float_arrayEPdiii.exit3, label %43

; <label>:43                                      ; preds = %41
  %44 = bitcast double* %27 to i8*
  tail call void @free(i8* %44) #7
  %.pre11 = load i32, i32* %1, align 4, !tbaa !99
  br label %_ZN4Atom26realloc_2d_MMD_float_arrayEPdiii.exit3

_ZN4Atom26realloc_2d_MMD_float_arrayEPdiii.exit3: ; preds = %43, %41
  %45 = phi i32 [ %25, %41 ], [ %.pre11, %43 ]
  store double* %.0.i.i1, double** %26, align 8, !tbaa !101
  %46 = getelementptr inbounds %class.Atom, %class.Atom* %this, i64 0, i32 6
  %47 = load double*, double** %46, align 8, !tbaa !80
  %48 = icmp eq i32 %45, 0
  br i1 %48, label %_ZN4Atom25create_2d_MMD_float_arrayEii.exit.i5, label %49

; <label>:49                                      ; preds = %_ZN4Atom26realloc_2d_MMD_float_arrayEPdiii.exit3
  %50 = mul nsw i32 %45, 3
  %51 = add nsw i32 %50, 1025
  %52 = sext i32 %51 to i64
  %53 = shl nsw i64 %52, 3
  %54 = tail call noalias i8* @malloc(i64 %53) #7
  %55 = bitcast i8* %54 to double*
  br label %_ZN4Atom25create_2d_MMD_float_arrayEii.exit.i5

_ZN4Atom25create_2d_MMD_float_arrayEii.exit.i5:   ; preds = %49, %_ZN4Atom26realloc_2d_MMD_float_arrayEPdiii.exit3
  %.0.i.i4 = phi double* [ %55, %49 ], [ null, %_ZN4Atom26realloc_2d_MMD_float_arrayEPdiii.exit3 ]
  br i1 %15, label %61, label %56

; <label>:56                                      ; preds = %_ZN4Atom25create_2d_MMD_float_arrayEii.exit.i5
  %57 = bitcast double* %.0.i.i4 to i8*
  %58 = bitcast double* %47 to i8*
  %59 = sext i32 %6 to i64
  %60 = shl nsw i64 %59, 3
  tail call void @llvm.memcpy.p0i8.p0i8.i64(i8* %57, i8* %58, i64 %60, i32 8, i1 false) #7
  br label %61

; <label>:61                                      ; preds = %56, %_ZN4Atom25create_2d_MMD_float_arrayEii.exit.i5
  %62 = icmp eq double* %47, null
  br i1 %62, label %_ZN4Atom26realloc_2d_MMD_float_arrayEPdiii.exit6, label %63

; <label>:63                                      ; preds = %61
  %64 = bitcast double* %47 to i8*
  tail call void @free(i8* %64) #7
  %.pre12 = load i32, i32* %1, align 4, !tbaa !99
  br label %_ZN4Atom26realloc_2d_MMD_float_arrayEPdiii.exit6

_ZN4Atom26realloc_2d_MMD_float_arrayEPdiii.exit6: ; preds = %63, %61
  %65 = phi i32 [ %45, %61 ], [ %.pre12, %63 ]
  store double* %.0.i.i4, double** %46, align 8, !tbaa !80
  %66 = getelementptr inbounds %class.Atom, %class.Atom* %this, i64 0, i32 9
  %67 = load i32*, i32** %66, align 8, !tbaa !102
  %68 = icmp eq i32 %65, 0
  br i1 %68, label %_ZN4Atom19create_1d_int_arrayEi.exit.i, label %69

; <label>:69                                      ; preds = %_ZN4Atom26realloc_2d_MMD_float_arrayEPdiii.exit6
  %70 = sext i32 %65 to i64
  %71 = shl nsw i64 %70, 2
  %72 = tail call noalias i8* @malloc(i64 %71) #7
  %73 = bitcast i8* %72 to i32*
  br label %_ZN4Atom19create_1d_int_arrayEi.exit.i

_ZN4Atom19create_1d_int_arrayEi.exit.i:           ; preds = %69, %_ZN4Atom26realloc_2d_MMD_float_arrayEPdiii.exit6
  %.0.i.i7 = phi i32* [ %73, %69 ], [ null, %_ZN4Atom26realloc_2d_MMD_float_arrayEPdiii.exit6 ]
  br i1 %15, label %79, label %74

; <label>:74                                      ; preds = %_ZN4Atom19create_1d_int_arrayEi.exit.i
  %75 = bitcast i32* %.0.i.i7 to i8*
  %76 = bitcast i32* %67 to i8*
  %77 = sext i32 %2 to i64
  %78 = shl nsw i64 %77, 2
  tail call void @llvm.memcpy.p0i8.p0i8.i64(i8* %75, i8* %76, i64 %78, i32 4, i1 false) #7
  br label %79

; <label>:79                                      ; preds = %74, %_ZN4Atom19create_1d_int_arrayEi.exit.i
  %80 = icmp eq i32* %67, null
  br i1 %80, label %_ZN4Atom20realloc_1d_int_arrayEPiii.exit, label %81

; <label>:81                                      ; preds = %79
  %82 = bitcast i32* %67 to i8*
  tail call void @free(i8* %82) #7
  %.pre13 = load i32, i32* %1, align 4, !tbaa !99
  br label %_ZN4Atom20realloc_1d_int_arrayEPiii.exit

_ZN4Atom20realloc_1d_int_arrayEPiii.exit:         ; preds = %81, %79
  %83 = phi i32 [ %65, %79 ], [ %.pre13, %81 ]
  store i32* %.0.i.i7, i32** %66, align 8, !tbaa !102
  %84 = getelementptr inbounds %class.Atom, %class.Atom* %this, i64 0, i32 10
  %85 = load double*, double** %84, align 8, !tbaa !82
  %86 = icmp eq i32 %83, 0
  br i1 %86, label %_ZN4Atom25create_2d_MMD_float_arrayEii.exit.i9, label %87

; <label>:87                                      ; preds = %_ZN4Atom20realloc_1d_int_arrayEPiii.exit
  %88 = mul nsw i32 %83, 3
  %89 = add nsw i32 %88, 1025
  %90 = sext i32 %89 to i64
  %91 = shl nsw i64 %90, 3
  %92 = tail call noalias i8* @malloc(i64 %91) #7
  %93 = bitcast i8* %92 to double*
  br label %_ZN4Atom25create_2d_MMD_float_arrayEii.exit.i9

_ZN4Atom25create_2d_MMD_float_arrayEii.exit.i9:   ; preds = %87, %_ZN4Atom20realloc_1d_int_arrayEPiii.exit
  %.0.i.i8 = phi double* [ %93, %87 ], [ null, %_ZN4Atom20realloc_1d_int_arrayEPiii.exit ]
  br i1 %15, label %99, label %94

; <label>:94                                      ; preds = %_ZN4Atom25create_2d_MMD_float_arrayEii.exit.i9
  %95 = bitcast double* %.0.i.i8 to i8*
  %96 = bitcast double* %85 to i8*
  %97 = sext i32 %6 to i64
  %98 = shl nsw i64 %97, 3
  tail call void @llvm.memcpy.p0i8.p0i8.i64(i8* %95, i8* %96, i64 %98, i32 8, i1 false) #7
  br label %99

; <label>:99                                      ; preds = %94, %_ZN4Atom25create_2d_MMD_float_arrayEii.exit.i9
  %100 = icmp eq double* %85, null
  br i1 %100, label %_ZN4Atom26realloc_2d_MMD_float_arrayEPdiii.exit10, label %101

; <label>:101                                     ; preds = %99
  %102 = bitcast double* %85 to i8*
  tail call void @free(i8* %102) #7
  br label %_ZN4Atom26realloc_2d_MMD_float_arrayEPdiii.exit10

_ZN4Atom26realloc_2d_MMD_float_arrayEPdiii.exit10: ; preds = %101, %99
  store double* %.0.i.i8, double** %84, align 8, !tbaa !82
  %103 = load double*, double** %4, align 8, !tbaa !100
  %104 = icmp eq double* %103, null
  br i1 %104, label %112, label %105

; <label>:105                                     ; preds = %_ZN4Atom26realloc_2d_MMD_float_arrayEPdiii.exit10
  %106 = load double*, double** %26, align 8, !tbaa !101
  %107 = icmp eq double* %106, null
  br i1 %107, label %112, label %108

; <label>:108                                     ; preds = %105
  %109 = load double*, double** %46, align 8, !tbaa !80
  %110 = icmp eq double* %109, null
  %111 = icmp eq double* %.0.i.i8, null
  %or.cond = or i1 %111, %110
  br i1 %or.cond, label %112, label %113

; <label>:112                                     ; preds = %108, %105, %_ZN4Atom26realloc_2d_MMD_float_arrayEPdiii.exit10
  %puts = tail call i32 @puts(i8* nonnull getelementptr inbounds ([27 x i8], [27 x i8]* @str.60, i64 0, i64 0))
  br label %113

; <label>:113                                     ; preds = %112, %108
  ret void
}

; Function Attrs: nounwind
declare noalias i8* @malloc(i64) #5

; Function Attrs: argmemonly nounwind
declare void @llvm.memcpy.p0i8.p0i8.i64(i8* nocapture, i8* nocapture readonly, i64, i32, i1) #1

; Function Attrs: nounwind uwtable
define noalias double* @_ZN4Atom26realloc_2d_MMD_float_arrayEPdiii(%class.Atom* nocapture readnone %this, double* %array, i32 %n1, i32 %n2, i32 %nold) #9 align 2 {
  %1 = mul nsw i32 %n2, %n1
  %2 = icmp eq i32 %1, 0
  br i1 %2, label %_ZN4Atom25create_2d_MMD_float_arrayEii.exit, label %3

; <label>:3                                       ; preds = %0
  %4 = add nsw i32 %1, 1025
  %5 = sext i32 %4 to i64
  %6 = shl nsw i64 %5, 3
  %7 = tail call noalias i8* @malloc(i64 %6) #7
  %8 = bitcast i8* %7 to double*
  br label %_ZN4Atom25create_2d_MMD_float_arrayEii.exit

_ZN4Atom25create_2d_MMD_float_arrayEii.exit:      ; preds = %3, %0
  %.0.i = phi double* [ %8, %3 ], [ null, %0 ]
  %9 = icmp eq i32 %nold, 0
  br i1 %9, label %15, label %10

; <label>:10                                      ; preds = %_ZN4Atom25create_2d_MMD_float_arrayEii.exit
  %11 = bitcast double* %.0.i to i8*
  %12 = bitcast double* %array to i8*
  %13 = sext i32 %nold to i64
  %14 = shl nsw i64 %13, 3
  tail call void @llvm.memcpy.p0i8.p0i8.i64(i8* %11, i8* %12, i64 %14, i32 8, i1 false)
  br label %15

; <label>:15                                      ; preds = %10, %_ZN4Atom25create_2d_MMD_float_arrayEii.exit
  %16 = icmp eq double* %array, null
  br i1 %16, label %_ZN4Atom26destroy_2d_MMD_float_arrayEPd.exit, label %17

; <label>:17                                      ; preds = %15
  %18 = bitcast double* %array to i8*
  tail call void @free(i8* %18) #7
  br label %_ZN4Atom26destroy_2d_MMD_float_arrayEPd.exit

_ZN4Atom26destroy_2d_MMD_float_arrayEPd.exit:     ; preds = %17, %15
  ret double* %.0.i
}

; Function Attrs: nounwind uwtable
define noalias i32* @_ZN4Atom20realloc_1d_int_arrayEPiii(%class.Atom* nocapture readnone %this, i32* %array, i32 %n1, i32 %nold) #9 align 2 {
  %1 = icmp eq i32 %n1, 0
  br i1 %1, label %_ZN4Atom19create_1d_int_arrayEi.exit, label %2

; <label>:2                                       ; preds = %0
  %3 = sext i32 %n1 to i64
  %4 = shl nsw i64 %3, 2
  %5 = tail call noalias i8* @malloc(i64 %4) #7
  %6 = bitcast i8* %5 to i32*
  br label %_ZN4Atom19create_1d_int_arrayEi.exit

_ZN4Atom19create_1d_int_arrayEi.exit:             ; preds = %2, %0
  %.0.i = phi i32* [ %6, %2 ], [ null, %0 ]
  %7 = icmp eq i32 %nold, 0
  br i1 %7, label %13, label %8

; <label>:8                                       ; preds = %_ZN4Atom19create_1d_int_arrayEi.exit
  %9 = bitcast i32* %.0.i to i8*
  %10 = bitcast i32* %array to i8*
  %11 = sext i32 %nold to i64
  %12 = shl nsw i64 %11, 2
  tail call void @llvm.memcpy.p0i8.p0i8.i64(i8* %9, i8* %10, i64 %12, i32 4, i1 false)
  br label %13

; <label>:13                                      ; preds = %8, %_ZN4Atom19create_1d_int_arrayEi.exit
  %14 = icmp eq i32* %array, null
  br i1 %14, label %_ZN4Atom20destroy_1d_int_arrayEPi.exit, label %15

; <label>:15                                      ; preds = %13
  %16 = bitcast i32* %array to i8*
  tail call void @free(i8* %16) #7
  br label %_ZN4Atom20destroy_1d_int_arrayEPi.exit

_ZN4Atom20destroy_1d_int_arrayEPi.exit:           ; preds = %15, %13
  ret i32* %.0.i
}

; Function Attrs: nounwind uwtable
define void @_ZN4Atom7addatomEdddddd(%class.Atom* nocapture %this, double %x_in, double %y_in, double %z_in, double %vx_in, double %vy_in, double %vz_in) #9 align 2 {
  %1 = getelementptr inbounds %class.Atom, %class.Atom* %this, i64 0, i32 1
  %2 = load i32, i32* %1, align 4, !tbaa !84
  %3 = getelementptr inbounds %class.Atom, %class.Atom* %this, i64 0, i32 3
  %4 = load i32, i32* %3, align 4, !tbaa !99
  %5 = icmp eq i32 %2, %4
  br i1 %5, label %6, label %7

; <label>:6                                       ; preds = %0
  tail call void @_ZN4Atom9growarrayEv(%class.Atom* nonnull %this)
  %.pre = load i32, i32* %1, align 4, !tbaa !84
  br label %7

; <label>:7                                       ; preds = %6, %0
  %8 = phi i32 [ %.pre, %6 ], [ %2, %0 ]
  %9 = mul nsw i32 %8, 3
  %10 = sext i32 %9 to i64
  %11 = getelementptr inbounds %class.Atom, %class.Atom* %this, i64 0, i32 4
  %12 = load double*, double** %11, align 8, !tbaa !100
  %13 = getelementptr inbounds double, double* %12, i64 %10
  store double %x_in, double* %13, align 8, !tbaa !33
  %14 = add nsw i32 %9, 1
  %15 = sext i32 %14 to i64
  %16 = getelementptr inbounds double, double* %12, i64 %15
  store double %y_in, double* %16, align 8, !tbaa !33
  %17 = add nsw i32 %9, 2
  %18 = sext i32 %17 to i64
  %19 = getelementptr inbounds double, double* %12, i64 %18
  store double %z_in, double* %19, align 8, !tbaa !33
  %20 = getelementptr inbounds %class.Atom, %class.Atom* %this, i64 0, i32 5
  %21 = load double*, double** %20, align 8, !tbaa !101
  %22 = getelementptr inbounds double, double* %21, i64 %10
  store double %vx_in, double* %22, align 8, !tbaa !33
  %23 = getelementptr inbounds double, double* %21, i64 %15
  store double %vy_in, double* %23, align 8, !tbaa !33
  %24 = getelementptr inbounds double, double* %21, i64 %18
  store double %vz_in, double* %24, align 8, !tbaa !33
  %25 = tail call i32 @rand() #7
  %26 = getelementptr inbounds %class.Atom, %class.Atom* %this, i64 0, i32 7
  %27 = load i32, i32* %26, align 8, !tbaa !72
  %28 = srem i32 %25, %27
  %29 = load i32, i32* %1, align 4, !tbaa !84
  %30 = sext i32 %29 to i64
  %31 = getelementptr inbounds %class.Atom, %class.Atom* %this, i64 0, i32 9
  %32 = load i32*, i32** %31, align 8, !tbaa !102
  %33 = getelementptr inbounds i32, i32* %32, i64 %30
  store i32 %28, i32* %33, align 4, !tbaa !1
  %34 = load i32, i32* %1, align 4, !tbaa !84
  %35 = add nsw i32 %34, 1
  store i32 %35, i32* %1, align 4, !tbaa !84
  ret void
}

; Function Attrs: nounwind
declare i32 @rand() #5

; Function Attrs: uwtable
define void @_ZN4Atom3pbcEv(%class.Atom* nocapture readonly %this) #11 align 2 {
  %.omp.lb = alloca i32, align 4
  %.omp.ub = alloca i32, align 4
  %.omp.stride = alloca i32, align 4
  %.omp.is_last = alloca i32, align 4
  %1 = tail call i32 @__kmpc_global_thread_num(%ident_t* nonnull @4)
  %2 = getelementptr inbounds %class.Atom, %class.Atom* %this, i64 0, i32 1
  %3 = load i32, i32* %2, align 4, !tbaa !84
  %4 = add nsw i32 %3, -1
  %5 = icmp sgt i32 %3, 0
  br i1 %5, label %6, label %._crit_edge3

._crit_edge3:                                     ; preds = %0
  %.pre = bitcast i32* %.omp.is_last to i8*
  %.pre4 = bitcast i32* %.omp.stride to i8*
  %.pre6 = bitcast i32* %.omp.ub to i8*
  %.pre8 = bitcast i32* %.omp.lb to i8*
  br label %71

; <label>:6                                       ; preds = %0
  %7 = bitcast i32* %.omp.lb to i8*
  call void @llvm.lifetime.start(i64 4, i8* %7) #7
  store i32 0, i32* %.omp.lb, align 4, !tbaa !1
  %8 = bitcast i32* %.omp.ub to i8*
  call void @llvm.lifetime.start(i64 4, i8* %8) #7
  store i32 %4, i32* %.omp.ub, align 4, !tbaa !1
  %9 = bitcast i32* %.omp.stride to i8*
  call void @llvm.lifetime.start(i64 4, i8* %9) #7
  store i32 1, i32* %.omp.stride, align 4, !tbaa !1
  %10 = bitcast i32* %.omp.is_last to i8*
  call void @llvm.lifetime.start(i64 4, i8* %10) #7
  store i32 0, i32* %.omp.is_last, align 4, !tbaa !1
  call void @__kmpc_for_static_init_4(%ident_t* nonnull @4, i32 %1, i32 34, i32* nonnull %.omp.is_last, i32* nonnull %.omp.lb, i32* nonnull %.omp.ub, i32* nonnull %.omp.stride, i32 1, i32 1)
  %11 = load i32, i32* %.omp.ub, align 4, !tbaa !1
  %12 = icmp sgt i32 %11, %4
  %13 = select i1 %12, i32 %4, i32 %11
  store i32 %13, i32* %.omp.ub, align 4, !tbaa !1
  %14 = load i32, i32* %.omp.lb, align 4, !tbaa !1
  %15 = icmp sgt i32 %14, %13
  br i1 %15, label %._crit_edge, label %.lr.ph

.lr.ph:                                           ; preds = %6
  %16 = getelementptr inbounds %class.Atom, %class.Atom* %this, i64 0, i32 4
  %17 = load double*, double** %16, align 8
  %18 = getelementptr inbounds %class.Atom, %class.Atom* %this, i64 0, i32 18, i32 0
  %19 = getelementptr inbounds %class.Atom, %class.Atom* %this, i64 0, i32 18, i32 1
  %20 = getelementptr inbounds %class.Atom, %class.Atom* %this, i64 0, i32 18, i32 2
  %21 = sext i32 %14 to i64
  %22 = sext i32 %13 to i64
  br label %23

; <label>:23                                      ; preds = %68, %.lr.ph
  %indvars.iv = phi i64 [ %indvars.iv.next, %68 ], [ %21, %.lr.ph ]
  %.omp.iv.02 = phi i32 [ %69, %68 ], [ %14, %.lr.ph ]
  %24 = mul nsw i32 %.omp.iv.02, 3
  %25 = sext i32 %24 to i64
  %26 = getelementptr inbounds double, double* %17, i64 %25
  %27 = load double, double* %26, align 8, !tbaa !33
  %28 = fcmp olt double %27, 0.000000e+00
  br i1 %28, label %29, label %32

; <label>:29                                      ; preds = %23
  %30 = load double, double* %18, align 8, !tbaa !62
  %31 = fadd double %27, %30
  store double %31, double* %26, align 8, !tbaa !33
  br label %32

; <label>:32                                      ; preds = %29, %23
  %33 = phi double [ %31, %29 ], [ %27, %23 ]
  %34 = load double, double* %18, align 8, !tbaa !62
  %35 = fcmp ult double %33, %34
  br i1 %35, label %38, label %36

; <label>:36                                      ; preds = %32
  %37 = fsub double %33, %34
  store double %37, double* %26, align 8, !tbaa !33
  br label %38

; <label>:38                                      ; preds = %36, %32
  %39 = add nsw i32 %24, 1
  %40 = sext i32 %39 to i64
  %41 = getelementptr inbounds double, double* %17, i64 %40
  %42 = load double, double* %41, align 8, !tbaa !33
  %43 = fcmp olt double %42, 0.000000e+00
  br i1 %43, label %44, label %47

; <label>:44                                      ; preds = %38
  %45 = load double, double* %19, align 8, !tbaa !63
  %46 = fadd double %42, %45
  store double %46, double* %41, align 8, !tbaa !33
  br label %47

; <label>:47                                      ; preds = %44, %38
  %48 = phi double [ %46, %44 ], [ %42, %38 ]
  %49 = load double, double* %19, align 8, !tbaa !63
  %50 = fcmp ult double %48, %49
  br i1 %50, label %53, label %51

; <label>:51                                      ; preds = %47
  %52 = fsub double %48, %49
  store double %52, double* %41, align 8, !tbaa !33
  br label %53

; <label>:53                                      ; preds = %51, %47
  %54 = add nsw i32 %24, 2
  %55 = sext i32 %54 to i64
  %56 = getelementptr inbounds double, double* %17, i64 %55
  %57 = load double, double* %56, align 8, !tbaa !33
  %58 = fcmp olt double %57, 0.000000e+00
  br i1 %58, label %59, label %62

; <label>:59                                      ; preds = %53
  %60 = load double, double* %20, align 8, !tbaa !64
  %61 = fadd double %57, %60
  store double %61, double* %56, align 8, !tbaa !33
  br label %62

; <label>:62                                      ; preds = %59, %53
  %63 = phi double [ %61, %59 ], [ %57, %53 ]
  %64 = load double, double* %20, align 8, !tbaa !64
  %65 = fcmp ult double %63, %64
  br i1 %65, label %68, label %66

; <label>:66                                      ; preds = %62
  %67 = fsub double %63, %64
  store double %67, double* %56, align 8, !tbaa !33
  br label %68

; <label>:68                                      ; preds = %66, %62
  %69 = add nsw i32 %.omp.iv.02, 1
  %70 = icmp slt i64 %indvars.iv, %22
  %indvars.iv.next = add nsw i64 %indvars.iv, 1
  br i1 %70, label %23, label %._crit_edge.loopexit

._crit_edge.loopexit:                             ; preds = %68
  br label %._crit_edge

._crit_edge:                                      ; preds = %._crit_edge.loopexit, %6
  call void @__kmpc_for_static_fini(%ident_t* nonnull @4, i32 %1)
  br label %71

; <label>:71                                      ; preds = %._crit_edge, %._crit_edge3
  %.pre-phi9 = phi i8* [ %.pre8, %._crit_edge3 ], [ %7, %._crit_edge ]
  %.pre-phi7 = phi i8* [ %.pre6, %._crit_edge3 ], [ %8, %._crit_edge ]
  %.pre-phi5 = phi i8* [ %.pre4, %._crit_edge3 ], [ %9, %._crit_edge ]
  %.pre-phi = phi i8* [ %.pre, %._crit_edge3 ], [ %10, %._crit_edge ]
  call void @llvm.lifetime.end(i64 4, i8* %.pre-phi) #7
  call void @llvm.lifetime.end(i64 4, i8* %.pre-phi5) #7
  call void @llvm.lifetime.end(i64 4, i8* %.pre-phi7) #7
  call void @llvm.lifetime.end(i64 4, i8* %.pre-phi9) #7
  call void @__kmpc_barrier(%ident_t* nonnull @5, i32 %1)
  ret void
}

; Function Attrs: norecurse nounwind uwtable
define void @_ZN4Atom4copyEii(%class.Atom* nocapture readonly %this, i32 %i, i32 %j) #12 align 2 {
  %1 = mul nsw i32 %i, 3
  %2 = sext i32 %1 to i64
  %3 = getelementptr inbounds %class.Atom, %class.Atom* %this, i64 0, i32 4
  %4 = load double*, double** %3, align 8, !tbaa !100
  %5 = getelementptr inbounds double, double* %4, i64 %2
  %6 = bitcast double* %5 to i64*
  %7 = load i64, i64* %6, align 8, !tbaa !33
  %8 = mul nsw i32 %j, 3
  %9 = sext i32 %8 to i64
  %10 = getelementptr inbounds double, double* %4, i64 %9
  %11 = bitcast double* %10 to i64*
  store i64 %7, i64* %11, align 8, !tbaa !33
  %12 = add nsw i32 %1, 1
  %13 = sext i32 %12 to i64
  %14 = getelementptr inbounds double, double* %4, i64 %13
  %15 = bitcast double* %14 to i64*
  %16 = load i64, i64* %15, align 8, !tbaa !33
  %17 = add nsw i32 %8, 1
  %18 = sext i32 %17 to i64
  %19 = getelementptr inbounds double, double* %4, i64 %18
  %20 = bitcast double* %19 to i64*
  store i64 %16, i64* %20, align 8, !tbaa !33
  %21 = add nsw i32 %1, 2
  %22 = sext i32 %21 to i64
  %23 = getelementptr inbounds double, double* %4, i64 %22
  %24 = bitcast double* %23 to i64*
  %25 = load i64, i64* %24, align 8, !tbaa !33
  %26 = add nsw i32 %8, 2
  %27 = sext i32 %26 to i64
  %28 = getelementptr inbounds double, double* %4, i64 %27
  %29 = bitcast double* %28 to i64*
  store i64 %25, i64* %29, align 8, !tbaa !33
  %30 = getelementptr inbounds %class.Atom, %class.Atom* %this, i64 0, i32 5
  %31 = load double*, double** %30, align 8, !tbaa !101
  %32 = getelementptr inbounds double, double* %31, i64 %2
  %33 = bitcast double* %32 to i64*
  %34 = load i64, i64* %33, align 8, !tbaa !33
  %35 = getelementptr inbounds double, double* %31, i64 %9
  %36 = bitcast double* %35 to i64*
  store i64 %34, i64* %36, align 8, !tbaa !33
  %37 = getelementptr inbounds double, double* %31, i64 %13
  %38 = bitcast double* %37 to i64*
  %39 = load i64, i64* %38, align 8, !tbaa !33
  %40 = getelementptr inbounds double, double* %31, i64 %18
  %41 = bitcast double* %40 to i64*
  store i64 %39, i64* %41, align 8, !tbaa !33
  %42 = getelementptr inbounds double, double* %31, i64 %22
  %43 = bitcast double* %42 to i64*
  %44 = load i64, i64* %43, align 8, !tbaa !33
  %45 = getelementptr inbounds double, double* %31, i64 %27
  %46 = bitcast double* %45 to i64*
  store i64 %44, i64* %46, align 8, !tbaa !33
  %47 = sext i32 %i to i64
  %48 = getelementptr inbounds %class.Atom, %class.Atom* %this, i64 0, i32 9
  %49 = load i32*, i32** %48, align 8, !tbaa !102
  %50 = getelementptr inbounds i32, i32* %49, i64 %47
  %51 = load i32, i32* %50, align 4, !tbaa !1
  %52 = sext i32 %j to i64
  %53 = getelementptr inbounds i32, i32* %49, i64 %52
  store i32 %51, i32* %53, align 4, !tbaa !1
  ret void
}

; Function Attrs: uwtable
define void @_ZN4Atom9pack_commEiPiPdS0_(%class.Atom* nocapture readonly %this, i32 %n, i32* nocapture readonly %list, double* nocapture %buf, i32* nocapture readonly %pbc_flags) #11 align 2 {
  %.omp.lb = alloca i32, align 4
  %.omp.ub = alloca i32, align 4
  %.omp.stride = alloca i32, align 4
  %.omp.is_last = alloca i32, align 4
  %1 = tail call i32 @__kmpc_global_thread_num(%ident_t* nonnull @4)
  %.omp.lb6 = alloca i32, align 4
  %.omp.ub7 = alloca i32, align 4
  %.omp.stride8 = alloca i32, align 4
  %.omp.is_last9 = alloca i32, align 4
  %2 = load i32, i32* %pbc_flags, align 4, !tbaa !1
  %3 = icmp eq i32 %2, 0
  %4 = add nsw i32 %n, -1
  %5 = icmp sgt i32 %n, 0
  br i1 %3, label %6, label %54

; <label>:6                                       ; preds = %0
  br i1 %5, label %7, label %._crit_edge19

._crit_edge19:                                    ; preds = %6
  %.pre = bitcast i32* %.omp.is_last to i8*
  %.pre20 = bitcast i32* %.omp.stride to i8*
  %.pre22 = bitcast i32* %.omp.ub to i8*
  %.pre24 = bitcast i32* %.omp.lb to i8*
  br label %53

; <label>:7                                       ; preds = %6
  %8 = bitcast i32* %.omp.lb to i8*
  call void @llvm.lifetime.start(i64 4, i8* %8) #7
  store i32 0, i32* %.omp.lb, align 4, !tbaa !1
  %9 = bitcast i32* %.omp.ub to i8*
  call void @llvm.lifetime.start(i64 4, i8* %9) #7
  store i32 %4, i32* %.omp.ub, align 4, !tbaa !1
  %10 = bitcast i32* %.omp.stride to i8*
  call void @llvm.lifetime.start(i64 4, i8* %10) #7
  store i32 1, i32* %.omp.stride, align 4, !tbaa !1
  %11 = bitcast i32* %.omp.is_last to i8*
  call void @llvm.lifetime.start(i64 4, i8* %11) #7
  store i32 0, i32* %.omp.is_last, align 4, !tbaa !1
  call void @__kmpc_for_static_init_4(%ident_t* nonnull @4, i32 %1, i32 34, i32* nonnull %.omp.is_last, i32* nonnull %.omp.lb, i32* nonnull %.omp.ub, i32* nonnull %.omp.stride, i32 1, i32 1)
  %12 = load i32, i32* %.omp.ub, align 4, !tbaa !1
  %13 = icmp sgt i32 %12, %4
  %14 = select i1 %13, i32 %4, i32 %12
  store i32 %14, i32* %.omp.ub, align 4, !tbaa !1
  %15 = load i32, i32* %.omp.lb, align 4, !tbaa !1
  %16 = icmp sgt i32 %15, %14
  br i1 %16, label %._crit_edge, label %.lr.ph

.lr.ph:                                           ; preds = %7
  %17 = getelementptr inbounds %class.Atom, %class.Atom* %this, i64 0, i32 4
  %18 = load double*, double** %17, align 8
  %19 = sext i32 %15 to i64
  %20 = sext i32 %14 to i64
  br label %21

; <label>:21                                      ; preds = %21, %.lr.ph
  %indvars.iv = phi i64 [ %indvars.iv.next, %21 ], [ %19, %.lr.ph ]
  %.omp.iv.011 = phi i32 [ %51, %21 ], [ %15, %.lr.ph ]
  %22 = getelementptr inbounds i32, i32* %list, i64 %indvars.iv
  %23 = load i32, i32* %22, align 4, !tbaa !1
  %24 = mul nsw i32 %23, 3
  %25 = sext i32 %24 to i64
  %26 = getelementptr inbounds double, double* %18, i64 %25
  %27 = bitcast double* %26 to i64*
  %28 = load i64, i64* %27, align 8, !tbaa !33
  %29 = mul nsw i32 %.omp.iv.011, 3
  %30 = sext i32 %29 to i64
  %31 = getelementptr inbounds double, double* %buf, i64 %30
  %32 = bitcast double* %31 to i64*
  store i64 %28, i64* %32, align 8, !tbaa !33
  %33 = add nsw i32 %24, 1
  %34 = sext i32 %33 to i64
  %35 = getelementptr inbounds double, double* %18, i64 %34
  %36 = bitcast double* %35 to i64*
  %37 = load i64, i64* %36, align 8, !tbaa !33
  %38 = add nsw i32 %29, 1
  %39 = sext i32 %38 to i64
  %40 = getelementptr inbounds double, double* %buf, i64 %39
  %41 = bitcast double* %40 to i64*
  store i64 %37, i64* %41, align 8, !tbaa !33
  %42 = add nsw i32 %24, 2
  %43 = sext i32 %42 to i64
  %44 = getelementptr inbounds double, double* %18, i64 %43
  %45 = bitcast double* %44 to i64*
  %46 = load i64, i64* %45, align 8, !tbaa !33
  %47 = add nsw i32 %29, 2
  %48 = sext i32 %47 to i64
  %49 = getelementptr inbounds double, double* %buf, i64 %48
  %50 = bitcast double* %49 to i64*
  store i64 %46, i64* %50, align 8, !tbaa !33
  %51 = add nsw i32 %.omp.iv.011, 1
  %52 = icmp slt i64 %indvars.iv, %20
  %indvars.iv.next = add nsw i64 %indvars.iv, 1
  br i1 %52, label %21, label %._crit_edge.loopexit

._crit_edge.loopexit:                             ; preds = %21
  br label %._crit_edge

._crit_edge:                                      ; preds = %._crit_edge.loopexit, %7
  call void @__kmpc_for_static_fini(%ident_t* nonnull @4, i32 %1)
  br label %53

; <label>:53                                      ; preds = %._crit_edge, %._crit_edge19
  %.pre-phi25 = phi i8* [ %.pre24, %._crit_edge19 ], [ %8, %._crit_edge ]
  %.pre-phi23 = phi i8* [ %.pre22, %._crit_edge19 ], [ %9, %._crit_edge ]
  %.pre-phi21 = phi i8* [ %.pre20, %._crit_edge19 ], [ %10, %._crit_edge ]
  %.pre-phi = phi i8* [ %.pre, %._crit_edge19 ], [ %11, %._crit_edge ]
  call void @llvm.lifetime.end(i64 4, i8* %.pre-phi) #7
  call void @llvm.lifetime.end(i64 4, i8* %.pre-phi21) #7
  call void @llvm.lifetime.end(i64 4, i8* %.pre-phi23) #7
  call void @llvm.lifetime.end(i64 4, i8* %.pre-phi25) #7
  call void @__kmpc_barrier(%ident_t* nonnull @5, i32 %1)
  br label %117

; <label>:54                                      ; preds = %0
  br i1 %5, label %55, label %._crit_edge18

._crit_edge18:                                    ; preds = %54
  %.pre26 = bitcast i32* %.omp.is_last9 to i8*
  %.pre28 = bitcast i32* %.omp.stride8 to i8*
  %.pre30 = bitcast i32* %.omp.ub7 to i8*
  %.pre32 = bitcast i32* %.omp.lb6 to i8*
  br label %116

; <label>:55                                      ; preds = %54
  %56 = bitcast i32* %.omp.lb6 to i8*
  call void @llvm.lifetime.start(i64 4, i8* %56) #7
  store i32 0, i32* %.omp.lb6, align 4, !tbaa !1
  %57 = bitcast i32* %.omp.ub7 to i8*
  call void @llvm.lifetime.start(i64 4, i8* %57) #7
  store i32 %4, i32* %.omp.ub7, align 4, !tbaa !1
  %58 = bitcast i32* %.omp.stride8 to i8*
  call void @llvm.lifetime.start(i64 4, i8* %58) #7
  store i32 1, i32* %.omp.stride8, align 4, !tbaa !1
  %59 = bitcast i32* %.omp.is_last9 to i8*
  call void @llvm.lifetime.start(i64 4, i8* %59) #7
  store i32 0, i32* %.omp.is_last9, align 4, !tbaa !1
  call void @__kmpc_for_static_init_4(%ident_t* nonnull @4, i32 %1, i32 34, i32* nonnull %.omp.is_last9, i32* nonnull %.omp.lb6, i32* nonnull %.omp.ub7, i32* nonnull %.omp.stride8, i32 1, i32 1)
  %60 = load i32, i32* %.omp.ub7, align 4, !tbaa !1
  %61 = icmp sgt i32 %60, %4
  %62 = select i1 %61, i32 %4, i32 %60
  store i32 %62, i32* %.omp.ub7, align 4, !tbaa !1
  %63 = load i32, i32* %.omp.lb6, align 4, !tbaa !1
  %64 = icmp sgt i32 %63, %62
  br i1 %64, label %._crit_edge15, label %.lr.ph14

.lr.ph14:                                         ; preds = %55
  %65 = getelementptr inbounds %class.Atom, %class.Atom* %this, i64 0, i32 4
  %66 = load double*, double** %65, align 8
  %67 = getelementptr inbounds i32, i32* %pbc_flags, i64 1
  %68 = load i32, i32* %67, align 4
  %69 = sitofp i32 %68 to double
  %70 = getelementptr inbounds %class.Atom, %class.Atom* %this, i64 0, i32 18, i32 0
  %71 = getelementptr inbounds i32, i32* %pbc_flags, i64 2
  %72 = load i32, i32* %71, align 4
  %73 = sitofp i32 %72 to double
  %74 = getelementptr inbounds %class.Atom, %class.Atom* %this, i64 0, i32 18, i32 1
  %75 = getelementptr inbounds i32, i32* %pbc_flags, i64 3
  %76 = load i32, i32* %75, align 4
  %77 = sitofp i32 %76 to double
  %78 = getelementptr inbounds %class.Atom, %class.Atom* %this, i64 0, i32 18, i32 2
  %79 = sext i32 %63 to i64
  %80 = sext i32 %62 to i64
  br label %81

; <label>:81                                      ; preds = %81, %.lr.ph14
  %indvars.iv16 = phi i64 [ %indvars.iv.next17, %81 ], [ %79, %.lr.ph14 ]
  %.omp.iv3.012 = phi i32 [ %114, %81 ], [ %63, %.lr.ph14 ]
  %82 = getelementptr inbounds i32, i32* %list, i64 %indvars.iv16
  %83 = load i32, i32* %82, align 4, !tbaa !1
  %84 = mul nsw i32 %83, 3
  %85 = sext i32 %84 to i64
  %86 = getelementptr inbounds double, double* %66, i64 %85
  %87 = load double, double* %86, align 8, !tbaa !33
  %88 = load double, double* %70, align 8, !tbaa !62
  %89 = fmul double %69, %88
  %90 = fadd double %87, %89
  %91 = mul nsw i32 %.omp.iv3.012, 3
  %92 = sext i32 %91 to i64
  %93 = getelementptr inbounds double, double* %buf, i64 %92
  store double %90, double* %93, align 8, !tbaa !33
  %94 = add nsw i32 %84, 1
  %95 = sext i32 %94 to i64
  %96 = getelementptr inbounds double, double* %66, i64 %95
  %97 = load double, double* %96, align 8, !tbaa !33
  %98 = load double, double* %74, align 8, !tbaa !63
  %99 = fmul double %73, %98
  %100 = fadd double %97, %99
  %101 = add nsw i32 %91, 1
  %102 = sext i32 %101 to i64
  %103 = getelementptr inbounds double, double* %buf, i64 %102
  store double %100, double* %103, align 8, !tbaa !33
  %104 = add nsw i32 %84, 2
  %105 = sext i32 %104 to i64
  %106 = getelementptr inbounds double, double* %66, i64 %105
  %107 = load double, double* %106, align 8, !tbaa !33
  %108 = load double, double* %78, align 8, !tbaa !64
  %109 = fmul double %77, %108
  %110 = fadd double %107, %109
  %111 = add nsw i32 %91, 2
  %112 = sext i32 %111 to i64
  %113 = getelementptr inbounds double, double* %buf, i64 %112
  store double %110, double* %113, align 8, !tbaa !33
  %114 = add nsw i32 %.omp.iv3.012, 1
  %115 = icmp slt i64 %indvars.iv16, %80
  %indvars.iv.next17 = add nsw i64 %indvars.iv16, 1
  br i1 %115, label %81, label %._crit_edge15.loopexit

._crit_edge15.loopexit:                           ; preds = %81
  br label %._crit_edge15

._crit_edge15:                                    ; preds = %._crit_edge15.loopexit, %55
  call void @__kmpc_for_static_fini(%ident_t* nonnull @4, i32 %1)
  br label %116

; <label>:116                                     ; preds = %._crit_edge15, %._crit_edge18
  %.pre-phi33 = phi i8* [ %.pre32, %._crit_edge18 ], [ %56, %._crit_edge15 ]
  %.pre-phi31 = phi i8* [ %.pre30, %._crit_edge18 ], [ %57, %._crit_edge15 ]
  %.pre-phi29 = phi i8* [ %.pre28, %._crit_edge18 ], [ %58, %._crit_edge15 ]
  %.pre-phi27 = phi i8* [ %.pre26, %._crit_edge18 ], [ %59, %._crit_edge15 ]
  call void @llvm.lifetime.end(i64 4, i8* %.pre-phi27) #7
  call void @llvm.lifetime.end(i64 4, i8* %.pre-phi29) #7
  call void @llvm.lifetime.end(i64 4, i8* %.pre-phi31) #7
  call void @llvm.lifetime.end(i64 4, i8* %.pre-phi33) #7
  call void @__kmpc_barrier(%ident_t* nonnull @5, i32 %1)
  br label %117

; <label>:117                                     ; preds = %116, %53
  ret void
}

; Function Attrs: uwtable
define void @_ZN4Atom11unpack_commEiiPd(%class.Atom* nocapture readonly %this, i32 %n, i32 %first, double* nocapture readonly %buf) #11 align 2 {
  %.omp.lb = alloca i32, align 4
  %.omp.ub = alloca i32, align 4
  %.omp.stride = alloca i32, align 4
  %.omp.is_last = alloca i32, align 4
  %1 = tail call i32 @__kmpc_global_thread_num(%ident_t* nonnull @4)
  %2 = add nsw i32 %n, -1
  %3 = icmp sgt i32 %n, 0
  br i1 %3, label %4, label %._crit_edge4

._crit_edge4:                                     ; preds = %0
  %.pre = bitcast i32* %.omp.is_last to i8*
  %.pre5 = bitcast i32* %.omp.stride to i8*
  %.pre7 = bitcast i32* %.omp.ub to i8*
  %.pre9 = bitcast i32* %.omp.lb to i8*
  br label %49

; <label>:4                                       ; preds = %0
  %5 = bitcast i32* %.omp.lb to i8*
  call void @llvm.lifetime.start(i64 4, i8* %5) #7
  store i32 0, i32* %.omp.lb, align 4, !tbaa !1
  %6 = bitcast i32* %.omp.ub to i8*
  call void @llvm.lifetime.start(i64 4, i8* %6) #7
  store i32 %2, i32* %.omp.ub, align 4, !tbaa !1
  %7 = bitcast i32* %.omp.stride to i8*
  call void @llvm.lifetime.start(i64 4, i8* %7) #7
  store i32 1, i32* %.omp.stride, align 4, !tbaa !1
  %8 = bitcast i32* %.omp.is_last to i8*
  call void @llvm.lifetime.start(i64 4, i8* %8) #7
  store i32 0, i32* %.omp.is_last, align 4, !tbaa !1
  call void @__kmpc_for_static_init_4(%ident_t* nonnull @4, i32 %1, i32 34, i32* nonnull %.omp.is_last, i32* nonnull %.omp.lb, i32* nonnull %.omp.ub, i32* nonnull %.omp.stride, i32 1, i32 1)
  %9 = load i32, i32* %.omp.ub, align 4, !tbaa !1
  %10 = icmp sgt i32 %9, %2
  %11 = select i1 %10, i32 %2, i32 %9
  store i32 %11, i32* %.omp.ub, align 4, !tbaa !1
  %12 = load i32, i32* %.omp.lb, align 4, !tbaa !1
  %13 = icmp sgt i32 %12, %11
  br i1 %13, label %._crit_edge, label %.lr.ph

.lr.ph:                                           ; preds = %4
  %14 = getelementptr inbounds %class.Atom, %class.Atom* %this, i64 0, i32 4
  %15 = load double*, double** %14, align 8
  %16 = sext i32 %12 to i64
  %17 = sext i32 %11 to i64
  br label %18

; <label>:18                                      ; preds = %18, %.lr.ph
  %indvars.iv = phi i64 [ %indvars.iv.next, %18 ], [ %16, %.lr.ph ]
  %.omp.iv.03 = phi i32 [ %47, %18 ], [ %12, %.lr.ph ]
  %19 = mul nsw i32 %.omp.iv.03, 3
  %20 = sext i32 %19 to i64
  %21 = getelementptr inbounds double, double* %buf, i64 %20
  %22 = bitcast double* %21 to i64*
  %23 = load i64, i64* %22, align 8, !tbaa !33
  %24 = add nsw i32 %.omp.iv.03, %first
  %25 = mul nsw i32 %24, 3
  %26 = sext i32 %25 to i64
  %27 = getelementptr inbounds double, double* %15, i64 %26
  %28 = bitcast double* %27 to i64*
  store i64 %23, i64* %28, align 8, !tbaa !33
  %29 = add nsw i32 %19, 1
  %30 = sext i32 %29 to i64
  %31 = getelementptr inbounds double, double* %buf, i64 %30
  %32 = bitcast double* %31 to i64*
  %33 = load i64, i64* %32, align 8, !tbaa !33
  %34 = add nsw i32 %25, 1
  %35 = sext i32 %34 to i64
  %36 = getelementptr inbounds double, double* %15, i64 %35
  %37 = bitcast double* %36 to i64*
  store i64 %33, i64* %37, align 8, !tbaa !33
  %38 = add nsw i32 %19, 2
  %39 = sext i32 %38 to i64
  %40 = getelementptr inbounds double, double* %buf, i64 %39
  %41 = bitcast double* %40 to i64*
  %42 = load i64, i64* %41, align 8, !tbaa !33
  %43 = add nsw i32 %25, 2
  %44 = sext i32 %43 to i64
  %45 = getelementptr inbounds double, double* %15, i64 %44
  %46 = bitcast double* %45 to i64*
  store i64 %42, i64* %46, align 8, !tbaa !33
  %47 = add nsw i32 %.omp.iv.03, 1
  %48 = icmp slt i64 %indvars.iv, %17
  %indvars.iv.next = add nsw i64 %indvars.iv, 1
  br i1 %48, label %18, label %._crit_edge.loopexit

._crit_edge.loopexit:                             ; preds = %18
  br label %._crit_edge

._crit_edge:                                      ; preds = %._crit_edge.loopexit, %4
  call void @__kmpc_for_static_fini(%ident_t* nonnull @4, i32 %1)
  br label %49

; <label>:49                                      ; preds = %._crit_edge, %._crit_edge4
  %.pre-phi10 = phi i8* [ %.pre9, %._crit_edge4 ], [ %5, %._crit_edge ]
  %.pre-phi8 = phi i8* [ %.pre7, %._crit_edge4 ], [ %6, %._crit_edge ]
  %.pre-phi6 = phi i8* [ %.pre5, %._crit_edge4 ], [ %7, %._crit_edge ]
  %.pre-phi = phi i8* [ %.pre, %._crit_edge4 ], [ %8, %._crit_edge ]
  call void @llvm.lifetime.end(i64 4, i8* %.pre-phi) #7
  call void @llvm.lifetime.end(i64 4, i8* %.pre-phi6) #7
  call void @llvm.lifetime.end(i64 4, i8* %.pre-phi8) #7
  call void @llvm.lifetime.end(i64 4, i8* %.pre-phi10) #7
  call void @__kmpc_barrier(%ident_t* nonnull @5, i32 %1)
  ret void
}

; Function Attrs: uwtable
define void @_ZN4Atom12pack_reverseEiiPd(%class.Atom* nocapture readonly %this, i32 %n, i32 %first, double* nocapture %buf) #11 align 2 {
  %.omp.lb = alloca i32, align 4
  %.omp.ub = alloca i32, align 4
  %.omp.stride = alloca i32, align 4
  %.omp.is_last = alloca i32, align 4
  %1 = tail call i32 @__kmpc_global_thread_num(%ident_t* nonnull @4)
  %2 = add nsw i32 %n, -1
  %3 = icmp sgt i32 %n, 0
  br i1 %3, label %4, label %._crit_edge4

._crit_edge4:                                     ; preds = %0
  %.pre = bitcast i32* %.omp.is_last to i8*
  %.pre5 = bitcast i32* %.omp.stride to i8*
  %.pre7 = bitcast i32* %.omp.ub to i8*
  %.pre9 = bitcast i32* %.omp.lb to i8*
  br label %49

; <label>:4                                       ; preds = %0
  %5 = bitcast i32* %.omp.lb to i8*
  call void @llvm.lifetime.start(i64 4, i8* %5) #7
  store i32 0, i32* %.omp.lb, align 4, !tbaa !1
  %6 = bitcast i32* %.omp.ub to i8*
  call void @llvm.lifetime.start(i64 4, i8* %6) #7
  store i32 %2, i32* %.omp.ub, align 4, !tbaa !1
  %7 = bitcast i32* %.omp.stride to i8*
  call void @llvm.lifetime.start(i64 4, i8* %7) #7
  store i32 1, i32* %.omp.stride, align 4, !tbaa !1
  %8 = bitcast i32* %.omp.is_last to i8*
  call void @llvm.lifetime.start(i64 4, i8* %8) #7
  store i32 0, i32* %.omp.is_last, align 4, !tbaa !1
  call void @__kmpc_for_static_init_4(%ident_t* nonnull @4, i32 %1, i32 34, i32* nonnull %.omp.is_last, i32* nonnull %.omp.lb, i32* nonnull %.omp.ub, i32* nonnull %.omp.stride, i32 1, i32 1)
  %9 = load i32, i32* %.omp.ub, align 4, !tbaa !1
  %10 = icmp sgt i32 %9, %2
  %11 = select i1 %10, i32 %2, i32 %9
  store i32 %11, i32* %.omp.ub, align 4, !tbaa !1
  %12 = load i32, i32* %.omp.lb, align 4, !tbaa !1
  %13 = icmp sgt i32 %12, %11
  br i1 %13, label %._crit_edge, label %.lr.ph

.lr.ph:                                           ; preds = %4
  %14 = getelementptr inbounds %class.Atom, %class.Atom* %this, i64 0, i32 6
  %15 = load double*, double** %14, align 8
  %16 = sext i32 %12 to i64
  %17 = sext i32 %11 to i64
  br label %18

; <label>:18                                      ; preds = %18, %.lr.ph
  %indvars.iv = phi i64 [ %indvars.iv.next, %18 ], [ %16, %.lr.ph ]
  %.omp.iv.03 = phi i32 [ %47, %18 ], [ %12, %.lr.ph ]
  %19 = add nsw i32 %.omp.iv.03, %first
  %20 = mul nsw i32 %19, 3
  %21 = sext i32 %20 to i64
  %22 = getelementptr inbounds double, double* %15, i64 %21
  %23 = bitcast double* %22 to i64*
  %24 = load i64, i64* %23, align 8, !tbaa !33
  %25 = mul nsw i32 %.omp.iv.03, 3
  %26 = sext i32 %25 to i64
  %27 = getelementptr inbounds double, double* %buf, i64 %26
  %28 = bitcast double* %27 to i64*
  store i64 %24, i64* %28, align 8, !tbaa !33
  %29 = add nsw i32 %20, 1
  %30 = sext i32 %29 to i64
  %31 = getelementptr inbounds double, double* %15, i64 %30
  %32 = bitcast double* %31 to i64*
  %33 = load i64, i64* %32, align 8, !tbaa !33
  %34 = add nsw i32 %25, 1
  %35 = sext i32 %34 to i64
  %36 = getelementptr inbounds double, double* %buf, i64 %35
  %37 = bitcast double* %36 to i64*
  store i64 %33, i64* %37, align 8, !tbaa !33
  %38 = add nsw i32 %20, 2
  %39 = sext i32 %38 to i64
  %40 = getelementptr inbounds double, double* %15, i64 %39
  %41 = bitcast double* %40 to i64*
  %42 = load i64, i64* %41, align 8, !tbaa !33
  %43 = add nsw i32 %25, 2
  %44 = sext i32 %43 to i64
  %45 = getelementptr inbounds double, double* %buf, i64 %44
  %46 = bitcast double* %45 to i64*
  store i64 %42, i64* %46, align 8, !tbaa !33
  %47 = add nsw i32 %.omp.iv.03, 1
  %48 = icmp slt i64 %indvars.iv, %17
  %indvars.iv.next = add nsw i64 %indvars.iv, 1
  br i1 %48, label %18, label %._crit_edge.loopexit

._crit_edge.loopexit:                             ; preds = %18
  br label %._crit_edge

._crit_edge:                                      ; preds = %._crit_edge.loopexit, %4
  call void @__kmpc_for_static_fini(%ident_t* nonnull @4, i32 %1)
  br label %49

; <label>:49                                      ; preds = %._crit_edge, %._crit_edge4
  %.pre-phi10 = phi i8* [ %.pre9, %._crit_edge4 ], [ %5, %._crit_edge ]
  %.pre-phi8 = phi i8* [ %.pre7, %._crit_edge4 ], [ %6, %._crit_edge ]
  %.pre-phi6 = phi i8* [ %.pre5, %._crit_edge4 ], [ %7, %._crit_edge ]
  %.pre-phi = phi i8* [ %.pre, %._crit_edge4 ], [ %8, %._crit_edge ]
  call void @llvm.lifetime.end(i64 4, i8* %.pre-phi) #7
  call void @llvm.lifetime.end(i64 4, i8* %.pre-phi6) #7
  call void @llvm.lifetime.end(i64 4, i8* %.pre-phi8) #7
  call void @llvm.lifetime.end(i64 4, i8* %.pre-phi10) #7
  call void @__kmpc_barrier(%ident_t* nonnull @5, i32 %1)
  ret void
}

; Function Attrs: uwtable
define void @_ZN4Atom14unpack_reverseEiPiPd(%class.Atom* nocapture readonly %this, i32 %n, i32* nocapture readonly %list, double* nocapture readonly %buf) #11 align 2 {
  %.omp.lb = alloca i32, align 4
  %.omp.ub = alloca i32, align 4
  %.omp.stride = alloca i32, align 4
  %.omp.is_last = alloca i32, align 4
  %1 = tail call i32 @__kmpc_global_thread_num(%ident_t* nonnull @4)
  %2 = add nsw i32 %n, -1
  %3 = icmp sgt i32 %n, 0
  br i1 %3, label %4, label %._crit_edge4

._crit_edge4:                                     ; preds = %0
  %.pre = bitcast i32* %.omp.is_last to i8*
  %.pre5 = bitcast i32* %.omp.stride to i8*
  %.pre7 = bitcast i32* %.omp.ub to i8*
  %.pre9 = bitcast i32* %.omp.lb to i8*
  br label %50

; <label>:4                                       ; preds = %0
  %5 = bitcast i32* %.omp.lb to i8*
  call void @llvm.lifetime.start(i64 4, i8* %5) #7
  store i32 0, i32* %.omp.lb, align 4, !tbaa !1
  %6 = bitcast i32* %.omp.ub to i8*
  call void @llvm.lifetime.start(i64 4, i8* %6) #7
  store i32 %2, i32* %.omp.ub, align 4, !tbaa !1
  %7 = bitcast i32* %.omp.stride to i8*
  call void @llvm.lifetime.start(i64 4, i8* %7) #7
  store i32 1, i32* %.omp.stride, align 4, !tbaa !1
  %8 = bitcast i32* %.omp.is_last to i8*
  call void @llvm.lifetime.start(i64 4, i8* %8) #7
  store i32 0, i32* %.omp.is_last, align 4, !tbaa !1
  call void @__kmpc_for_static_init_4(%ident_t* nonnull @4, i32 %1, i32 34, i32* nonnull %.omp.is_last, i32* nonnull %.omp.lb, i32* nonnull %.omp.ub, i32* nonnull %.omp.stride, i32 1, i32 1)
  %9 = load i32, i32* %.omp.ub, align 4, !tbaa !1
  %10 = icmp sgt i32 %9, %2
  %11 = select i1 %10, i32 %2, i32 %9
  store i32 %11, i32* %.omp.ub, align 4, !tbaa !1
  %12 = load i32, i32* %.omp.lb, align 4, !tbaa !1
  %13 = icmp sgt i32 %12, %11
  br i1 %13, label %._crit_edge, label %.lr.ph

.lr.ph:                                           ; preds = %4
  %14 = getelementptr inbounds %class.Atom, %class.Atom* %this, i64 0, i32 6
  %15 = load double*, double** %14, align 8
  %16 = sext i32 %12 to i64
  %17 = sext i32 %11 to i64
  br label %18

; <label>:18                                      ; preds = %18, %.lr.ph
  %indvars.iv = phi i64 [ %indvars.iv.next, %18 ], [ %16, %.lr.ph ]
  %.omp.iv.03 = phi i32 [ %48, %18 ], [ %12, %.lr.ph ]
  %19 = getelementptr inbounds i32, i32* %list, i64 %indvars.iv
  %20 = load i32, i32* %19, align 4, !tbaa !1
  %21 = mul nsw i32 %.omp.iv.03, 3
  %22 = sext i32 %21 to i64
  %23 = getelementptr inbounds double, double* %buf, i64 %22
  %24 = load double, double* %23, align 8, !tbaa !33
  %25 = mul nsw i32 %20, 3
  %26 = sext i32 %25 to i64
  %27 = getelementptr inbounds double, double* %15, i64 %26
  %28 = load double, double* %27, align 8, !tbaa !33
  %29 = fadd double %24, %28
  store double %29, double* %27, align 8, !tbaa !33
  %30 = add nsw i32 %21, 1
  %31 = sext i32 %30 to i64
  %32 = getelementptr inbounds double, double* %buf, i64 %31
  %33 = load double, double* %32, align 8, !tbaa !33
  %34 = add nsw i32 %25, 1
  %35 = sext i32 %34 to i64
  %36 = getelementptr inbounds double, double* %15, i64 %35
  %37 = load double, double* %36, align 8, !tbaa !33
  %38 = fadd double %33, %37
  store double %38, double* %36, align 8, !tbaa !33
  %39 = add nsw i32 %21, 2
  %40 = sext i32 %39 to i64
  %41 = getelementptr inbounds double, double* %buf, i64 %40
  %42 = load double, double* %41, align 8, !tbaa !33
  %43 = add nsw i32 %25, 2
  %44 = sext i32 %43 to i64
  %45 = getelementptr inbounds double, double* %15, i64 %44
  %46 = load double, double* %45, align 8, !tbaa !33
  %47 = fadd double %42, %46
  store double %47, double* %45, align 8, !tbaa !33
  %48 = add nsw i32 %.omp.iv.03, 1
  %49 = icmp slt i64 %indvars.iv, %17
  %indvars.iv.next = add nsw i64 %indvars.iv, 1
  br i1 %49, label %18, label %._crit_edge.loopexit

._crit_edge.loopexit:                             ; preds = %18
  br label %._crit_edge

._crit_edge:                                      ; preds = %._crit_edge.loopexit, %4
  call void @__kmpc_for_static_fini(%ident_t* nonnull @4, i32 %1)
  br label %50

; <label>:50                                      ; preds = %._crit_edge, %._crit_edge4
  %.pre-phi10 = phi i8* [ %.pre9, %._crit_edge4 ], [ %5, %._crit_edge ]
  %.pre-phi8 = phi i8* [ %.pre7, %._crit_edge4 ], [ %6, %._crit_edge ]
  %.pre-phi6 = phi i8* [ %.pre5, %._crit_edge4 ], [ %7, %._crit_edge ]
  %.pre-phi = phi i8* [ %.pre, %._crit_edge4 ], [ %8, %._crit_edge ]
  call void @llvm.lifetime.end(i64 4, i8* %.pre-phi) #7
  call void @llvm.lifetime.end(i64 4, i8* %.pre-phi6) #7
  call void @llvm.lifetime.end(i64 4, i8* %.pre-phi8) #7
  call void @llvm.lifetime.end(i64 4, i8* %.pre-phi10) #7
  call void @__kmpc_barrier(%ident_t* nonnull @5, i32 %1)
  ret void
}

; Function Attrs: norecurse nounwind uwtable
define i32 @_ZN4Atom11pack_borderEiPdPi(%class.Atom* nocapture readonly %this, i32 %i, double* nocapture %buf, i32* nocapture readonly %pbc_flags) #12 align 2 {
  %1 = load i32, i32* %pbc_flags, align 4, !tbaa !1
  %2 = icmp eq i32 %1, 0
  %3 = mul nsw i32 %i, 3
  %4 = sext i32 %3 to i64
  %5 = getelementptr inbounds %class.Atom, %class.Atom* %this, i64 0, i32 4
  %6 = load double*, double** %5, align 8, !tbaa !100
  %7 = getelementptr inbounds double, double* %6, i64 %4
  %8 = load double, double* %7, align 8, !tbaa !33
  br i1 %2, label %9, label %28

; <label>:9                                       ; preds = %0
  store double %8, double* %buf, align 8, !tbaa !33
  %10 = add nsw i32 %3, 1
  %11 = sext i32 %10 to i64
  %12 = getelementptr inbounds double, double* %6, i64 %11
  %13 = bitcast double* %12 to i64*
  %14 = load i64, i64* %13, align 8, !tbaa !33
  %15 = getelementptr inbounds double, double* %buf, i64 1
  %16 = bitcast double* %15 to i64*
  store i64 %14, i64* %16, align 8, !tbaa !33
  %17 = add nsw i32 %3, 2
  %18 = sext i32 %17 to i64
  %19 = getelementptr inbounds double, double* %6, i64 %18
  %20 = bitcast double* %19 to i64*
  %21 = load i64, i64* %20, align 8, !tbaa !33
  %22 = getelementptr inbounds double, double* %buf, i64 2
  %23 = bitcast double* %22 to i64*
  store i64 %21, i64* %23, align 8, !tbaa !33
  %24 = sext i32 %i to i64
  %25 = getelementptr inbounds %class.Atom, %class.Atom* %this, i64 0, i32 9
  %26 = load i32*, i32** %25, align 8, !tbaa !102
  %27 = getelementptr inbounds i32, i32* %26, i64 %24
  br label %64

; <label>:28                                      ; preds = %0
  %29 = getelementptr inbounds i32, i32* %pbc_flags, i64 1
  %30 = load i32, i32* %29, align 4, !tbaa !1
  %31 = sitofp i32 %30 to double
  %32 = getelementptr inbounds %class.Atom, %class.Atom* %this, i64 0, i32 18, i32 0
  %33 = load double, double* %32, align 8, !tbaa !62
  %34 = fmul double %31, %33
  %35 = fadd double %8, %34
  store double %35, double* %buf, align 8, !tbaa !33
  %36 = add nsw i32 %3, 1
  %37 = sext i32 %36 to i64
  %38 = getelementptr inbounds double, double* %6, i64 %37
  %39 = load double, double* %38, align 8, !tbaa !33
  %40 = getelementptr inbounds i32, i32* %pbc_flags, i64 2
  %41 = load i32, i32* %40, align 4, !tbaa !1
  %42 = sitofp i32 %41 to double
  %43 = getelementptr inbounds %class.Atom, %class.Atom* %this, i64 0, i32 18, i32 1
  %44 = load double, double* %43, align 8, !tbaa !63
  %45 = fmul double %42, %44
  %46 = fadd double %39, %45
  %47 = getelementptr inbounds double, double* %buf, i64 1
  store double %46, double* %47, align 8, !tbaa !33
  %48 = add nsw i32 %3, 2
  %49 = sext i32 %48 to i64
  %50 = getelementptr inbounds double, double* %6, i64 %49
  %51 = load double, double* %50, align 8, !tbaa !33
  %52 = getelementptr inbounds i32, i32* %pbc_flags, i64 3
  %53 = load i32, i32* %52, align 4, !tbaa !1
  %54 = sitofp i32 %53 to double
  %55 = getelementptr inbounds %class.Atom, %class.Atom* %this, i64 0, i32 18, i32 2
  %56 = load double, double* %55, align 8, !tbaa !64
  %57 = fmul double %54, %56
  %58 = fadd double %51, %57
  %59 = getelementptr inbounds double, double* %buf, i64 2
  store double %58, double* %59, align 8, !tbaa !33
  %60 = sext i32 %i to i64
  %61 = getelementptr inbounds %class.Atom, %class.Atom* %this, i64 0, i32 9
  %62 = load i32*, i32** %61, align 8, !tbaa !102
  %63 = getelementptr inbounds i32, i32* %62, i64 %60
  br label %64

; <label>:64                                      ; preds = %28, %9
  %.sink.in.in = phi i32* [ %63, %28 ], [ %27, %9 ]
  %.sink.in = load i32, i32* %.sink.in.in, align 4, !tbaa !1
  %.sink = sitofp i32 %.sink.in to double
  %65 = getelementptr inbounds double, double* %buf, i64 3
  store double %.sink, double* %65, align 8
  ret i32 4
}

; Function Attrs: nounwind uwtable
define i32 @_ZN4Atom13unpack_borderEiPd(%class.Atom* nocapture %this, i32 %i, double* nocapture readonly %buf) #9 align 2 {
  %1 = getelementptr inbounds %class.Atom, %class.Atom* %this, i64 0, i32 3
  %2 = load i32, i32* %1, align 4, !tbaa !99
  %3 = icmp eq i32 %2, %i
  br i1 %3, label %4, label %5

; <label>:4                                       ; preds = %0
  tail call void @_ZN4Atom9growarrayEv(%class.Atom* nonnull %this)
  br label %5

; <label>:5                                       ; preds = %4, %0
  %6 = bitcast double* %buf to i64*
  %7 = load i64, i64* %6, align 8, !tbaa !33
  %8 = mul nsw i32 %i, 3
  %9 = sext i32 %8 to i64
  %10 = getelementptr inbounds %class.Atom, %class.Atom* %this, i64 0, i32 4
  %11 = load double*, double** %10, align 8, !tbaa !100
  %12 = getelementptr inbounds double, double* %11, i64 %9
  %13 = bitcast double* %12 to i64*
  store i64 %7, i64* %13, align 8, !tbaa !33
  %14 = getelementptr inbounds double, double* %buf, i64 1
  %15 = bitcast double* %14 to i64*
  %16 = load i64, i64* %15, align 8, !tbaa !33
  %17 = add nsw i32 %8, 1
  %18 = sext i32 %17 to i64
  %19 = getelementptr inbounds double, double* %11, i64 %18
  %20 = bitcast double* %19 to i64*
  store i64 %16, i64* %20, align 8, !tbaa !33
  %21 = getelementptr inbounds double, double* %buf, i64 2
  %22 = bitcast double* %21 to i64*
  %23 = load i64, i64* %22, align 8, !tbaa !33
  %24 = add nsw i32 %8, 2
  %25 = sext i32 %24 to i64
  %26 = getelementptr inbounds double, double* %11, i64 %25
  %27 = bitcast double* %26 to i64*
  store i64 %23, i64* %27, align 8, !tbaa !33
  %28 = getelementptr inbounds double, double* %buf, i64 3
  %29 = load double, double* %28, align 8, !tbaa !33
  %30 = fptosi double %29 to i32
  %31 = sext i32 %i to i64
  %32 = getelementptr inbounds %class.Atom, %class.Atom* %this, i64 0, i32 9
  %33 = load i32*, i32** %32, align 8, !tbaa !102
  %34 = getelementptr inbounds i32, i32* %33, i64 %31
  store i32 %30, i32* %34, align 4, !tbaa !1
  ret i32 4
}

; Function Attrs: norecurse nounwind uwtable
define i32 @_ZN4Atom13pack_exchangeEiPd(%class.Atom* nocapture readonly %this, i32 %i, double* nocapture %buf) #12 align 2 {
  %1 = mul nsw i32 %i, 3
  %2 = sext i32 %1 to i64
  %3 = getelementptr inbounds %class.Atom, %class.Atom* %this, i64 0, i32 4
  %4 = load double*, double** %3, align 8, !tbaa !100
  %5 = getelementptr inbounds double, double* %4, i64 %2
  %6 = bitcast double* %5 to i64*
  %7 = load i64, i64* %6, align 8, !tbaa !33
  %8 = bitcast double* %buf to i64*
  store i64 %7, i64* %8, align 8, !tbaa !33
  %9 = add nsw i32 %1, 1
  %10 = sext i32 %9 to i64
  %11 = getelementptr inbounds double, double* %4, i64 %10
  %12 = bitcast double* %11 to i64*
  %13 = load i64, i64* %12, align 8, !tbaa !33
  %14 = getelementptr inbounds double, double* %buf, i64 1
  %15 = bitcast double* %14 to i64*
  store i64 %13, i64* %15, align 8, !tbaa !33
  %16 = add nsw i32 %1, 2
  %17 = sext i32 %16 to i64
  %18 = getelementptr inbounds double, double* %4, i64 %17
  %19 = bitcast double* %18 to i64*
  %20 = load i64, i64* %19, align 8, !tbaa !33
  %21 = getelementptr inbounds double, double* %buf, i64 2
  %22 = bitcast double* %21 to i64*
  store i64 %20, i64* %22, align 8, !tbaa !33
  %23 = getelementptr inbounds %class.Atom, %class.Atom* %this, i64 0, i32 5
  %24 = load double*, double** %23, align 8, !tbaa !101
  %25 = getelementptr inbounds double, double* %24, i64 %2
  %26 = bitcast double* %25 to i64*
  %27 = load i64, i64* %26, align 8, !tbaa !33
  %28 = getelementptr inbounds double, double* %buf, i64 3
  %29 = bitcast double* %28 to i64*
  store i64 %27, i64* %29, align 8, !tbaa !33
  %30 = getelementptr inbounds double, double* %24, i64 %10
  %31 = bitcast double* %30 to i64*
  %32 = load i64, i64* %31, align 8, !tbaa !33
  %33 = getelementptr inbounds double, double* %buf, i64 4
  %34 = bitcast double* %33 to i64*
  store i64 %32, i64* %34, align 8, !tbaa !33
  %35 = getelementptr inbounds double, double* %24, i64 %17
  %36 = bitcast double* %35 to i64*
  %37 = load i64, i64* %36, align 8, !tbaa !33
  %38 = getelementptr inbounds double, double* %buf, i64 5
  %39 = bitcast double* %38 to i64*
  store i64 %37, i64* %39, align 8, !tbaa !33
  %40 = sext i32 %i to i64
  %41 = getelementptr inbounds %class.Atom, %class.Atom* %this, i64 0, i32 9
  %42 = load i32*, i32** %41, align 8, !tbaa !102
  %43 = getelementptr inbounds i32, i32* %42, i64 %40
  %44 = load i32, i32* %43, align 4, !tbaa !1
  %45 = sitofp i32 %44 to double
  %46 = getelementptr inbounds double, double* %buf, i64 6
  store double %45, double* %46, align 8, !tbaa !33
  ret i32 7
}

; Function Attrs: nounwind uwtable
define i32 @_ZN4Atom15unpack_exchangeEiPd(%class.Atom* nocapture %this, i32 %i, double* nocapture readonly %buf) #9 align 2 {
  %1 = getelementptr inbounds %class.Atom, %class.Atom* %this, i64 0, i32 3
  %2 = load i32, i32* %1, align 4, !tbaa !99
  %3 = icmp eq i32 %2, %i
  br i1 %3, label %4, label %5

; <label>:4                                       ; preds = %0
  tail call void @_ZN4Atom9growarrayEv(%class.Atom* nonnull %this)
  br label %5

; <label>:5                                       ; preds = %4, %0
  %6 = bitcast double* %buf to i64*
  %7 = load i64, i64* %6, align 8, !tbaa !33
  %8 = mul nsw i32 %i, 3
  %9 = sext i32 %8 to i64
  %10 = getelementptr inbounds %class.Atom, %class.Atom* %this, i64 0, i32 4
  %11 = load double*, double** %10, align 8, !tbaa !100
  %12 = getelementptr inbounds double, double* %11, i64 %9
  %13 = bitcast double* %12 to i64*
  store i64 %7, i64* %13, align 8, !tbaa !33
  %14 = getelementptr inbounds double, double* %buf, i64 1
  %15 = bitcast double* %14 to i64*
  %16 = load i64, i64* %15, align 8, !tbaa !33
  %17 = add nsw i32 %8, 1
  %18 = sext i32 %17 to i64
  %19 = getelementptr inbounds double, double* %11, i64 %18
  %20 = bitcast double* %19 to i64*
  store i64 %16, i64* %20, align 8, !tbaa !33
  %21 = getelementptr inbounds double, double* %buf, i64 2
  %22 = bitcast double* %21 to i64*
  %23 = load i64, i64* %22, align 8, !tbaa !33
  %24 = add nsw i32 %8, 2
  %25 = sext i32 %24 to i64
  %26 = getelementptr inbounds double, double* %11, i64 %25
  %27 = bitcast double* %26 to i64*
  store i64 %23, i64* %27, align 8, !tbaa !33
  %28 = getelementptr inbounds double, double* %buf, i64 3
  %29 = bitcast double* %28 to i64*
  %30 = load i64, i64* %29, align 8, !tbaa !33
  %31 = getelementptr inbounds %class.Atom, %class.Atom* %this, i64 0, i32 5
  %32 = load double*, double** %31, align 8, !tbaa !101
  %33 = getelementptr inbounds double, double* %32, i64 %9
  %34 = bitcast double* %33 to i64*
  store i64 %30, i64* %34, align 8, !tbaa !33
  %35 = getelementptr inbounds double, double* %buf, i64 4
